Archive member included because of file (symbol)

c:/PSDK3v2/ps3dev/portlibs/ppu/lib\libtiny3d.a(tiny3d.o)
                              main.o (tiny3d_Init)
c:/PSDK3v2/ps3dev/portlibs/ppu/lib\libtiny3d.a(vshader_text_normal.vcg.o)
                              c:/PSDK3v2/ps3dev/portlibs/ppu/lib\libtiny3d.a(tiny3d.o) (vshader_text_normal_bin)
c:/PSDK3v2/ps3dev/portlibs/ppu/lib\libtiny3d.a(commands.o)
                              c:/PSDK3v2/ps3dev/portlibs/ppu/lib\libtiny3d.a(tiny3d.o) (rsxtiny_MakeCmdSpace)
c:/PSDK3v2/ps3dev/portlibs/ppu/lib\libtiny3d.a(glue.o)
                              c:/PSDK3v2/ps3dev/portlibs/ppu/lib\libtiny3d.a(tiny3d.o) (rsxtiny_FlushBuffer)
c:/PSDK3v2/ps3dev/portlibs/ppu/lib\libtiny3d.a(matrix.o)
                              c:/PSDK3v2/ps3dev/portlibs/ppu/lib\libtiny3d.a(tiny3d.o) (MatrixVectorMultiply)
c:/PSDK3v2/ps3dev/portlibs/ppu/lib\libtiny3d.a(mm.o)
                              c:/PSDK3v2/ps3dev/portlibs/ppu/lib\libtiny3d.a(tiny3d.o) (rsxtiny_MemAlign)
c:/PSDK3v2/ps3dev/portlibs/ppu/lib\libtiny3d.a(realityVP.o)
                              c:/PSDK3v2/ps3dev/portlibs/ppu/lib\libtiny3d.a(commands.o) (rsxtiny_VertexProgramGetUCode)
c:/PSDK3v2/ps3dev/portlibs/ppu/lib\libtiny3d.a(rsxutil.o)
                              c:/PSDK3v2/ps3dev/portlibs/ppu/lib\libtiny3d.a(tiny3d.o) (waitFlip)
c:/PSDK3v2/ps3dev/portlibs/ppu/lib\libtiny3d.a(buffer.o)
                              c:/PSDK3v2/ps3dev/portlibs/ppu/lib\libtiny3d.a(commands.o) (tiny_rsxContextCallback)
c:/PSDK3v2/psl1ght/ppu/lib\libgcm_sys.a(sprx.o)
                              c:/PSDK3v2/ps3dev/portlibs/ppu/lib\libtiny3d.a(rsxutil.o) (gcmSetFlip)
c:/PSDK3v2/psl1ght/ppu/lib\libio.a(sprx.o)
                              main.o (ioPadInit)
c:/PSDK3v2/psl1ght/ppu/lib\libsysutil.a(sprx.o)
                              c:/PSDK3v2/ps3dev/portlibs/ppu/lib\libtiny3d.a(rsxutil.o) (videoConfigure)
c:/PSDK3v2/psl1ght/ppu/lib\libsysutil.a(sysutil_wrapper.o)
                              c:/PSDK3v2/ps3dev/portlibs/ppu/lib\libtiny3d.a(tiny3d.o) (sysUtilRegisterCallback)
c:/PSDK3v2/psl1ght/ppu/lib\librt.a(sbrk.o)
                              c:/psdk3v2/ps3dev/ppu/bin/../lib/gcc/powerpc64-ps3-elf/4.5.2/../../../../powerpc64-ps3-elf/lib/lv2-crt0.o (__librt_sbrk_r)
c:/PSDK3v2/psl1ght/ppu/lib\librt.a(exit.o)
                              c:/psdk3v2/ps3dev/ppu/bin/../lib/gcc/powerpc64-ps3-elf/4.5.2/../../../../powerpc64-ps3-elf/lib/lv2-crt0.o (__librt_exit)
c:/PSDK3v2/psl1ght/ppu/lib\librt.a(close.o)
                              c:/psdk3v2/ps3dev/ppu/bin/../lib/gcc/powerpc64-ps3-elf/4.5.2/../../../../powerpc64-ps3-elf/lib/lv2-crt0.o (__librt_close_r)
c:/PSDK3v2/psl1ght/ppu/lib\librt.a(lseek.o)
                              c:/psdk3v2/ps3dev/ppu/bin/../lib/gcc/powerpc64-ps3-elf/4.5.2/../../../../powerpc64-ps3-elf/lib/lv2-crt0.o (__librt_lseek_r)
c:/PSDK3v2/psl1ght/ppu/lib\librt.a(read.o)
                              c:/psdk3v2/ps3dev/ppu/bin/../lib/gcc/powerpc64-ps3-elf/4.5.2/../../../../powerpc64-ps3-elf/lib/lv2-crt0.o (__librt_read_r)
c:/PSDK3v2/psl1ght/ppu/lib\librt.a(open.o)
                              c:/psdk3v2/ps3dev/ppu/bin/../lib/gcc/powerpc64-ps3-elf/4.5.2/../../../../powerpc64-ps3-elf/lib/lv2-crt0.o (__librt_open_r)
c:/PSDK3v2/psl1ght/ppu/lib\librt.a(sleep.o)
                              c:/psdk3v2/ps3dev/ppu/bin/../lib/gcc/powerpc64-ps3-elf/4.5.2/../../../../powerpc64-ps3-elf/lib/lv2-crt0.o (__librt_usleep_r)
c:/PSDK3v2/psl1ght/ppu/lib\librt.a(write.o)
                              c:/psdk3v2/ps3dev/ppu/bin/../lib/gcc/powerpc64-ps3-elf/4.5.2/../../../../powerpc64-ps3-elf/lib/lv2-crt0.o (__librt_write_r)
c:/PSDK3v2/psl1ght/ppu/lib\librt.a(fstat.o)
                              c:/psdk3v2/ps3dev/ppu/bin/../lib/gcc/powerpc64-ps3-elf/4.5.2/../../../../powerpc64-ps3-elf/lib/lv2-crt0.o (__librt_fstat_r)
c:/PSDK3v2/psl1ght/ppu/lib\librt.a(socket.o)
                              c:/PSDK3v2/psl1ght/ppu/lib\librt.a(write.o) (send)
c:/PSDK3v2/psl1ght/ppu/lib\librt.a(lock.o)
                              c:/psdk3v2/ps3dev/ppu/bin/../lib/gcc/powerpc64-ps3-elf/4.5.2/../../../../powerpc64-ps3-elf/lib/lv2-crt0.o (__librt_sys_lwmutex_create_r)
c:/PSDK3v2/psl1ght/ppu/lib\librt.a(dirent.o)
                              c:/psdk3v2/ps3dev/ppu/bin/../lib/gcc/powerpc64-ps3-elf/4.5.2/../../../../powerpc64-ps3-elf/lib/lv2-crt0.o (__librt_opendir_r)
c:/PSDK3v2/psl1ght/ppu/lib\librt.a(mkdir.o)
                              c:/psdk3v2/ps3dev/ppu/bin/../lib/gcc/powerpc64-ps3-elf/4.5.2/../../../../powerpc64-ps3-elf/lib/lv2-crt0.o (__librt_mkdir_r)
c:/PSDK3v2/psl1ght/ppu/lib\librt.a(times.o)
                              c:/psdk3v2/ps3dev/ppu/bin/../lib/gcc/powerpc64-ps3-elf/4.5.2/../../../../powerpc64-ps3-elf/lib/lv2-crt0.o (__librt_times_r)
c:/PSDK3v2/psl1ght/ppu/lib\librt.a(umask.o)
                              c:/psdk3v2/ps3dev/ppu/bin/../lib/gcc/powerpc64-ps3-elf/4.5.2/../../../../powerpc64-ps3-elf/lib/lv2-crt0.o (__librt_umask_r)
c:/PSDK3v2/psl1ght/ppu/lib\librt.a(lv2errno.o)
                              c:/PSDK3v2/psl1ght/ppu/lib\librt.a(socket.o) (lv2errno)
c:/PSDK3v2/psl1ght/ppu/lib\librt.a(heap.o)
                              c:/PSDK3v2/psl1ght/ppu/lib\librt.a(sbrk.o) (heapInit)
c:/PSDK3v2/psl1ght/ppu/lib\librt.a(chmod.o)
                              c:/psdk3v2/ps3dev/ppu/bin/../lib/gcc/powerpc64-ps3-elf/4.5.2/../../../../powerpc64-ps3-elf/lib/lv2-crt0.o (__librt_chmod_r)
c:/PSDK3v2/psl1ght/ppu/lib\librt.a(rmdir.o)
                              c:/psdk3v2/ps3dev/ppu/bin/../lib/gcc/powerpc64-ps3-elf/4.5.2/../../../../powerpc64-ps3-elf/lib/lv2-crt0.o (__librt_rmdir_r)
c:/PSDK3v2/psl1ght/ppu/lib\librt.a(isatty.o)
                              c:/psdk3v2/ps3dev/ppu/bin/../lib/gcc/powerpc64-ps3-elf/4.5.2/../../../../powerpc64-ps3-elf/lib/lv2-crt0.o (__librt_isatty_r)
c:/PSDK3v2/psl1ght/ppu/lib\librt.a(gettod.o)
                              c:/psdk3v2/ps3dev/ppu/bin/../lib/gcc/powerpc64-ps3-elf/4.5.2/../../../../powerpc64-ps3-elf/lib/lv2-crt0.o (__librt_gettod_r)
c:/PSDK3v2/psl1ght/ppu/lib\librt.a(settod.o)
                              c:/psdk3v2/ps3dev/ppu/bin/../lib/gcc/powerpc64-ps3-elf/4.5.2/../../../../powerpc64-ps3-elf/lib/lv2-crt0.o (__librt_settod_r)
c:/PSDK3v2/psl1ght/ppu/lib\liblv2.a(sprx.o)
                              c:/PSDK3v2/psl1ght/ppu/lib\librt.a(sbrk.o) (sysSpinlockInitialize)
c:/PSDK3v2/psl1ght/ppu/lib\libpngdec.a(pngdec.o)
                              main.o (pngLoadFromBuffer)
c:/PSDK3v2/psl1ght/ppu/lib\libpngdec.a(sprx.o)
                              c:/PSDK3v2/psl1ght/ppu/lib\libpngdec.a(pngdec.o) (pngDecDestroy)
c:/PSDK3v2/psl1ght/ppu/lib\libsysmodule.a(sprx.o)
                              main.o (sysModuleLoad)
c:/psdk3v2/ps3dev/ppu/bin/../lib/gcc/powerpc64-ps3-elf/4.5.2/../../../../powerpc64-ps3-elf/lib\libm.a(lib_a-s_sqrt.o)
                              c:/PSDK3v2/ps3dev/portlibs/ppu/lib\libtiny3d.a(matrix.o) (sqrt)
c:/psdk3v2/ps3dev/ppu/bin/../lib/gcc/powerpc64-ps3-elf/4.5.2/../../../../powerpc64-ps3-elf/lib\libm.a(lib_a-sf_cos.o)
                              c:/PSDK3v2/ps3dev/portlibs/ppu/lib\libtiny3d.a(matrix.o) (cosf)
c:/psdk3v2/ps3dev/ppu/bin/../lib/gcc/powerpc64-ps3-elf/4.5.2/../../../../powerpc64-ps3-elf/lib\libm.a(lib_a-sf_sin.o)
                              c:/PSDK3v2/ps3dev/portlibs/ppu/lib\libtiny3d.a(matrix.o) (sinf)
c:/psdk3v2/ps3dev/ppu/bin/../lib/gcc/powerpc64-ps3-elf/4.5.2/../../../../powerpc64-ps3-elf/lib\libm.a(lib_a-sf_sine.o)
                              c:/psdk3v2/ps3dev/ppu/bin/../lib/gcc/powerpc64-ps3-elf/4.5.2/../../../../powerpc64-ps3-elf/lib\libm.a(lib_a-sf_cos.o) (sinef)
c:/psdk3v2/ps3dev/ppu/bin/../lib/gcc/powerpc64-ps3-elf/4.5.2/../../../../powerpc64-ps3-elf/lib\libm.a(lib_a-sf_sqrt.o)
                              c:/PSDK3v2/ps3dev/portlibs/ppu/lib\libtiny3d.a(matrix.o) (sqrtf)
c:/psdk3v2/ps3dev/ppu/bin/../lib/gcc/powerpc64-ps3-elf/4.5.2/../../../../powerpc64-ps3-elf/lib\libm.a(lib_a-sf_tan.o)
                              c:/PSDK3v2/ps3dev/portlibs/ppu/lib\libtiny3d.a(matrix.o) (tanf)
c:/psdk3v2/ps3dev/ppu/bin/../lib/gcc/powerpc64-ps3-elf/4.5.2/../../../../powerpc64-ps3-elf/lib\libm.a(lib_a-s_frexp.o)
                              c:/psdk3v2/ps3dev/ppu/bin/../lib/gcc/powerpc64-ps3-elf/4.5.2/../../../../powerpc64-ps3-elf/lib\libm.a(lib_a-s_sqrt.o) (frexp)
c:/psdk3v2/ps3dev/ppu/bin/../lib/gcc/powerpc64-ps3-elf/4.5.2/../../../../powerpc64-ps3-elf/lib\libm.a(lib_a-s_ispos.o)
                              c:/psdk3v2/ps3dev/ppu/bin/../lib/gcc/powerpc64-ps3-elf/4.5.2/../../../../powerpc64-ps3-elf/lib\libm.a(lib_a-s_sqrt.o) (ispos)
c:/psdk3v2/ps3dev/ppu/bin/../lib/gcc/powerpc64-ps3-elf/4.5.2/../../../../powerpc64-ps3-elf/lib\libm.a(lib_a-s_ldexp.o)
                              c:/psdk3v2/ps3dev/ppu/bin/../lib/gcc/powerpc64-ps3-elf/4.5.2/../../../../powerpc64-ps3-elf/lib\libm.a(lib_a-s_sqrt.o) (ldexp)
c:/psdk3v2/ps3dev/ppu/bin/../lib/gcc/powerpc64-ps3-elf/4.5.2/../../../../powerpc64-ps3-elf/lib\libm.a(lib_a-s_mathcnst.o)
                              c:/psdk3v2/ps3dev/ppu/bin/../lib/gcc/powerpc64-ps3-elf/4.5.2/../../../../powerpc64-ps3-elf/lib\libm.a(lib_a-sf_sine.o) (z_rooteps_f)
c:/psdk3v2/ps3dev/ppu/bin/../lib/gcc/powerpc64-ps3-elf/4.5.2/../../../../powerpc64-ps3-elf/lib\libm.a(lib_a-s_numtest.o)
                              c:/psdk3v2/ps3dev/ppu/bin/../lib/gcc/powerpc64-ps3-elf/4.5.2/../../../../powerpc64-ps3-elf/lib\libm.a(lib_a-s_sqrt.o) (numtest)
c:/psdk3v2/ps3dev/ppu/bin/../lib/gcc/powerpc64-ps3-elf/4.5.2/../../../../powerpc64-ps3-elf/lib\libm.a(lib_a-sf_fabs.o)
                              c:/psdk3v2/ps3dev/ppu/bin/../lib/gcc/powerpc64-ps3-elf/4.5.2/../../../../powerpc64-ps3-elf/lib\libm.a(lib_a-sf_sine.o) (fabsf)
c:/psdk3v2/ps3dev/ppu/bin/../lib/gcc/powerpc64-ps3-elf/4.5.2/../../../../powerpc64-ps3-elf/lib\libm.a(lib_a-sf_frexp.o)
                              c:/psdk3v2/ps3dev/ppu/bin/../lib/gcc/powerpc64-ps3-elf/4.5.2/../../../../powerpc64-ps3-elf/lib\libm.a(lib_a-sf_sqrt.o) (frexpf)
c:/psdk3v2/ps3dev/ppu/bin/../lib/gcc/powerpc64-ps3-elf/4.5.2/../../../../powerpc64-ps3-elf/lib\libm.a(lib_a-sf_ispos.o)
                              c:/psdk3v2/ps3dev/ppu/bin/../lib/gcc/powerpc64-ps3-elf/4.5.2/../../../../powerpc64-ps3-elf/lib\libm.a(lib_a-sf_sqrt.o) (isposf)
c:/psdk3v2/ps3dev/ppu/bin/../lib/gcc/powerpc64-ps3-elf/4.5.2/../../../../powerpc64-ps3-elf/lib\libm.a(lib_a-sf_ldexp.o)
                              c:/psdk3v2/ps3dev/ppu/bin/../lib/gcc/powerpc64-ps3-elf/4.5.2/../../../../powerpc64-ps3-elf/lib\libm.a(lib_a-sf_sqrt.o) (ldexpf)
c:/psdk3v2/ps3dev/ppu/bin/../lib/gcc/powerpc64-ps3-elf/4.5.2/../../../../powerpc64-ps3-elf/lib\libm.a(lib_a-sf_numtest.o)
                              c:/psdk3v2/ps3dev/ppu/bin/../lib/gcc/powerpc64-ps3-elf/4.5.2/../../../../powerpc64-ps3-elf/lib\libm.a(lib_a-sf_sine.o) (numtestf)
c:/psdk3v2/ps3dev/ppu/bin/../lib/gcc/powerpc64-ps3-elf/4.5.2/../../../../powerpc64-ps3-elf/lib\libsysbase.a(syscalls.o)
                              c:/psdk3v2/ps3dev/ppu/bin/../lib/gcc/powerpc64-ps3-elf/4.5.2/../../../../powerpc64-ps3-elf/lib/lv2-crt0.o (__syscalls)
c:/psdk3v2/ps3dev/ppu/bin/../lib/gcc/powerpc64-ps3-elf/4.5.2/../../../../powerpc64-ps3-elf/lib\libsysbase.a(sleep.o)
                              c:/PSDK3v2/ps3dev/portlibs/ppu/lib\libtiny3d.a(tiny3d.o) (usleep)
c:/psdk3v2/ps3dev/ppu/bin/../lib/gcc/powerpc64-ps3-elf/4.5.2/../../../../powerpc64-ps3-elf/lib\libc.a(lib_a-atexit.o)
                              main.o (atexit)
c:/psdk3v2/ps3dev/ppu/bin/../lib/gcc/powerpc64-ps3-elf/4.5.2/../../../../powerpc64-ps3-elf/lib\libc.a(lib_a-errno.o)
                              c:/PSDK3v2/psl1ght/ppu/lib\librt.a(socket.o) (__errno)
c:/psdk3v2/ps3dev/ppu/bin/../lib/gcc/powerpc64-ps3-elf/4.5.2/../../../../powerpc64-ps3-elf/lib\libc.a(lib_a-exit.o)
                              c:/psdk3v2/ps3dev/ppu/bin/../lib/gcc/powerpc64-ps3-elf/4.5.2/../../../../powerpc64-ps3-elf/lib/lv2-crt0.o (exit)
c:/psdk3v2/ps3dev/ppu/bin/../lib/gcc/powerpc64-ps3-elf/4.5.2/../../../../powerpc64-ps3-elf/lib\libc.a(lib_a-getreent.o)
                              c:/psdk3v2/ps3dev/ppu/bin/../lib/gcc/powerpc64-ps3-elf/4.5.2/../../../../powerpc64-ps3-elf/lib\libsysbase.a(sleep.o) (__getreent)
c:/psdk3v2/ps3dev/ppu/bin/../lib/gcc/powerpc64-ps3-elf/4.5.2/../../../../powerpc64-ps3-elf/lib\libc.a(lib_a-impure.o)
                              c:/psdk3v2/ps3dev/ppu/bin/../lib/gcc/powerpc64-ps3-elf/4.5.2/../../../../powerpc64-ps3-elf/lib\libc.a(lib_a-exit.o) (_global_impure_ptr)
c:/psdk3v2/ps3dev/ppu/bin/../lib/gcc/powerpc64-ps3-elf/4.5.2/../../../../powerpc64-ps3-elf/lib\libc.a(lib_a-malign.o)
                              c:/PSDK3v2/ps3dev/portlibs/ppu/lib\libtiny3d.a(rsxutil.o) (memalign)
c:/psdk3v2/ps3dev/ppu/bin/../lib/gcc/powerpc64-ps3-elf/4.5.2/../../../../powerpc64-ps3-elf/lib\libc.a(lib_a-malignr.o)
                              c:/psdk3v2/ps3dev/ppu/bin/../lib/gcc/powerpc64-ps3-elf/4.5.2/../../../../powerpc64-ps3-elf/lib\libc.a(lib_a-malign.o) (_memalign_r)
c:/psdk3v2/ps3dev/ppu/bin/../lib/gcc/powerpc64-ps3-elf/4.5.2/../../../../powerpc64-ps3-elf/lib\libc.a(lib_a-malloc.o)
                              c:/PSDK3v2/ps3dev/portlibs/ppu/lib\libtiny3d.a(tiny3d.o) (malloc)
c:/psdk3v2/ps3dev/ppu/bin/../lib/gcc/powerpc64-ps3-elf/4.5.2/../../../../powerpc64-ps3-elf/lib\libc.a(lib_a-mallocr.o)
                              c:/psdk3v2/ps3dev/ppu/bin/../lib/gcc/powerpc64-ps3-elf/4.5.2/../../../../powerpc64-ps3-elf/lib\libc.a(lib_a-malignr.o) (_malloc_r)
c:/psdk3v2/ps3dev/ppu/bin/../lib/gcc/powerpc64-ps3-elf/4.5.2/../../../../powerpc64-ps3-elf/lib\libc.a(lib_a-memcpy.o)
                              main.o (memcpy)
c:/psdk3v2/ps3dev/ppu/bin/../lib/gcc/powerpc64-ps3-elf/4.5.2/../../../../powerpc64-ps3-elf/lib\libc.a(lib_a-memset.o)
                              c:/PSDK3v2/psl1ght/ppu/lib\librt.a(fstat.o) (memset)
c:/psdk3v2/ps3dev/ppu/bin/../lib/gcc/powerpc64-ps3-elf/4.5.2/../../../../powerpc64-ps3-elf/lib\libc.a(lib_a-mlock.o)
                              c:/psdk3v2/ps3dev/ppu/bin/../lib/gcc/powerpc64-ps3-elf/4.5.2/../../../../powerpc64-ps3-elf/lib\libc.a(lib_a-malignr.o) (__malloc_lock)
c:/psdk3v2/ps3dev/ppu/bin/../lib/gcc/powerpc64-ps3-elf/4.5.2/../../../../powerpc64-ps3-elf/lib\libc.a(lib_a-sscanf.o)
                              c:/PSDK3v2/psl1ght/ppu/lib\librt.a(socket.o) (sscanf)
c:/psdk3v2/ps3dev/ppu/bin/../lib/gcc/powerpc64-ps3-elf/4.5.2/../../../../powerpc64-ps3-elf/lib\libc.a(lib_a-stdio.o)
                              c:/psdk3v2/ps3dev/ppu/bin/../lib/gcc/powerpc64-ps3-elf/4.5.2/../../../../powerpc64-ps3-elf/lib\libc.a(lib_a-sscanf.o) (__seofread)
c:/psdk3v2/ps3dev/ppu/bin/../lib/gcc/powerpc64-ps3-elf/4.5.2/../../../../powerpc64-ps3-elf/lib\libc.a(lib_a-strcasecmp.o)
                              c:/PSDK3v2/ps3dev/portlibs/ppu/lib\libtiny3d.a(realityVP.o) (strcasecmp)
c:/psdk3v2/ps3dev/ppu/bin/../lib/gcc/powerpc64-ps3-elf/4.5.2/../../../../powerpc64-ps3-elf/lib\libc.a(lib_a-strlen.o)
                              c:/psdk3v2/ps3dev/ppu/bin/../lib/gcc/powerpc64-ps3-elf/4.5.2/../../../../powerpc64-ps3-elf/lib\libc.a(lib_a-sscanf.o) (strlen)
c:/psdk3v2/ps3dev/ppu/bin/../lib/gcc/powerpc64-ps3-elf/4.5.2/../../../../powerpc64-ps3-elf/lib\libc.a(lib_a-strncpy.o)
                              c:/PSDK3v2/psl1ght/ppu/lib\librt.a(dirent.o) (strncpy)
c:/psdk3v2/ps3dev/ppu/bin/../lib/gcc/powerpc64-ps3-elf/4.5.2/../../../../powerpc64-ps3-elf/lib\libc.a(lib_a-svfscanf.o)
                              c:/psdk3v2/ps3dev/ppu/bin/../lib/gcc/powerpc64-ps3-elf/4.5.2/../../../../powerpc64-ps3-elf/lib\libc.a(lib_a-sscanf.o) (__ssvfscanf_r)
c:/psdk3v2/ps3dev/ppu/bin/../lib/gcc/powerpc64-ps3-elf/4.5.2/../../../../powerpc64-ps3-elf/lib\libc.a(lib_a-__atexit.o)
                              c:/psdk3v2/ps3dev/ppu/bin/../lib/gcc/powerpc64-ps3-elf/4.5.2/../../../../powerpc64-ps3-elf/lib\libc.a(lib_a-atexit.o) (__register_exitproc)
c:/psdk3v2/ps3dev/ppu/bin/../lib/gcc/powerpc64-ps3-elf/4.5.2/../../../../powerpc64-ps3-elf/lib\libc.a(lib_a-__call_atexit.o)
                              c:/psdk3v2/ps3dev/ppu/bin/../lib/gcc/powerpc64-ps3-elf/4.5.2/../../../../powerpc64-ps3-elf/lib\libc.a(lib_a-exit.o) (__call_exitprocs)
c:/psdk3v2/ps3dev/ppu/bin/../lib/gcc/powerpc64-ps3-elf/4.5.2/../../../../powerpc64-ps3-elf/lib\libc.a(lib_a-ctype_.o)
                              c:/psdk3v2/ps3dev/ppu/bin/../lib/gcc/powerpc64-ps3-elf/4.5.2/../../../../powerpc64-ps3-elf/lib\libc.a(lib_a-strcasecmp.o) (__ctype_ptr__)
c:/psdk3v2/ps3dev/ppu/bin/../lib/gcc/powerpc64-ps3-elf/4.5.2/../../../../powerpc64-ps3-elf/lib\libc.a(lib_a-findfp.o)
                              c:/psdk3v2/ps3dev/ppu/bin/../lib/gcc/powerpc64-ps3-elf/4.5.2/../../../../powerpc64-ps3-elf/lib\libc.a(lib_a-svfscanf.o) (__sfp_lock_acquire)
c:/psdk3v2/ps3dev/ppu/bin/../lib/gcc/powerpc64-ps3-elf/4.5.2/../../../../powerpc64-ps3-elf/lib\libc.a(lib_a-freer.o)
                              c:/psdk3v2/ps3dev/ppu/bin/../lib/gcc/powerpc64-ps3-elf/4.5.2/../../../../powerpc64-ps3-elf/lib\libc.a(lib_a-malignr.o) (_free_r)
c:/psdk3v2/ps3dev/ppu/bin/../lib/gcc/powerpc64-ps3-elf/4.5.2/../../../../powerpc64-ps3-elf/lib\libc.a(lib_a-fwalk.o)
                              c:/psdk3v2/ps3dev/ppu/bin/../lib/gcc/powerpc64-ps3-elf/4.5.2/../../../../powerpc64-ps3-elf/lib\libc.a(lib_a-findfp.o) (_fwalk)
c:/psdk3v2/ps3dev/ppu/bin/../lib/gcc/powerpc64-ps3-elf/4.5.2/../../../../powerpc64-ps3-elf/lib\libc.a(lib_a-iswspace.o)
                              c:/psdk3v2/ps3dev/ppu/bin/../lib/gcc/powerpc64-ps3-elf/4.5.2/../../../../powerpc64-ps3-elf/lib\libc.a(lib_a-svfscanf.o) (iswspace)
c:/psdk3v2/ps3dev/ppu/bin/../lib/gcc/powerpc64-ps3-elf/4.5.2/../../../../powerpc64-ps3-elf/lib\libc.a(lib_a-locale.o)
                              c:/psdk3v2/ps3dev/ppu/bin/../lib/gcc/powerpc64-ps3-elf/4.5.2/../../../../powerpc64-ps3-elf/lib\libc.a(lib_a-svfscanf.o) (__locale_mb_cur_max)
c:/psdk3v2/ps3dev/ppu/bin/../lib/gcc/powerpc64-ps3-elf/4.5.2/../../../../powerpc64-ps3-elf/lib\libc.a(lib_a-lock_recursive.o)
                              c:/psdk3v2/ps3dev/ppu/bin/../lib/gcc/powerpc64-ps3-elf/4.5.2/../../../../powerpc64-ps3-elf/lib\libc.a(lib_a-findfp.o) (__libc_lock_init_recursive)
c:/psdk3v2/ps3dev/ppu/bin/../lib/gcc/powerpc64-ps3-elf/4.5.2/../../../../powerpc64-ps3-elf/lib\libc.a(lib_a-mbrtowc.o)
                              c:/psdk3v2/ps3dev/ppu/bin/../lib/gcc/powerpc64-ps3-elf/4.5.2/../../../../powerpc64-ps3-elf/lib\libc.a(lib_a-svfscanf.o) (_mbrtowc_r)
c:/psdk3v2/ps3dev/ppu/bin/../lib/gcc/powerpc64-ps3-elf/4.5.2/../../../../powerpc64-ps3-elf/lib\libc.a(lib_a-mbtowc_r.o)
                              c:/psdk3v2/ps3dev/ppu/bin/../lib/gcc/powerpc64-ps3-elf/4.5.2/../../../../powerpc64-ps3-elf/lib\libc.a(lib_a-mbrtowc.o) (__mbtowc)
c:/psdk3v2/ps3dev/ppu/bin/../lib/gcc/powerpc64-ps3-elf/4.5.2/../../../../powerpc64-ps3-elf/lib\libc.a(lib_a-s_fpclassify.o)
                              c:/psdk3v2/ps3dev/ppu/bin/../lib/gcc/powerpc64-ps3-elf/4.5.2/../../../../powerpc64-ps3-elf/lib\libc.a(lib_a-svfscanf.o) (__fpclassifyd)
c:/psdk3v2/ps3dev/ppu/bin/../lib/gcc/powerpc64-ps3-elf/4.5.2/../../../../powerpc64-ps3-elf/lib\libc.a(lib_a-sccl.o)
                              c:/psdk3v2/ps3dev/ppu/bin/../lib/gcc/powerpc64-ps3-elf/4.5.2/../../../../powerpc64-ps3-elf/lib\libc.a(lib_a-svfscanf.o) (__sccl)
c:/psdk3v2/ps3dev/ppu/bin/../lib/gcc/powerpc64-ps3-elf/4.5.2/../../../../powerpc64-ps3-elf/lib\libc.a(lib_a-sf_nan.o)
                              c:/psdk3v2/ps3dev/ppu/bin/../lib/gcc/powerpc64-ps3-elf/4.5.2/../../../../powerpc64-ps3-elf/lib\libc.a(lib_a-svfscanf.o) (nanf)
c:/psdk3v2/ps3dev/ppu/bin/../lib/gcc/powerpc64-ps3-elf/4.5.2/../../../../powerpc64-ps3-elf/lib\libc.a(lib_a-sprintf.o)
                              c:/psdk3v2/ps3dev/ppu/bin/../lib/gcc/powerpc64-ps3-elf/4.5.2/../../../../powerpc64-ps3-elf/lib\libc.a(lib_a-svfscanf.o) (sprintf)
c:/psdk3v2/ps3dev/ppu/bin/../lib/gcc/powerpc64-ps3-elf/4.5.2/../../../../powerpc64-ps3-elf/lib\libc.a(lib_a-strcmp.o)
                              c:/psdk3v2/ps3dev/ppu/bin/../lib/gcc/powerpc64-ps3-elf/4.5.2/../../../../powerpc64-ps3-elf/lib\libc.a(lib_a-locale.o) (strcmp)
c:/psdk3v2/ps3dev/ppu/bin/../lib/gcc/powerpc64-ps3-elf/4.5.2/../../../../powerpc64-ps3-elf/lib\libc.a(lib_a-strtod.o)
                              c:/psdk3v2/ps3dev/ppu/bin/../lib/gcc/powerpc64-ps3-elf/4.5.2/../../../../powerpc64-ps3-elf/lib\libc.a(lib_a-svfscanf.o) (_strtod_r)
c:/psdk3v2/ps3dev/ppu/bin/../lib/gcc/powerpc64-ps3-elf/4.5.2/../../../../powerpc64-ps3-elf/lib\libc.a(lib_a-strtol.o)
                              c:/psdk3v2/ps3dev/ppu/bin/../lib/gcc/powerpc64-ps3-elf/4.5.2/../../../../powerpc64-ps3-elf/lib\libc.a(lib_a-svfscanf.o) (_strtol_r)
c:/psdk3v2/ps3dev/ppu/bin/../lib/gcc/powerpc64-ps3-elf/4.5.2/../../../../powerpc64-ps3-elf/lib\libc.a(lib_a-strtoll_r.o)
                              c:/psdk3v2/ps3dev/ppu/bin/../lib/gcc/powerpc64-ps3-elf/4.5.2/../../../../powerpc64-ps3-elf/lib\libc.a(lib_a-svfscanf.o) (_strtoll_r)
c:/psdk3v2/ps3dev/ppu/bin/../lib/gcc/powerpc64-ps3-elf/4.5.2/../../../../powerpc64-ps3-elf/lib\libc.a(lib_a-strtoul.o)
                              c:/psdk3v2/ps3dev/ppu/bin/../lib/gcc/powerpc64-ps3-elf/4.5.2/../../../../powerpc64-ps3-elf/lib\libc.a(lib_a-svfscanf.o) (_strtoul_r)
c:/psdk3v2/ps3dev/ppu/bin/../lib/gcc/powerpc64-ps3-elf/4.5.2/../../../../powerpc64-ps3-elf/lib\libc.a(lib_a-strtoull_r.o)
                              c:/psdk3v2/ps3dev/ppu/bin/../lib/gcc/powerpc64-ps3-elf/4.5.2/../../../../powerpc64-ps3-elf/lib\libc.a(lib_a-svfscanf.o) (_strtoull_r)
c:/psdk3v2/ps3dev/ppu/bin/../lib/gcc/powerpc64-ps3-elf/4.5.2/../../../../powerpc64-ps3-elf/lib\libc.a(lib_a-svfiscanf.o)
                              c:/psdk3v2/ps3dev/ppu/bin/../lib/gcc/powerpc64-ps3-elf/4.5.2/../../../../powerpc64-ps3-elf/lib\libc.a(lib_a-svfscanf.o) (_sungetc_r)
c:/psdk3v2/ps3dev/ppu/bin/../lib/gcc/powerpc64-ps3-elf/4.5.2/../../../../powerpc64-ps3-elf/lib\libc.a(lib_a-svfprintf.o)
                              c:/psdk3v2/ps3dev/ppu/bin/../lib/gcc/powerpc64-ps3-elf/4.5.2/../../../../powerpc64-ps3-elf/lib\libc.a(lib_a-sprintf.o) (_svfprintf_r)
c:/psdk3v2/ps3dev/ppu/bin/../lib/gcc/powerpc64-ps3-elf/4.5.2/../../../../powerpc64-ps3-elf/lib\libc.a(lib_a-ungetc.o)
                              c:/psdk3v2/ps3dev/ppu/bin/../lib/gcc/powerpc64-ps3-elf/4.5.2/../../../../powerpc64-ps3-elf/lib\libc.a(lib_a-svfiscanf.o) (__submore)
c:/psdk3v2/ps3dev/ppu/bin/../lib/gcc/powerpc64-ps3-elf/4.5.2/../../../../powerpc64-ps3-elf/lib\libc.a(lib_a-dtoa.o)
                              c:/psdk3v2/ps3dev/ppu/bin/../lib/gcc/powerpc64-ps3-elf/4.5.2/../../../../powerpc64-ps3-elf/lib\libc.a(lib_a-svfprintf.o) (_dtoa_r)
c:/psdk3v2/ps3dev/ppu/bin/../lib/gcc/powerpc64-ps3-elf/4.5.2/../../../../powerpc64-ps3-elf/lib\libc.a(lib_a-fclose.o)
                              c:/psdk3v2/ps3dev/ppu/bin/../lib/gcc/powerpc64-ps3-elf/4.5.2/../../../../powerpc64-ps3-elf/lib\libc.a(lib_a-findfp.o) (fclose)
c:/psdk3v2/ps3dev/ppu/bin/../lib/gcc/powerpc64-ps3-elf/4.5.2/../../../../powerpc64-ps3-elf/lib\libc.a(lib_a-fflush.o)
                              c:/psdk3v2/ps3dev/ppu/bin/../lib/gcc/powerpc64-ps3-elf/4.5.2/../../../../powerpc64-ps3-elf/lib\libc.a(lib_a-ungetc.o) (_fflush_r)
c:/psdk3v2/ps3dev/ppu/bin/../lib/gcc/powerpc64-ps3-elf/4.5.2/../../../../powerpc64-ps3-elf/lib\libc.a(lib_a-gdtoa-gethex.o)
                              c:/psdk3v2/ps3dev/ppu/bin/../lib/gcc/powerpc64-ps3-elf/4.5.2/../../../../powerpc64-ps3-elf/lib\libc.a(lib_a-strtod.o) (__gethex)
c:/psdk3v2/ps3dev/ppu/bin/../lib/gcc/powerpc64-ps3-elf/4.5.2/../../../../powerpc64-ps3-elf/lib\libc.a(lib_a-gdtoa-hexnan.o)
                              c:/psdk3v2/ps3dev/ppu/bin/../lib/gcc/powerpc64-ps3-elf/4.5.2/../../../../powerpc64-ps3-elf/lib\libc.a(lib_a-strtod.o) (__hexnan)
c:/psdk3v2/ps3dev/ppu/bin/../lib/gcc/powerpc64-ps3-elf/4.5.2/../../../../powerpc64-ps3-elf/lib\libc.a(lib_a-lock_internal.o)
                              c:/psdk3v2/ps3dev/ppu/bin/../lib/gcc/powerpc64-ps3-elf/4.5.2/../../../../powerpc64-ps3-elf/lib\libc.a(lib_a-lock_recursive.o) (__libc_auto_lock_allocate)
c:/psdk3v2/ps3dev/ppu/bin/../lib/gcc/powerpc64-ps3-elf/4.5.2/../../../../powerpc64-ps3-elf/lib\libc.a(lib_a-memchr.o)
                              c:/psdk3v2/ps3dev/ppu/bin/../lib/gcc/powerpc64-ps3-elf/4.5.2/../../../../powerpc64-ps3-elf/lib\libc.a(lib_a-svfprintf.o) (memchr)
c:/psdk3v2/ps3dev/ppu/bin/../lib/gcc/powerpc64-ps3-elf/4.5.2/../../../../powerpc64-ps3-elf/lib\libc.a(lib_a-mprec.o)
                              c:/psdk3v2/ps3dev/ppu/bin/../lib/gcc/powerpc64-ps3-elf/4.5.2/../../../../powerpc64-ps3-elf/lib\libc.a(lib_a-strtod.o) (_Balloc)
c:/psdk3v2/ps3dev/ppu/bin/../lib/gcc/powerpc64-ps3-elf/4.5.2/../../../../powerpc64-ps3-elf/lib\libc.a(lib_a-reallocr.o)
                              c:/psdk3v2/ps3dev/ppu/bin/../lib/gcc/powerpc64-ps3-elf/4.5.2/../../../../powerpc64-ps3-elf/lib\libc.a(lib_a-ungetc.o) (_realloc_r)
c:/psdk3v2/ps3dev/ppu/bin/../lib/gcc/powerpc64-ps3-elf/4.5.2/../../../../powerpc64-ps3-elf/lib\libc.a(lib_a-strncmp.o)
                              c:/psdk3v2/ps3dev/ppu/bin/../lib/gcc/powerpc64-ps3-elf/4.5.2/../../../../powerpc64-ps3-elf/lib\libc.a(lib_a-strtod.o) (strncmp)
c:/psdk3v2/ps3dev/ppu/bin/../lib/gcc/powerpc64-ps3-elf/4.5.2/../../../../powerpc64-ps3-elf/lib\libc.a(lib_a-svfiprintf.o)
                              c:/psdk3v2/ps3dev/ppu/bin/../lib/gcc/powerpc64-ps3-elf/4.5.2/../../../../powerpc64-ps3-elf/lib\libc.a(lib_a-svfprintf.o) (__ssprint_r)
c:/psdk3v2/ps3dev/ppu/bin/../lib/gcc/powerpc64-ps3-elf/4.5.2/../../../../powerpc64-ps3-elf/lib\libc.a(lib_a-abort.o)
                              c:/psdk3v2/ps3dev/ppu/bin/../lib/gcc/powerpc64-ps3-elf/4.5.2/../../../../powerpc64-ps3-elf/lib\libc.a(lib_a-lock_internal.o) (abort)
c:/psdk3v2/ps3dev/ppu/bin/../lib/gcc/powerpc64-ps3-elf/4.5.2/../../../../powerpc64-ps3-elf/lib\libc.a(lib_a-callocr.o)
                              c:/psdk3v2/ps3dev/ppu/bin/../lib/gcc/powerpc64-ps3-elf/4.5.2/../../../../powerpc64-ps3-elf/lib\libc.a(lib_a-mprec.o) (_calloc_r)
c:/psdk3v2/ps3dev/ppu/bin/../lib/gcc/powerpc64-ps3-elf/4.5.2/../../../../powerpc64-ps3-elf/lib\libc.a(lib_a-memmove.o)
                              c:/psdk3v2/ps3dev/ppu/bin/../lib/gcc/powerpc64-ps3-elf/4.5.2/../../../../powerpc64-ps3-elf/lib\libc.a(lib_a-reallocr.o) (memmove)
c:/psdk3v2/ps3dev/ppu/bin/../lib/gcc/powerpc64-ps3-elf/4.5.2/../../../../powerpc64-ps3-elf/lib\libc.a(lib_a-signal.o)
                              c:/psdk3v2/ps3dev/ppu/bin/../lib/gcc/powerpc64-ps3-elf/4.5.2/../../../../powerpc64-ps3-elf/lib\libc.a(lib_a-abort.o) (raise)
c:/psdk3v2/ps3dev/ppu/bin/../lib/gcc/powerpc64-ps3-elf/4.5.2/../../../../powerpc64-ps3-elf/lib\libsysbase.a(close.o)
                              c:/psdk3v2/ps3dev/ppu/bin/../lib/gcc/powerpc64-ps3-elf/4.5.2/../../../../powerpc64-ps3-elf/lib\libc.a(lib_a-stdio.o) (_close_r)
c:/psdk3v2/ps3dev/ppu/bin/../lib/gcc/powerpc64-ps3-elf/4.5.2/../../../../powerpc64-ps3-elf/lib\libsysbase.a(sbrk.o)
                              c:/psdk3v2/ps3dev/ppu/bin/../lib/gcc/powerpc64-ps3-elf/4.5.2/../../../../powerpc64-ps3-elf/lib\libc.a(lib_a-mallocr.o) (_sbrk_r)
c:/psdk3v2/ps3dev/ppu/bin/../lib/gcc/powerpc64-ps3-elf/4.5.2/../../../../powerpc64-ps3-elf/lib\libsysbase.a(_exit.o)
                              c:/psdk3v2/ps3dev/ppu/bin/../lib/gcc/powerpc64-ps3-elf/4.5.2/../../../../powerpc64-ps3-elf/lib\libc.a(lib_a-exit.o) (_exit)
c:/psdk3v2/ps3dev/ppu/bin/../lib/gcc/powerpc64-ps3-elf/4.5.2/../../../../powerpc64-ps3-elf/lib\libsysbase.a(lseek.o)
                              c:/psdk3v2/ps3dev/ppu/bin/../lib/gcc/powerpc64-ps3-elf/4.5.2/../../../../powerpc64-ps3-elf/lib\libc.a(lib_a-stdio.o) (_lseek_r)
c:/psdk3v2/ps3dev/ppu/bin/../lib/gcc/powerpc64-ps3-elf/4.5.2/../../../../powerpc64-ps3-elf/lib\libsysbase.a(read.o)
                              c:/psdk3v2/ps3dev/ppu/bin/../lib/gcc/powerpc64-ps3-elf/4.5.2/../../../../powerpc64-ps3-elf/lib\libc.a(lib_a-stdio.o) (_read_r)
c:/psdk3v2/ps3dev/ppu/bin/../lib/gcc/powerpc64-ps3-elf/4.5.2/../../../../powerpc64-ps3-elf/lib\libsysbase.a(write.o)
                              c:/psdk3v2/ps3dev/ppu/bin/../lib/gcc/powerpc64-ps3-elf/4.5.2/../../../../powerpc64-ps3-elf/lib\libc.a(lib_a-stdio.o) (_write_r)
c:/psdk3v2/ps3dev/ppu/bin/../lib/gcc/powerpc64-ps3-elf/4.5.2/../../../../powerpc64-ps3-elf/lib\libsysbase.a(lock.o)
                              c:/psdk3v2/ps3dev/ppu/bin/../lib/gcc/powerpc64-ps3-elf/4.5.2/../../../../powerpc64-ps3-elf/lib\libc.a(lib_a-lock_recursive.o) (sys_lwmutex_create)
c:/psdk3v2/ps3dev/ppu/bin/../lib/gcc/powerpc64-ps3-elf/4.5.2/../../../../powerpc64-ps3-elf/lib\libsysbase.a(getpid.o)
                              c:/psdk3v2/ps3dev/ppu/bin/../lib/gcc/powerpc64-ps3-elf/4.5.2/../../../../powerpc64-ps3-elf/lib\libc.a(lib_a-signal.o) (_getpid_r)
c:/psdk3v2/ps3dev/ppu/bin/../lib/gcc/powerpc64-ps3-elf/4.5.2/../../../../powerpc64-ps3-elf/lib\libsysbase.a(kill.o)
                              c:/psdk3v2/ps3dev/ppu/bin/../lib/gcc/powerpc64-ps3-elf/4.5.2/../../../../powerpc64-ps3-elf/lib\libc.a(lib_a-signal.o) (_kill_r)

Allocating common symbols
Common symbol       size              file

Video_buffer        0x10              c:/PSDK3v2/ps3dev/portlibs/ppu/lib\libtiny3d.a(rsxutil.o)
Video_aspect        0x1               c:/PSDK3v2/ps3dev/portlibs/ppu/lib\libtiny3d.a(rsxutil.o)
Video_pitch         0x4               c:/PSDK3v2/ps3dev/portlibs/ppu/lib\libtiny3d.a(rsxutil.o)
__hexdig            0x100             c:/psdk3v2/ps3dev/ppu/bin/../lib/gcc/powerpc64-ps3-elf/4.5.2/../../../../powerpc64-ps3-elf/lib\libc.a(lib_a-gdtoa-gethex.o)
item                0x18              main.o
context             0x8               c:/PSDK3v2/ps3dev/portlibs/ppu/lib\libtiny3d.a(rsxutil.o)
dorianTexture       0x18              main.o
heap_pointer        0x8               c:/PSDK3v2/ps3dev/portlibs/ppu/lib\libtiny3d.a(mm.o)
dorianTexture_offset
                    0x4               main.o
Video_Resolution    0x4               c:/PSDK3v2/ps3dev/portlibs/ppu/lib\libtiny3d.a(rsxutil.o)
config              0x18              c:/PSDK3v2/ps3dev/portlibs/ppu/lib\libtiny3d.a(mm.o)

Discarded input sections

 .note.GNU-stack
                0x0000000000000000        0x0 c:/PSDK3v2/psl1ght/ppu/lib\libgcm_sys.a(sprx.o)
 .note.GNU-stack
                0x0000000000000000        0x0 c:/PSDK3v2/psl1ght/ppu/lib\libio.a(sprx.o)
 .note.GNU-stack
                0x0000000000000000        0x0 c:/PSDK3v2/psl1ght/ppu/lib\libsysutil.a(sprx.o)
 .note.GNU-stack
                0x0000000000000000        0x0 c:/PSDK3v2/psl1ght/ppu/lib\liblv2.a(sprx.o)
 .note.GNU-stack
                0x0000000000000000        0x0 c:/PSDK3v2/psl1ght/ppu/lib\libpngdec.a(sprx.o)
 .note.GNU-stack
                0x0000000000000000        0x0 c:/PSDK3v2/psl1ght/ppu/lib\libsysmodule.a(sprx.o)

Memory Configuration

Name             Origin             Length             Attributes
*default*        0x0000000000000000 0xffffffffffffffff

Linker script and memory map

                0x0000000000010000                PROVIDE (__executable_start, 0x10000)
                0x0000000000010200                . = (0x10000 + SIZEOF_HEADERS)

.interp
 *(.interp)

.hash
 *(.hash)

.dynsym
 *(.dynsym)

.dynstr
 *(.dynstr)

.gnu.version
 *(.gnu.version)

.gnu.version_d
 *(.gnu.version_d)

.gnu.version_r
 *(.gnu.version_r)

.rel.dyn
 *(.rel.init)
 *(.rel.text .rel.text.* .rel.gnu.linkonce.t.*)
 *(.rel.fini)
 *(.rel.rodata .rel.rodata.* .rel.gnu.linkonce.r.*)
 *(.rel.data.rel.ro*)
 *(.rel.data .rel.data.* .rel.gnu.linkonce.d.*)
 *(.rel.tdata .rel.tdata.* .rel.gnu.linkonce.td.*)
 *(.rel.tbss .rel.tbss.* .rel.gnu.linkonce.tb.*)
 *(.rel.ctors)
 *(.rel.dtors)
 *(.rel.got)
 *(.rel.sdata .rel.sdata.* .rel.gnu.linkonce.s.*)
 *(.rel.sbss .rel.sbss.* .rel.gnu.linkonce.sb.*)
 *(.rel.sdata2 .rel.sdata2.* .rel.gnu.linkonce.s2.*)
 *(.rel.sbss2 .rel.sbss2.* .rel.gnu.linkonce.sb2.*)
 *(.rel.bss .rel.bss.* .rel.gnu.linkonce.b.*)

.rela.dyn       0x0000000000010200        0x0
 *(.rela.init)
 *(.rela.text .rela.text.* .rela.gnu.linkonce.t.*)
 *(.rela.fini)
 *(.rela.rodata .rela.rodata.* .rela.gnu.linkonce.r.*)
 *(.rela.data .rela.data.* .rela.gnu.linkonce.d.*)
 *(.rela.tdata .rela.tdata.* .rela.gnu.linkonce.td.*)
 *(.rela.tbss .rela.tbss.* .rela.gnu.linkonce.tb.*)
 *(.rela.ctors)
 *(.rela.dtors)
 *(.rela.got)
 *(.rela.toc)
 .rela.toc      0x0000000000000000        0x0 linker stubs
 *(.rela.sdata .rela.sdata.* .rela.gnu.linkonce.s.*)
 *(.rela.sbss .rela.sbss.* .rela.gnu.linkonce.sb.*)
 *(.rela.sdata2 .rela.sdata2.* .rela.gnu.linkonce.s2.*)
 *(.rela.sbss2 .rela.sbss2.* .rela.gnu.linkonce.sb2.*)
 *(.rela.bss .rela.bss.* .rela.gnu.linkonce.b.*)
 .rela.iplt     0x0000000000000000        0x0 linker stubs
 .rela.sys_proc_prx_param
                0x0000000000000000        0x0 linker stubs
 .rela.opd      0x0000000000000000        0x0 linker stubs

.rel.plt
 *(.rel.plt)

.rela.plt
 *(.rela.plt)

.rela.tocbss
 *(.rela.tocbss)

.init           0x0000000000010200       0x2c
 *(.init)
 .init          0x0000000000010200        0xc c:/psdk3v2/ps3dev/ppu/bin/../lib/gcc/powerpc64-ps3-elf/4.5.2/../../../../powerpc64-ps3-elf/lib/lv2-crti.o
                0x0000000000010200                ._init
 .init          0x000000000001020c        0x8 c:/psdk3v2/ps3dev/ppu/bin/../lib/gcc/powerpc64-ps3-elf/4.5.2/crtbegin.o
 .init          0x0000000000010214        0x8 c:/psdk3v2/ps3dev/ppu/bin/../lib/gcc/powerpc64-ps3-elf/4.5.2/crtend.o
 .init          0x000000000001021c       0x10 c:/psdk3v2/ps3dev/ppu/bin/../lib/gcc/powerpc64-ps3-elf/4.5.2/../../../../powerpc64-ps3-elf/lib/lv2-crtn.o

.text           0x0000000000010230    0x1fcc4
 *(.text .stub .text.* .gnu.linkonce.t.*)
 .text          0x0000000000010230        0x0 c:/psdk3v2/ps3dev/ppu/bin/../lib/gcc/powerpc64-ps3-elf/4.5.2/../../../../powerpc64-ps3-elf/lib/lv2-crti.o
 .text          0x0000000000010230        0x0 c:/psdk3v2/ps3dev/ppu/bin/../lib/gcc/powerpc64-ps3-elf/4.5.2/crtbegin.o
 .text.__do_global_dtors_aux
                0x0000000000010230       0xc8 c:/psdk3v2/ps3dev/ppu/bin/../lib/gcc/powerpc64-ps3-elf/4.5.2/crtbegin.o
 .text.frame_dummy
                0x00000000000102f8       0x70 c:/psdk3v2/ps3dev/ppu/bin/../lib/gcc/powerpc64-ps3-elf/4.5.2/crtbegin.o
 .text          0x0000000000010368       0x58 c:/psdk3v2/ps3dev/ppu/bin/../lib/gcc/powerpc64-ps3-elf/4.5.2/../../../../powerpc64-ps3-elf/lib/lv2-crt0.o
                0x0000000000010368                ._start
 .text.__syscalls_init
                0x00000000000103c0      0x15c c:/psdk3v2/ps3dev/ppu/bin/../lib/gcc/powerpc64-ps3-elf/4.5.2/../../../../powerpc64-ps3-elf/lib/lv2-crt0.o
 *fill*         0x000000000001051c        0x4 60000000
 .text._initialize
                0x0000000000010520       0x40 c:/psdk3v2/ps3dev/ppu/bin/../lib/gcc/powerpc64-ps3-elf/4.5.2/../../../../powerpc64-ps3-elf/lib/lv2-crt0.o
                0x0000000000010520                ._initialize
 .text          0x0000000000010560        0x0 c:/psdk3v2/ps3dev/ppu/bin/../lib/gcc/powerpc64-ps3-elf/4.5.2/../../../../powerpc64-ps3-elf/lib/lv2-sprx.o
 .text          0x0000000000010560        0x0 dorian_png.bin.o
 .text          0x0000000000010560        0x0 main.o
 .text.exiting  0x0000000000010560       0x34 main.o
                0x0000000000010560                .exiting
 *fill*         0x0000000000010594        0x4 60000000
 .text.DrawBackground2D
                0x0000000000010598       0xdc main.o
                0x0000000000010598                .DrawBackground2D
 *fill*         0x0000000000010674        0x4 60000000
 .text.DrawSprites2D
                0x0000000000010678      0x148 main.o
                0x0000000000010678                .DrawSprites2D
 .text.drawScene
                0x00000000000107c0       0x94 main.o
                0x00000000000107c0                .drawScene
 *fill*         0x0000000000010854        0x4 60000000
 .text.Load_PNG
                0x0000000000010858       0x40 main.o
                0x0000000000010858                .Load_PNG
 .text.LoadTexture
                0x0000000000010898       0xb0 main.o
                0x0000000000010898                .LoadTexture
 .text.main     0x0000000000010948      0x184 main.o
                0x0000000000010948                .main
 .text          0x0000000000010acc        0x0 c:/PSDK3v2/ps3dev/portlibs/ppu/lib\libtiny3d.a(tiny3d.o)
 *fill*         0x0000000000010acc        0x4 60000000
 .text.push_list_cmd
                0x0000000000010ad0      0x154 c:/PSDK3v2/ps3dev/portlibs/ppu/lib\libtiny3d.a(tiny3d.o)
 *fill*         0x0000000000010c24        0x4 60000000
 .text.rsxtiny_SetVertexProgramConstant3f
                0x0000000000010c28       0x58 c:/PSDK3v2/ps3dev/portlibs/ppu/lib\libtiny3d.a(tiny3d.o)
 .text.Update_With_Normal
                0x0000000000010c80      0x2a0 c:/PSDK3v2/ps3dev/portlibs/ppu/lib\libtiny3d.a(tiny3d.o)
 .text.set_shader_context
                0x0000000000010f20      0x398 c:/PSDK3v2/ps3dev/portlibs/ppu/lib\libtiny3d.a(tiny3d.o)
 .text.put_vertex
                0x00000000000112b8      0x258 c:/PSDK3v2/ps3dev/portlibs/ppu/lib\libtiny3d.a(tiny3d.o)
 .text.push_normal_list
                0x0000000000011510      0x1c4 c:/PSDK3v2/ps3dev/portlibs/ppu/lib\libtiny3d.a(tiny3d.o)
 *fill*         0x00000000000116d4        0x4 60000000
 .text.push_position_list
                0x00000000000116d8      0x1f0 c:/PSDK3v2/ps3dev/portlibs/ppu/lib\libtiny3d.a(tiny3d.o)
 .text.tiny3d_callback
                0x00000000000118c8      0x1a0 c:/PSDK3v2/ps3dev/portlibs/ppu/lib\libtiny3d.a(tiny3d.o)
 .text.tiny3d_Exit
                0x0000000000011a68      0x1ec c:/PSDK3v2/ps3dev/portlibs/ppu/lib\libtiny3d.a(tiny3d.o)
                0x0000000000011a68                .tiny3d_Exit
 *fill*         0x0000000000011c54        0x4 60000000
 .text.tiny3d_alarm
                0x0000000000011c58       0x10 c:/PSDK3v2/ps3dev/portlibs/ppu/lib\libtiny3d.a(tiny3d.o)
                0x0000000000011c58                .tiny3d_alarm
 .text.tiny3d_RecordList
                0x0000000000011c68       0xa4 c:/PSDK3v2/ps3dev/portlibs/ppu/lib\libtiny3d.a(tiny3d.o)
                0x0000000000011c68                .tiny3d_RecordList
 *fill*         0x0000000000011d0c        0x4 60000000
 .text.tiny3d_StopList
                0x0000000000011d10      0x138 c:/PSDK3v2/ps3dev/portlibs/ppu/lib\libtiny3d.a(tiny3d.o)
                0x0000000000011d10                .tiny3d_StopList
 .text.tiny3d_FreeList
                0x0000000000011e48       0xcc c:/PSDK3v2/ps3dev/portlibs/ppu/lib\libtiny3d.a(tiny3d.o)
                0x0000000000011e48                .tiny3d_FreeList
 *fill*         0x0000000000011f14        0x4 60000000
 .text.tiny3d_DynamicMatrixList
                0x0000000000011f18       0xec c:/PSDK3v2/ps3dev/portlibs/ppu/lib\libtiny3d.a(tiny3d.o)
                0x0000000000011f18                .tiny3d_DynamicMatrixList
 *fill*         0x0000000000012004        0x4 60000000
 .text.tiny3d_ApplyMatrixList
                0x0000000000012008       0xc8 c:/PSDK3v2/ps3dev/portlibs/ppu/lib\libtiny3d.a(tiny3d.o)
                0x0000000000012008                .tiny3d_ApplyMatrixList
 .text.tiny3d_Init
                0x00000000000120d0      0x4ec c:/PSDK3v2/ps3dev/portlibs/ppu/lib\libtiny3d.a(tiny3d.o)
                0x00000000000120d0                .tiny3d_Init
 *fill*         0x00000000000125bc        0x4 60000000
 .text.tiny3d_SetPolygon
                0x00000000000125c0      0x228 c:/PSDK3v2/ps3dev/portlibs/ppu/lib\libtiny3d.a(tiny3d.o)
                0x00000000000125c0                .tiny3d_SetPolygon
 .text.tiny3d_VertexPos
                0x00000000000127e8       0xcc c:/PSDK3v2/ps3dev/portlibs/ppu/lib\libtiny3d.a(tiny3d.o)
                0x00000000000127e8                .tiny3d_VertexPos
 *fill*         0x00000000000128b4        0x4 60000000
 .text.tiny3d_VertexPos4
                0x00000000000128b8       0xd0 c:/PSDK3v2/ps3dev/portlibs/ppu/lib\libtiny3d.a(tiny3d.o)
                0x00000000000128b8                .tiny3d_VertexPos4
 .text.tiny3d_VertexPosVector
                0x0000000000012988       0xe0 c:/PSDK3v2/ps3dev/portlibs/ppu/lib\libtiny3d.a(tiny3d.o)
                0x0000000000012988                .tiny3d_VertexPosVector
 .text.tiny3d_VertexColor
                0x0000000000012a68       0xb4 c:/PSDK3v2/ps3dev/portlibs/ppu/lib\libtiny3d.a(tiny3d.o)
                0x0000000000012a68                .tiny3d_VertexColor
 *fill*         0x0000000000012b1c        0x4 60000000
 .text.tiny3d_VertexFcolor
                0x0000000000012b20      0x104 c:/PSDK3v2/ps3dev/portlibs/ppu/lib\libtiny3d.a(tiny3d.o)
                0x0000000000012b20                .tiny3d_VertexFcolor
 *fill*         0x0000000000012c24        0x4 60000000
 .text.tiny3d_VertexTexture
                0x0000000000012c28       0xbc c:/PSDK3v2/ps3dev/portlibs/ppu/lib\libtiny3d.a(tiny3d.o)
                0x0000000000012c28                .tiny3d_VertexTexture
 *fill*         0x0000000000012ce4        0x4 60000000
 .text.tiny3d_VertexTexture2
                0x0000000000012ce8       0xcc c:/PSDK3v2/ps3dev/portlibs/ppu/lib\libtiny3d.a(tiny3d.o)
                0x0000000000012ce8                .tiny3d_VertexTexture2
 *fill*         0x0000000000012db4        0x4 60000000
 .text.tiny3d_Normal
                0x0000000000012db8       0x48 c:/PSDK3v2/ps3dev/portlibs/ppu/lib\libtiny3d.a(tiny3d.o)
                0x0000000000012db8                .tiny3d_Normal
 .text.tiny3d_NormalVector
                0x0000000000012e00       0x58 c:/PSDK3v2/ps3dev/portlibs/ppu/lib\libtiny3d.a(tiny3d.o)
                0x0000000000012e00                .tiny3d_NormalVector
 .text.tiny3d_End
                0x0000000000012e58      0x690 c:/PSDK3v2/ps3dev/portlibs/ppu/lib\libtiny3d.a(tiny3d.o)
                0x0000000000012e58                .tiny3d_End
 .text.tiny3d_SetMatrixModelView
                0x00000000000134e8      0x278 c:/PSDK3v2/ps3dev/portlibs/ppu/lib\libtiny3d.a(tiny3d.o)
                0x00000000000134e8                .tiny3d_SetMatrixModelView
 .text.tiny3d_SetProjectionMatrix
                0x0000000000013760       0xd8 c:/PSDK3v2/ps3dev/portlibs/ppu/lib\libtiny3d.a(tiny3d.o)
                0x0000000000013760                .tiny3d_SetProjectionMatrix
 .text.tiny3d_Flip
                0x0000000000013838       0xf8 c:/PSDK3v2/ps3dev/portlibs/ppu/lib\libtiny3d.a(tiny3d.o)
                0x0000000000013838                .tiny3d_Flip
 .text.tiny3d_UserViewport
                0x0000000000013930       0x5c c:/PSDK3v2/ps3dev/portlibs/ppu/lib\libtiny3d.a(tiny3d.o)
                0x0000000000013930                .tiny3d_UserViewport
 *fill*         0x000000000001398c        0x4 60000000
 .text.tiny3d_UserViewport2
                0x0000000000013990       0x58 c:/PSDK3v2/ps3dev/portlibs/ppu/lib\libtiny3d.a(tiny3d.o)
                0x0000000000013990                .tiny3d_UserViewport2
 .text.tiny3d_UserViewportSurface
                0x00000000000139e8       0x28 c:/PSDK3v2/ps3dev/portlibs/ppu/lib\libtiny3d.a(tiny3d.o)
                0x00000000000139e8                .tiny3d_UserViewportSurface
 .text.tiny3d_Project2D
                0x0000000000013a10      0x310 c:/PSDK3v2/ps3dev/portlibs/ppu/lib\libtiny3d.a(tiny3d.o)
                0x0000000000013a10                .tiny3d_Project2D
 .text.tiny3d_Project3D
                0x0000000000013d20      0x254 c:/PSDK3v2/ps3dev/portlibs/ppu/lib\libtiny3d.a(tiny3d.o)
                0x0000000000013d20                .tiny3d_Project3D
 *fill*         0x0000000000013f74        0x4 60000000
 .text.tiny3d_Clear
                0x0000000000013f78      0x330 c:/PSDK3v2/ps3dev/portlibs/ppu/lib\libtiny3d.a(tiny3d.o)
                0x0000000000013f78                .tiny3d_Clear
 .text.tiny3d_ClearSurface
                0x00000000000142a8      0x204 c:/PSDK3v2/ps3dev/portlibs/ppu/lib\libtiny3d.a(tiny3d.o)
                0x00000000000142a8                .tiny3d_ClearSurface
 *fill*         0x00000000000144ac        0x4 60000000
 .text.tiny3d_AlphaTest
                0x00000000000144b0       0x88 c:/PSDK3v2/ps3dev/portlibs/ppu/lib\libtiny3d.a(tiny3d.o)
                0x00000000000144b0                .tiny3d_AlphaTest
 .text.tiny3d_BlendFunc
                0x0000000000014538       0x84 c:/PSDK3v2/ps3dev/portlibs/ppu/lib\libtiny3d.a(tiny3d.o)
                0x0000000000014538                .tiny3d_BlendFunc
 *fill*         0x00000000000145bc        0x4 60000000
 .text.tiny3d_SetTextureWrap
                0x00000000000145c0      0x288 c:/PSDK3v2/ps3dev/portlibs/ppu/lib\libtiny3d.a(tiny3d.o)
                0x00000000000145c0                .tiny3d_SetTextureWrap
 .text.tiny3d_SetTexture
                0x0000000000014848      0x1e4 c:/PSDK3v2/ps3dev/portlibs/ppu/lib\libtiny3d.a(tiny3d.o)
                0x0000000000014848                .tiny3d_SetTexture
 *fill*         0x0000000000014a2c        0x4 60000000
 .text.tiny3d_AllocTexture
                0x0000000000014a30       0x38 c:/PSDK3v2/ps3dev/portlibs/ppu/lib\libtiny3d.a(tiny3d.o)
                0x0000000000014a30                .tiny3d_AllocTexture
 .text.tiny3d_TextureOffset
                0x0000000000014a68       0x40 c:/PSDK3v2/ps3dev/portlibs/ppu/lib\libtiny3d.a(tiny3d.o)
                0x0000000000014a68                .tiny3d_TextureOffset
 .text.tiny3d_EmissiveMaterial
                0x0000000000014aa8       0xf4 c:/PSDK3v2/ps3dev/portlibs/ppu/lib\libtiny3d.a(tiny3d.o)
                0x0000000000014aa8                .tiny3d_EmissiveMaterial
 *fill*         0x0000000000014b9c        0x4 60000000
 .text.tiny3d_AmbientMaterial
                0x0000000000014ba0       0xf4 c:/PSDK3v2/ps3dev/portlibs/ppu/lib\libtiny3d.a(tiny3d.o)
                0x0000000000014ba0                .tiny3d_AmbientMaterial
 *fill*         0x0000000000014c94        0x4 60000000
 .text.tiny3d_DiffuseMaterial
                0x0000000000014c98       0xf4 c:/PSDK3v2/ps3dev/portlibs/ppu/lib\libtiny3d.a(tiny3d.o)
                0x0000000000014c98                .tiny3d_DiffuseMaterial
 *fill*         0x0000000000014d8c        0x4 60000000
 .text.tiny3d_SpecularMaterial
                0x0000000000014d90       0xf4 c:/PSDK3v2/ps3dev/portlibs/ppu/lib\libtiny3d.a(tiny3d.o)
                0x0000000000014d90                .tiny3d_SpecularMaterial
 *fill*         0x0000000000014e84        0x4 60000000
 .text.tiny3d_SetLightCameraPosition
                0x0000000000014e88       0x38 c:/PSDK3v2/ps3dev/portlibs/ppu/lib\libtiny3d.a(tiny3d.o)
                0x0000000000014e88                .tiny3d_SetLightCameraPosition
 .text.tiny3d_SetLight
                0x0000000000014ec0       0x90 c:/PSDK3v2/ps3dev/portlibs/ppu/lib\libtiny3d.a(tiny3d.o)
                0x0000000000014ec0                .tiny3d_SetLight
 .text.tiny3d_SetLightsOff
                0x0000000000014f50       0x38 c:/PSDK3v2/ps3dev/portlibs/ppu/lib\libtiny3d.a(tiny3d.o)
                0x0000000000014f50                .tiny3d_SetLightsOff
 .text.tiny3d_SetAmbientLight
                0x0000000000014f88       0x38 c:/PSDK3v2/ps3dev/portlibs/ppu/lib\libtiny3d.a(tiny3d.o)
                0x0000000000014f88                .tiny3d_SetAmbientLight
 .text.tiny3d_SelMultiTexturesMethod
                0x0000000000014fc0       0xac c:/PSDK3v2/ps3dev/portlibs/ppu/lib\libtiny3d.a(tiny3d.o)
                0x0000000000014fc0                .tiny3d_SelMultiTexturesMethod
 *fill*         0x000000000001506c        0x4 60000000
 .text.tiny3d_DrawList
                0x0000000000015070      0x65c c:/PSDK3v2/ps3dev/portlibs/ppu/lib\libtiny3d.a(tiny3d.o)
                0x0000000000015070                .tiny3d_DrawList
 *fill*         0x00000000000156cc        0x4 60000000
 .text.tiny3d_MenuActive
                0x00000000000156d0       0x1c c:/PSDK3v2/ps3dev/portlibs/ppu/lib\libtiny3d.a(tiny3d.o)
                0x00000000000156d0                .tiny3d_MenuActive
 *fill*         0x00000000000156ec        0x4 60000000
 .text.tiny3d_Enable_YUV
                0x00000000000156f0       0x2c c:/PSDK3v2/ps3dev/portlibs/ppu/lib\libtiny3d.a(tiny3d.o)
                0x00000000000156f0                .tiny3d_Enable_YUV
 *fill*         0x000000000001571c        0x4 60000000
 .text.tiny3d_Disable_YUV
                0x0000000000015720       0x28 c:/PSDK3v2/ps3dev/portlibs/ppu/lib\libtiny3d.a(tiny3d.o)
                0x0000000000015720                .tiny3d_Disable_YUV
 .text.tiny3d_Dirty_Status
                0x0000000000015748       0x78 c:/PSDK3v2/ps3dev/portlibs/ppu/lib\libtiny3d.a(tiny3d.o)
                0x0000000000015748                .tiny3d_Dirty_Status
 .text.tiny3d_Get_GCM_Context
                0x00000000000157c0       0x18 c:/PSDK3v2/ps3dev/portlibs/ppu/lib\libtiny3d.a(tiny3d.o)
                0x00000000000157c0                .tiny3d_Get_GCM_Context
 .text.tiny3d_DoCmd_Space
                0x00000000000157d8       0x4c c:/PSDK3v2/ps3dev/portlibs/ppu/lib\libtiny3d.a(tiny3d.o)
                0x00000000000157d8                .tiny3d_DoCmd_Space
 .text          0x0000000000015824        0x0 c:/PSDK3v2/ps3dev/portlibs/ppu/lib\libtiny3d.a(vshader_text_normal.vcg.o)
 .text          0x0000000000015824        0x0 c:/PSDK3v2/ps3dev/portlibs/ppu/lib\libtiny3d.a(commands.o)
 *fill*         0x0000000000015824        0x4 60000000
 .text.rsxtiny_MakeCmdSpace
                0x0000000000015828       0xec c:/PSDK3v2/ps3dev/portlibs/ppu/lib\libtiny3d.a(commands.o)
                0x0000000000015828                .rsxtiny_MakeCmdSpace
 *fill*         0x0000000000015914        0x4 60000000
 .text.rsxtiny_SetReferenceCommand
                0x0000000000015918      0x10c c:/PSDK3v2/ps3dev/portlibs/ppu/lib\libtiny3d.a(commands.o)
                0x0000000000015918                .rsxtiny_SetReferenceCommand
 *fill*         0x0000000000015a24        0x4 60000000
 .text.rsxtiny_SetWriteBackendLabel
                0x0000000000015a28      0x154 c:/PSDK3v2/ps3dev/portlibs/ppu/lib\libtiny3d.a(commands.o)
                0x0000000000015a28                .rsxtiny_SetWriteBackendLabel
 *fill*         0x0000000000015b7c        0x4 60000000
 .text.rsxtiny_SetWaitLabel
                0x0000000000015b80      0x134 c:/PSDK3v2/ps3dev/portlibs/ppu/lib\libtiny3d.a(commands.o)
                0x0000000000015b80                .rsxtiny_SetWaitLabel
 *fill*         0x0000000000015cb4        0x4 60000000
 .text.rsxtiny_SetScissor
                0x0000000000015cb8      0x154 c:/PSDK3v2/ps3dev/portlibs/ppu/lib\libtiny3d.a(commands.o)
                0x0000000000015cb8                .rsxtiny_SetScissor
 *fill*         0x0000000000015e0c        0x4 60000000
 .text.rsxtiny_SetClearColor
                0x0000000000015e10      0x10c c:/PSDK3v2/ps3dev/portlibs/ppu/lib\libtiny3d.a(commands.o)
                0x0000000000015e10                .rsxtiny_SetClearColor
 *fill*         0x0000000000015f1c        0x4 60000000
 .text.rsxtiny_SetClearDepthValue
                0x0000000000015f20      0x10c c:/PSDK3v2/ps3dev/portlibs/ppu/lib\libtiny3d.a(commands.o)
                0x0000000000015f20                .rsxtiny_SetClearDepthValue
 *fill*         0x000000000001602c        0x4 60000000
 .text.rsxtiny_Nop
                0x0000000000016030       0xfc c:/PSDK3v2/ps3dev/portlibs/ppu/lib\libtiny3d.a(commands.o)
                0x0000000000016030                .rsxtiny_Nop
 *fill*         0x000000000001612c        0x4 60000000
 .text.rsxtiny_ClearBuffers
                0x0000000000016130      0x12c c:/PSDK3v2/ps3dev/portlibs/ppu/lib\libtiny3d.a(commands.o)
                0x0000000000016130                .rsxtiny_ClearBuffers
 *fill*         0x000000000001625c        0x4 60000000
 .text.rsxtiny_SetRenderSurface
                0x0000000000016260      0x17c c:/PSDK3v2/ps3dev/portlibs/ppu/lib\libtiny3d.a(commands.o)
                0x0000000000016260                .rsxtiny_SetRenderSurface
 *fill*         0x00000000000163dc        0x4 60000000
 .text.rsxtiny_SelectRenderTarget
                0x00000000000163e0      0x204 c:/PSDK3v2/ps3dev/portlibs/ppu/lib\libtiny3d.a(commands.o)
                0x00000000000163e0                .rsxtiny_SelectRenderTarget
 *fill*         0x00000000000165e4        0x4 60000000
 .text.rsxtiny_Viewport
                0x00000000000165e8      0x12c c:/PSDK3v2/ps3dev/portlibs/ppu/lib\libtiny3d.a(commands.o)
                0x00000000000165e8                .rsxtiny_Viewport
 *fill*         0x0000000000016714        0x4 60000000
 .text.rsxtiny_ViewportClip
                0x0000000000016718      0x14c c:/PSDK3v2/ps3dev/portlibs/ppu/lib\libtiny3d.a(commands.o)
                0x0000000000016718                .rsxtiny_ViewportClip
 *fill*         0x0000000000016864        0x4 60000000
 .text.rsxtiny_VertexBegin
                0x0000000000016868      0x10c c:/PSDK3v2/ps3dev/portlibs/ppu/lib\libtiny3d.a(commands.o)
                0x0000000000016868                .rsxtiny_VertexBegin
 *fill*         0x0000000000016974        0x4 60000000
 .text.rsxtiny_VertexEnd
                0x0000000000016978       0xfc c:/PSDK3v2/ps3dev/portlibs/ppu/lib\libtiny3d.a(commands.o)
                0x0000000000016978                .rsxtiny_VertexEnd
 *fill*         0x0000000000016a74        0x4 60000000
 .text.rsxtiny_Vertex4f
                0x0000000000016a78      0x134 c:/PSDK3v2/ps3dev/portlibs/ppu/lib\libtiny3d.a(commands.o)
                0x0000000000016a78                .rsxtiny_Vertex4f
 *fill*         0x0000000000016bac        0x4 60000000
 .text.rsxtiny_TexCoord2f
                0x0000000000016bb0      0x114 c:/PSDK3v2/ps3dev/portlibs/ppu/lib\libtiny3d.a(commands.o)
                0x0000000000016bb0                .rsxtiny_TexCoord2f
 *fill*         0x0000000000016cc4        0x4 60000000
 .text.rsxtiny_SetVertexProgramConstant4f
                0x0000000000016cc8      0x14c c:/PSDK3v2/ps3dev/portlibs/ppu/lib\libtiny3d.a(commands.o)
                0x0000000000016cc8                .rsxtiny_SetVertexProgramConstant4f
 *fill*         0x0000000000016e14        0x4 60000000
 .text.rsxtiny_LoadVertexProgram
                0x0000000000016e18      0x2f4 c:/PSDK3v2/ps3dev/portlibs/ppu/lib\libtiny3d.a(commands.o)
                0x0000000000016e18                .rsxtiny_LoadVertexProgram
 *fill*         0x000000000001710c        0x4 60000000
 .text.rsxtiny_SetVertexProgramConstant4fBlock
                0x0000000000017110      0x160 c:/PSDK3v2/ps3dev/portlibs/ppu/lib\libtiny3d.a(commands.o)
                0x0000000000017110                .rsxtiny_SetVertexProgramConstant4fBlock
 .text.rsxtiny_InstallFragmentProgram
                0x0000000000017270       0x70 c:/PSDK3v2/ps3dev/portlibs/ppu/lib\libtiny3d.a(commands.o)
                0x0000000000017270                .rsxtiny_InstallFragmentProgram
 .text.rsxtiny_LoadFragmentProgram
                0x00000000000172e0      0x13c c:/PSDK3v2/ps3dev/portlibs/ppu/lib\libtiny3d.a(commands.o)
                0x00000000000172e0                .rsxtiny_LoadFragmentProgram
 *fill*         0x000000000001741c        0x4 60000000
 .text.rsxtiny_InvalidateTextureCache
                0x0000000000017420      0x10c c:/PSDK3v2/ps3dev/portlibs/ppu/lib\libtiny3d.a(commands.o)
                0x0000000000017420                .rsxtiny_InvalidateTextureCache
 *fill*         0x000000000001752c        0x4 60000000
 .text.rsxtiny_SetTexture
                0x0000000000017530      0x204 c:/PSDK3v2/ps3dev/portlibs/ppu/lib\libtiny3d.a(commands.o)
                0x0000000000017530                .rsxtiny_SetTexture
 *fill*         0x0000000000017734        0x4 60000000
 .text.rsxtiny_ViewportTranslate
                0x0000000000017738      0x134 c:/PSDK3v2/ps3dev/portlibs/ppu/lib\libtiny3d.a(commands.o)
                0x0000000000017738                .rsxtiny_ViewportTranslate
 *fill*         0x000000000001786c        0x4 60000000
 .text.rsxtiny_ViewportScale
                0x0000000000017870      0x134 c:/PSDK3v2/ps3dev/portlibs/ppu/lib\libtiny3d.a(commands.o)
                0x0000000000017870                .rsxtiny_ViewportScale
 *fill*         0x00000000000179a4        0x4 60000000
 .text.rsxtiny_CullFace
                0x00000000000179a8      0x10c c:/PSDK3v2/ps3dev/portlibs/ppu/lib\libtiny3d.a(commands.o)
                0x00000000000179a8                .rsxtiny_CullFace
 *fill*         0x0000000000017ab4        0x4 60000000
 .text.rsxtiny_FrontFace
                0x0000000000017ab8      0x10c c:/PSDK3v2/ps3dev/portlibs/ppu/lib\libtiny3d.a(commands.o)
                0x0000000000017ab8                .rsxtiny_FrontFace
 *fill*         0x0000000000017bc4        0x4 60000000
 .text.rsxtiny_CullEnable
                0x0000000000017bc8      0x10c c:/PSDK3v2/ps3dev/portlibs/ppu/lib\libtiny3d.a(commands.o)
                0x0000000000017bc8                .rsxtiny_CullEnable
 *fill*         0x0000000000017cd4        0x4 60000000
 .text.rsxtiny_AlphaEnable
                0x0000000000017cd8      0x10c c:/PSDK3v2/ps3dev/portlibs/ppu/lib\libtiny3d.a(commands.o)
                0x0000000000017cd8                .rsxtiny_AlphaEnable
 *fill*         0x0000000000017de4        0x4 60000000
 .text.rsxtiny_AlphaRef
                0x0000000000017de8      0x10c c:/PSDK3v2/ps3dev/portlibs/ppu/lib\libtiny3d.a(commands.o)
                0x0000000000017de8                .rsxtiny_AlphaRef
 *fill*         0x0000000000017ef4        0x4 60000000
 .text.rsxtiny_AlphaFunc
                0x0000000000017ef8      0x10c c:/PSDK3v2/ps3dev/portlibs/ppu/lib\libtiny3d.a(commands.o)
                0x0000000000017ef8                .rsxtiny_AlphaFunc
 *fill*         0x0000000000018004        0x4 60000000
 .text.rsxtiny_BlendEnable
                0x0000000000018008      0x10c c:/PSDK3v2/ps3dev/portlibs/ppu/lib\libtiny3d.a(commands.o)
                0x0000000000018008                .rsxtiny_BlendEnable
 *fill*         0x0000000000018114        0x4 60000000
 .text.rsxtiny_BlendEquation
                0x0000000000018118      0x10c c:/PSDK3v2/ps3dev/portlibs/ppu/lib\libtiny3d.a(commands.o)
                0x0000000000018118                .rsxtiny_BlendEquation
 *fill*         0x0000000000018224        0x4 60000000
 .text.rsxtiny_BlendFunc
                0x0000000000018228      0x124 c:/PSDK3v2/ps3dev/portlibs/ppu/lib\libtiny3d.a(commands.o)
                0x0000000000018228                .rsxtiny_BlendFunc
 *fill*         0x000000000001834c        0x4 60000000
 .text.rsxtiny_ZControl
                0x0000000000018350      0x13c c:/PSDK3v2/ps3dev/portlibs/ppu/lib\libtiny3d.a(commands.o)
                0x0000000000018350                .rsxtiny_ZControl
 *fill*         0x000000000001848c        0x4 60000000
 .text.rsxtiny_BindVertexBufferAttribute
                0x0000000000018490      0x194 c:/PSDK3v2/ps3dev/portlibs/ppu/lib\libtiny3d.a(commands.o)
                0x0000000000018490                .rsxtiny_BindVertexBufferAttribute
 *fill*         0x0000000000018624        0x4 60000000
 .text.rsxtiny_VertexInvalidate
                0x0000000000018628      0x10c c:/PSDK3v2/ps3dev/portlibs/ppu/lib\libtiny3d.a(commands.o)
                0x0000000000018628                .rsxtiny_VertexInvalidate
 *fill*         0x0000000000018734        0x4 60000000
 .text.rsxtiny_DrawVertexBuffer
                0x0000000000018738      0x2f0 c:/PSDK3v2/ps3dev/portlibs/ppu/lib\libtiny3d.a(commands.o)
                0x0000000000018738                .rsxtiny_DrawVertexBuffer
 .text.rsxtiny_DrawVertexBufferIndex
                0x0000000000018a28      0x33c c:/PSDK3v2/ps3dev/portlibs/ppu/lib\libtiny3d.a(commands.o)
                0x0000000000018a28                .rsxtiny_DrawVertexBufferIndex
 *fill*         0x0000000000018d64        0x4 60000000
 .text.rsxtiny_DepthTestEnable
                0x0000000000018d68      0x10c c:/PSDK3v2/ps3dev/portlibs/ppu/lib\libtiny3d.a(commands.o)
                0x0000000000018d68                .rsxtiny_DepthTestEnable
 *fill*         0x0000000000018e74        0x4 60000000
 .text.rsxtiny_DepthTestFunc
                0x0000000000018e78      0x10c c:/PSDK3v2/ps3dev/portlibs/ppu/lib\libtiny3d.a(commands.o)
                0x0000000000018e78                .rsxtiny_DepthTestFunc
 *fill*         0x0000000000018f84        0x4 60000000
 .text.rsxtiny_DepthWriteEnable
                0x0000000000018f88      0x10c c:/PSDK3v2/ps3dev/portlibs/ppu/lib\libtiny3d.a(commands.o)
                0x0000000000018f88                .rsxtiny_DepthWriteEnable
 .text          0x0000000000019094        0x0 c:/PSDK3v2/ps3dev/portlibs/ppu/lib\libtiny3d.a(glue.o)
 *fill*         0x0000000000019094        0x4 60000000
 .text.rsxtiny_FlushBuffer
                0x0000000000019098       0x78 c:/PSDK3v2/ps3dev/portlibs/ppu/lib\libtiny3d.a(glue.o)
                0x0000000000019098                .rsxtiny_FlushBuffer
 .text.rsxtiny_Init
                0x0000000000019110       0x58 c:/PSDK3v2/ps3dev/portlibs/ppu/lib\libtiny3d.a(glue.o)
                0x0000000000019110                .rsxtiny_Init
 .text.rsxtiny_AddressToOffset
                0x0000000000019168       0x30 c:/PSDK3v2/ps3dev/portlibs/ppu/lib\libtiny3d.a(glue.o)
                0x0000000000019168                .rsxtiny_AddressToOffset
 .text          0x0000000000019198        0x0 c:/PSDK3v2/ps3dev/portlibs/ppu/lib\libtiny3d.a(matrix.o)
 .text.MatrixProjPerspective
                0x0000000000019198      0x120 c:/PSDK3v2/ps3dev/portlibs/ppu/lib\libtiny3d.a(matrix.o)
                0x0000000000019198                .MatrixProjPerspective
 .text.MatrixVectorMultiply
                0x00000000000192b8       0xa8 c:/PSDK3v2/ps3dev/portlibs/ppu/lib\libtiny3d.a(matrix.o)
                0x00000000000192b8                .MatrixVectorMultiply
 .text.MatrixVectorMultiply3x3
                0x0000000000019360       0x90 c:/PSDK3v2/ps3dev/portlibs/ppu/lib\libtiny3d.a(matrix.o)
                0x0000000000019360                .MatrixVectorMultiply3x3
 .text.MatrixMultiply
                0x00000000000193f0      0x3d8 c:/PSDK3v2/ps3dev/portlibs/ppu/lib\libtiny3d.a(matrix.o)
                0x00000000000193f0                .MatrixMultiply
 .text.MatrixIdentity
                0x00000000000197c8       0x54 c:/PSDK3v2/ps3dev/portlibs/ppu/lib\libtiny3d.a(matrix.o)
                0x00000000000197c8                .MatrixIdentity
 *fill*         0x000000000001981c        0x4 60000000
 .text.MatrixTranslation
                0x0000000000019820       0x58 c:/PSDK3v2/ps3dev/portlibs/ppu/lib\libtiny3d.a(matrix.o)
                0x0000000000019820                .MatrixTranslation
 .text.MatrixTranspose
                0x0000000000019878       0xb0 c:/PSDK3v2/ps3dev/portlibs/ppu/lib\libtiny3d.a(matrix.o)
                0x0000000000019878                .MatrixTranspose
 .text.MatrixScale
                0x0000000000019928       0x60 c:/PSDK3v2/ps3dev/portlibs/ppu/lib\libtiny3d.a(matrix.o)
                0x0000000000019928                .MatrixScale
 .text.MatrixRotationX
                0x0000000000019988       0xfc c:/PSDK3v2/ps3dev/portlibs/ppu/lib\libtiny3d.a(matrix.o)
                0x0000000000019988                .MatrixRotationX
 *fill*         0x0000000000019a84        0x4 60000000
 .text.MatrixRotationY
                0x0000000000019a88       0xfc c:/PSDK3v2/ps3dev/portlibs/ppu/lib\libtiny3d.a(matrix.o)
                0x0000000000019a88                .MatrixRotationY
 *fill*         0x0000000000019b84        0x4 60000000
 .text.MatrixRotationZ
                0x0000000000019b88       0xdc c:/PSDK3v2/ps3dev/portlibs/ppu/lib\libtiny3d.a(matrix.o)
                0x0000000000019b88                .MatrixRotationZ
 *fill*         0x0000000000019c64        0x4 60000000
 .text.MatrixRotationAxis
                0x0000000000019c68      0x2dc c:/PSDK3v2/ps3dev/portlibs/ppu/lib\libtiny3d.a(matrix.o)
                0x0000000000019c68                .MatrixRotationAxis
 *fill*         0x0000000000019f44        0x4 60000000
 .text.VectorToUnit
                0x0000000000019f48       0xbc c:/PSDK3v2/ps3dev/portlibs/ppu/lib\libtiny3d.a(matrix.o)
                0x0000000000019f48                .VectorToUnit
 *fill*         0x000000000001a004        0x4 60000000
 .text.VectorNormalPlane
                0x000000000001a008       0xd8 c:/PSDK3v2/ps3dev/portlibs/ppu/lib\libtiny3d.a(matrix.o)
                0x000000000001a008                .VectorNormalPlane
 .text.MakeLookAtMatrix
                0x000000000001a0e0      0x2ec c:/PSDK3v2/ps3dev/portlibs/ppu/lib\libtiny3d.a(matrix.o)
                0x000000000001a0e0                .MakeLookAtMatrix
 .text          0x000000000001a3cc        0x0 c:/PSDK3v2/ps3dev/portlibs/ppu/lib\libtiny3d.a(mm.o)
 *fill*         0x000000000001a3cc        0x4 60000000
 .text.rsxtiny_MemAlign
                0x000000000001a3d0      0x134 c:/PSDK3v2/ps3dev/portlibs/ppu/lib\libtiny3d.a(mm.o)
                0x000000000001a3d0                .rsxtiny_MemAlign
 *fill*         0x000000000001a504        0x4 60000000
 .text.rsxtiny_Mem
                0x000000000001a508       0x18 c:/PSDK3v2/ps3dev/portlibs/ppu/lib\libtiny3d.a(mm.o)
                0x000000000001a508                .rsxtiny_Mem
 .text          0x000000000001a520        0x0 c:/PSDK3v2/ps3dev/portlibs/ppu/lib\libtiny3d.a(realityVP.o)
 .text.rsxtiny_VertexProgramGetUCode
                0x000000000001a520       0x18 c:/PSDK3v2/ps3dev/portlibs/ppu/lib\libtiny3d.a(realityVP.o)
                0x000000000001a520                .rsxtiny_VertexProgramGetUCode
 .text.rsxtiny_VertexProgramGetInputMask
                0x000000000001a538       0x14 c:/PSDK3v2/ps3dev/portlibs/ppu/lib\libtiny3d.a(realityVP.o)
                0x000000000001a538                .rsxtiny_VertexProgramGetInputMask
 *fill*         0x000000000001a54c        0x4 60000000
 .text.rsxtiny_VertexProgramGetOutputMask
                0x000000000001a550       0x14 c:/PSDK3v2/ps3dev/portlibs/ppu/lib\libtiny3d.a(realityVP.o)
                0x000000000001a550                .rsxtiny_VertexProgramGetOutputMask
 *fill*         0x000000000001a564        0x4 60000000
 .text.rsxtiny_VertexProgramGetAttributes
                0x000000000001a568       0x18 c:/PSDK3v2/ps3dev/portlibs/ppu/lib\libtiny3d.a(realityVP.o)
                0x000000000001a568                .rsxtiny_VertexProgramGetAttributes
 .text.rsxtiny_VertexProgramGetInputAttribute
                0x000000000001a580       0xe4 c:/PSDK3v2/ps3dev/portlibs/ppu/lib\libtiny3d.a(realityVP.o)
                0x000000000001a580                .rsxtiny_VertexProgramGetInputAttribute
 *fill*         0x000000000001a664        0x4 60000000
 .text.rsxtiny_VertexProgramGetConstants
                0x000000000001a668       0x18 c:/PSDK3v2/ps3dev/portlibs/ppu/lib\libtiny3d.a(realityVP.o)
                0x000000000001a668                .rsxtiny_VertexProgramGetConstants
 .text.rsxtiny_VertexProgramGetConstant
                0x000000000001a680       0xe4 c:/PSDK3v2/ps3dev/portlibs/ppu/lib\libtiny3d.a(realityVP.o)
                0x000000000001a680                .rsxtiny_VertexProgramGetConstant
 .text          0x000000000001a764        0x0 c:/PSDK3v2/ps3dev/portlibs/ppu/lib\libtiny3d.a(rsxutil.o)
 *fill*         0x000000000001a764        0x4 60000000
 .text.waitFlip
                0x000000000001a768       0xcc c:/PSDK3v2/ps3dev/portlibs/ppu/lib\libtiny3d.a(rsxutil.o)
                0x000000000001a768                .waitFlip
 *fill*         0x000000000001a834        0x4 60000000
 .text.flip     0x000000000001a838       0x5c c:/PSDK3v2/ps3dev/portlibs/ppu/lib\libtiny3d.a(rsxutil.o)
                0x000000000001a838                .flip
 *fill*         0x000000000001a894        0x4 60000000
 .text.init_screen
                0x000000000001a898      0x364 c:/PSDK3v2/ps3dev/portlibs/ppu/lib\libtiny3d.a(rsxutil.o)
                0x000000000001a898                .init_screen
 *fill*         0x000000000001abfc        0x4 60000000
 .text.setupRenderTarget
                0x000000000001ac00      0x108 c:/PSDK3v2/ps3dev/portlibs/ppu/lib\libtiny3d.a(rsxutil.o)
                0x000000000001ac00                .setupRenderTarget
 .text.setupRenderTarget2
                0x000000000001ad08      0x13c c:/PSDK3v2/ps3dev/portlibs/ppu/lib\libtiny3d.a(rsxutil.o)
                0x000000000001ad08                .setupRenderTarget2
 .text          0x000000000001ae44        0x0 c:/PSDK3v2/ps3dev/portlibs/ppu/lib\libtiny3d.a(buffer.o)
 *fill*         0x000000000001ae44        0x4 60000000
 .text.tiny_rsxContextCallback
                0x000000000001ae48       0x50 c:/PSDK3v2/ps3dev/portlibs/ppu/lib\libtiny3d.a(buffer.o)
                0x000000000001ae48                .tiny_rsxContextCallback
 .text.commandBufferPut
                0x000000000001ae98       0x20 c:/PSDK3v2/ps3dev/portlibs/ppu/lib\libtiny3d.a(buffer.o)
                0x000000000001ae98                .commandBufferPut
 .text          0x000000000001aeb8        0x0 c:/PSDK3v2/psl1ght/ppu/lib\libgcm_sys.a(sprx.o)
 .text          0x000000000001aeb8        0x0 c:/PSDK3v2/psl1ght/ppu/lib\libio.a(sprx.o)
 .text          0x000000000001aeb8        0x0 c:/PSDK3v2/psl1ght/ppu/lib\libsysutil.a(sprx.o)
 .text          0x000000000001aeb8        0x0 c:/PSDK3v2/psl1ght/ppu/lib\libsysutil.a(sysutil_wrapper.o)
 .text.sysUtilRegisterCallback
                0x000000000001aeb8       0x34 c:/PSDK3v2/psl1ght/ppu/lib\libsysutil.a(sysutil_wrapper.o)
                0x000000000001aeb8                .sysUtilRegisterCallback
 *fill*         0x000000000001aeec        0x4 60000000
 .text.msgDialogOpen
                0x000000000001aef0       0x34 c:/PSDK3v2/psl1ght/ppu/lib\libsysutil.a(sysutil_wrapper.o)
                0x000000000001aef0                .msgDialogOpen
 *fill*         0x000000000001af24        0x4 60000000
 .text.msgDialogOpen2
                0x000000000001af28       0x34 c:/PSDK3v2/psl1ght/ppu/lib\libsysutil.a(sysutil_wrapper.o)
                0x000000000001af28                .msgDialogOpen2
 *fill*         0x000000000001af5c        0x4 60000000
 .text.msgDialogOpenErrorCode
                0x000000000001af60       0x34 c:/PSDK3v2/psl1ght/ppu/lib\libsysutil.a(sysutil_wrapper.o)
                0x000000000001af60                .msgDialogOpenErrorCode
 *fill*         0x000000000001af94        0x4 60000000
 .text.sysSaveListLoad2
                0x000000000001af98       0x3c c:/PSDK3v2/psl1ght/ppu/lib\libsysutil.a(sysutil_wrapper.o)
                0x000000000001af98                .sysSaveListLoad2
 *fill*         0x000000000001afd4        0x4 60000000
 .text.sysSaveListSave2
                0x000000000001afd8       0x3c c:/PSDK3v2/psl1ght/ppu/lib\libsysutil.a(sysutil_wrapper.o)
                0x000000000001afd8                .sysSaveListSave2
 *fill*         0x000000000001b014        0x4 60000000
 .text.sysSaveListAutoLoad
                0x000000000001b018       0x44 c:/PSDK3v2/psl1ght/ppu/lib\libsysutil.a(sysutil_wrapper.o)
                0x000000000001b018                .sysSaveListAutoLoad
 *fill*         0x000000000001b05c        0x4 60000000
 .text.sysSaveListAutoSave
                0x000000000001b060       0x44 c:/PSDK3v2/psl1ght/ppu/lib\libsysutil.a(sysutil_wrapper.o)
                0x000000000001b060                .sysSaveListAutoSave
 *fill*         0x000000000001b0a4        0x4 60000000
 .text.sysSaveFixedLoad2
                0x000000000001b0a8       0x3c c:/PSDK3v2/psl1ght/ppu/lib\libsysutil.a(sysutil_wrapper.o)
                0x000000000001b0a8                .sysSaveFixedLoad2
 *fill*         0x000000000001b0e4        0x4 60000000
 .text.sysSaveFixedSave2
                0x000000000001b0e8       0x3c c:/PSDK3v2/psl1ght/ppu/lib\libsysutil.a(sysutil_wrapper.o)
                0x000000000001b0e8                .sysSaveFixedSave2
 *fill*         0x000000000001b124        0x4 60000000
 .text.sysSaveAutoLoad2
                0x000000000001b128       0x38 c:/PSDK3v2/psl1ght/ppu/lib\libsysutil.a(sysutil_wrapper.o)
                0x000000000001b128                .sysSaveAutoLoad2
 .text.sysSaveAutoSave2
                0x000000000001b160       0x38 c:/PSDK3v2/psl1ght/ppu/lib\libsysutil.a(sysutil_wrapper.o)
                0x000000000001b160                .sysSaveAutoSave2
 .text.sysGameThemeInstallFromBuffer
                0x000000000001b198       0x34 c:/PSDK3v2/psl1ght/ppu/lib\libsysutil.a(sysutil_wrapper.o)
                0x000000000001b198                .sysGameThemeInstallFromBuffer
 *fill*         0x000000000001b1cc        0x4 60000000
 .text.sysGameDiscRegisterDiscChangeCallback
                0x000000000001b1d0       0x38 c:/PSDK3v2/psl1ght/ppu/lib\libsysutil.a(sysutil_wrapper.o)
                0x000000000001b1d0                .sysGameDiscRegisterDiscChangeCallback
 .text.sysDiscRegisterDiscChangeCallback
                0x000000000001b208       0x38 c:/PSDK3v2/psl1ght/ppu/lib\libsysutil.a(sysutil_wrapper.o)
                0x000000000001b208                .sysDiscRegisterDiscChangeCallback
 .text          0x000000000001b240        0x0 c:/PSDK3v2/psl1ght/ppu/lib\librt.a(sbrk.o)
 .text.sbrk_init
                0x000000000001b240       0xc4 c:/PSDK3v2/psl1ght/ppu/lib\librt.a(sbrk.o)
 *fill*         0x000000000001b304        0x4 60000000
 .text.sbrk_deinit
                0x000000000001b308       0xbc c:/PSDK3v2/psl1ght/ppu/lib\librt.a(sbrk.o)
 *fill*         0x000000000001b3c4        0x4 60000000
 .text.__librt_sbrk_r
                0x000000000001b3c8      0x324 c:/PSDK3v2/psl1ght/ppu/lib\librt.a(sbrk.o)
                0x000000000001b3c8                .__librt_sbrk_r
 .text          0x000000000001b6ec        0x0 c:/PSDK3v2/psl1ght/ppu/lib\librt.a(exit.o)
 *fill*         0x000000000001b6ec        0x4 60000000
 .text.__librt_exit
                0x000000000001b6f0       0x30 c:/PSDK3v2/psl1ght/ppu/lib\librt.a(exit.o)
                0x000000000001b6f0                .__librt_exit
 .text          0x000000000001b720        0x0 c:/PSDK3v2/psl1ght/ppu/lib\librt.a(close.o)
 .text.__librt_close_r
                0x000000000001b720       0x8c c:/PSDK3v2/psl1ght/ppu/lib\librt.a(close.o)
                0x000000000001b720                .__librt_close_r
 .text          0x000000000001b7ac        0x0 c:/PSDK3v2/psl1ght/ppu/lib\librt.a(lseek.o)
 *fill*         0x000000000001b7ac        0x4 60000000
 .text.__librt_lseek_r
                0x000000000001b7b0       0x8c c:/PSDK3v2/psl1ght/ppu/lib\librt.a(lseek.o)
                0x000000000001b7b0                .__librt_lseek_r
 *fill*         0x000000000001b83c        0x4 60000000
 .text.__librt_lseek64_r
                0x000000000001b840       0x8c c:/PSDK3v2/psl1ght/ppu/lib\librt.a(lseek.o)
                0x000000000001b840                .__librt_lseek64_r
 .text          0x000000000001b8cc        0x0 c:/PSDK3v2/psl1ght/ppu/lib\librt.a(read.o)
 *fill*         0x000000000001b8cc        0x4 60000000
 .text.__librt_read_r
                0x000000000001b8d0      0x11c c:/PSDK3v2/psl1ght/ppu/lib\librt.a(read.o)
                0x000000000001b8d0                .__librt_read_r
 .text          0x000000000001b9ec        0x0 c:/PSDK3v2/psl1ght/ppu/lib\librt.a(open.o)
 *fill*         0x000000000001b9ec        0x4 60000000
 .text.__librt_open_r
                0x000000000001b9f0      0x180 c:/PSDK3v2/psl1ght/ppu/lib\librt.a(open.o)
                0x000000000001b9f0                .__librt_open_r
 .text          0x000000000001bb70        0x0 c:/PSDK3v2/psl1ght/ppu/lib\librt.a(sleep.o)
 .text.__librt_usleep_r
                0x000000000001bb70       0x50 c:/PSDK3v2/psl1ght/ppu/lib\librt.a(sleep.o)
                0x000000000001bb70                .__librt_usleep_r
 .text.__librt_sleep_r
                0x000000000001bbc0       0x8c c:/PSDK3v2/psl1ght/ppu/lib\librt.a(sleep.o)
                0x000000000001bbc0                .__librt_sleep_r
 .text          0x000000000001bc4c        0x0 c:/PSDK3v2/psl1ght/ppu/lib\librt.a(write.o)
 *fill*         0x000000000001bc4c        0x4 60000000
 .text.__librt_write_r
                0x000000000001bc50      0x11c c:/PSDK3v2/psl1ght/ppu/lib\librt.a(write.o)
                0x000000000001bc50                .__librt_write_r
 .text          0x000000000001bd6c        0x0 c:/PSDK3v2/psl1ght/ppu/lib\librt.a(fstat.o)
 *fill*         0x000000000001bd6c        0x4 60000000
 .text.__librt_fstat_r
                0x000000000001bd70       0xd0 c:/PSDK3v2/psl1ght/ppu/lib\librt.a(fstat.o)
                0x000000000001bd70                .__librt_fstat_r
 .text.__librt_fstat64_r
                0x000000000001be40       0xd0 c:/PSDK3v2/psl1ght/ppu/lib\librt.a(fstat.o)
                0x000000000001be40                .__librt_fstat64_r
 .text.__librt_stat_r
                0x000000000001bf10       0xd0 c:/PSDK3v2/psl1ght/ppu/lib\librt.a(fstat.o)
                0x000000000001bf10                .__librt_stat_r
 .text.__librt_stat64_r
                0x000000000001bfe0       0xd0 c:/PSDK3v2/psl1ght/ppu/lib\librt.a(fstat.o)
                0x000000000001bfe0                .__librt_stat64_r
 .text          0x000000000001c0b0        0x0 c:/PSDK3v2/psl1ght/ppu/lib\librt.a(socket.o)
 .text.accept   0x000000000001c0b0       0xa0 c:/PSDK3v2/psl1ght/ppu/lib\librt.a(socket.o)
                0x000000000001c0b0                .accept
 .text.bind     0x000000000001c150       0x48 c:/PSDK3v2/psl1ght/ppu/lib\librt.a(socket.o)
                0x000000000001c150                .bind
 .text.connect  0x000000000001c198       0x48 c:/PSDK3v2/psl1ght/ppu/lib\librt.a(socket.o)
                0x000000000001c198                .connect
 .text.listen   0x000000000001c1e0       0x48 c:/PSDK3v2/psl1ght/ppu/lib\librt.a(socket.o)
                0x000000000001c1e0                .listen
 .text.socket   0x000000000001c228       0x54 c:/PSDK3v2/psl1ght/ppu/lib\librt.a(socket.o)
                0x000000000001c228                .socket
 *fill*         0x000000000001c27c        0x4 60000000
 .text.send     0x000000000001c280       0x50 c:/PSDK3v2/psl1ght/ppu/lib\librt.a(socket.o)
                0x000000000001c280                .send
 .text.sendto   0x000000000001c2d0       0x48 c:/PSDK3v2/psl1ght/ppu/lib\librt.a(socket.o)
                0x000000000001c2d0                .sendto
 .text.recv     0x000000000001c318       0x50 c:/PSDK3v2/psl1ght/ppu/lib\librt.a(socket.o)
                0x000000000001c318                .recv
 .text.recvfrom
                0x000000000001c368       0x98 c:/PSDK3v2/psl1ght/ppu/lib\librt.a(socket.o)
                0x000000000001c368                .recvfrom
 .text.shutdown
                0x000000000001c400       0x48 c:/PSDK3v2/psl1ght/ppu/lib\librt.a(socket.o)
                0x000000000001c400                .shutdown
 .text.inet_aton
                0x000000000001c448       0xb8 c:/PSDK3v2/psl1ght/ppu/lib\librt.a(socket.o)
                0x000000000001c448                .inet_aton
 .text.inet_pton
                0x000000000001c500       0x54 c:/PSDK3v2/psl1ght/ppu/lib\librt.a(socket.o)
                0x000000000001c500                .inet_pton
 *fill*         0x000000000001c554        0x4 60000000
 .text.select   0x000000000001c558       0x3c c:/PSDK3v2/psl1ght/ppu/lib\librt.a(socket.o)
                0x000000000001c558                .select
 *fill*         0x000000000001c594        0x4 60000000
 .text.closesocket
                0x000000000001c598       0x48 c:/PSDK3v2/psl1ght/ppu/lib\librt.a(socket.o)
                0x000000000001c598                .closesocket
 .text          0x000000000001c5e0        0x0 c:/PSDK3v2/psl1ght/ppu/lib\librt.a(lock.o)
 .text.__librt_sys_lwmutex_create_r
                0x000000000001c5e0       0x38 c:/PSDK3v2/psl1ght/ppu/lib\librt.a(lock.o)
                0x000000000001c5e0                .__librt_sys_lwmutex_create_r
 .text.__librt_sys_lwmutex_destroy_r
                0x000000000001c618       0x34 c:/PSDK3v2/psl1ght/ppu/lib\librt.a(lock.o)
                0x000000000001c618                .__librt_sys_lwmutex_destroy_r
 *fill*         0x000000000001c64c        0x4 60000000
 .text.__librt_sys_lwmutex_lock_r
                0x000000000001c650       0x38 c:/PSDK3v2/psl1ght/ppu/lib\librt.a(lock.o)
                0x000000000001c650                .__librt_sys_lwmutex_lock_r
 .text.__librt_sys_lwmutex_trylock_r
                0x000000000001c688       0x34 c:/PSDK3v2/psl1ght/ppu/lib\librt.a(lock.o)
                0x000000000001c688                .__librt_sys_lwmutex_trylock_r
 *fill*         0x000000000001c6bc        0x4 60000000
 .text.__librt_sys_lwmutex_unlock_r
                0x000000000001c6c0       0x34 c:/PSDK3v2/psl1ght/ppu/lib\librt.a(lock.o)
                0x000000000001c6c0                .__librt_sys_lwmutex_unlock_r
 .text          0x000000000001c6f4        0x0 c:/PSDK3v2/psl1ght/ppu/lib\librt.a(dirent.o)
 *fill*         0x000000000001c6f4        0x4 60000000
 .text.readdir_i
                0x000000000001c6f8      0x10c c:/PSDK3v2/psl1ght/ppu/lib\librt.a(dirent.o)
 *fill*         0x000000000001c804        0x4 60000000
 .text.__librt_opendir_r
                0x000000000001c808      0x144 c:/PSDK3v2/psl1ght/ppu/lib\librt.a(dirent.o)
                0x000000000001c808                .__librt_opendir_r
 *fill*         0x000000000001c94c        0x4 60000000
 .text.__librt_readdir_r
                0x000000000001c950       0x80 c:/PSDK3v2/psl1ght/ppu/lib\librt.a(dirent.o)
                0x000000000001c950                .__librt_readdir_r
 .text.__librt_readdir_r_r
                0x000000000001c9d0       0x54 c:/PSDK3v2/psl1ght/ppu/lib\librt.a(dirent.o)
                0x000000000001c9d0                .__librt_readdir_r_r
 *fill*         0x000000000001ca24        0x4 60000000
 .text.__librt_closedir_r
                0x000000000001ca28       0x84 c:/PSDK3v2/psl1ght/ppu/lib\librt.a(dirent.o)
                0x000000000001ca28                .__librt_closedir_r
 *fill*         0x000000000001caac        0x4 60000000
 .text.__librt_telldir_r
                0x000000000001cab0       0x24 c:/PSDK3v2/psl1ght/ppu/lib\librt.a(dirent.o)
                0x000000000001cab0                .__librt_telldir_r
 *fill*         0x000000000001cad4        0x4 60000000
 .text.__librt_rewinddir_r
                0x000000000001cad8       0x18 c:/PSDK3v2/psl1ght/ppu/lib\librt.a(dirent.o)
                0x000000000001cad8                .__librt_rewinddir_r
 .text.__librt_seekdir_r
                0x000000000001caf0       0x18 c:/PSDK3v2/psl1ght/ppu/lib\librt.a(dirent.o)
                0x000000000001caf0                .__librt_seekdir_r
 .text          0x000000000001cb08        0x0 c:/PSDK3v2/psl1ght/ppu/lib\librt.a(mkdir.o)
 .text.__librt_mkdir_r
                0x000000000001cb08       0x60 c:/PSDK3v2/psl1ght/ppu/lib\librt.a(mkdir.o)
                0x000000000001cb08                .__librt_mkdir_r
 .text          0x000000000001cb68        0x0 c:/PSDK3v2/psl1ght/ppu/lib\librt.a(times.o)
 .text.__librt_times_r
                0x000000000001cb68       0x1c c:/PSDK3v2/psl1ght/ppu/lib\librt.a(times.o)
                0x000000000001cb68                .__librt_times_r
 .text          0x000000000001cb84        0x0 c:/PSDK3v2/psl1ght/ppu/lib\librt.a(umask.o)
 *fill*         0x000000000001cb84        0x4 60000000
 .text.__librt_umask_r
                0x000000000001cb88       0x20 c:/PSDK3v2/psl1ght/ppu/lib\librt.a(umask.o)
                0x000000000001cb88                .__librt_umask_r
 .text          0x000000000001cba8        0x0 c:/PSDK3v2/psl1ght/ppu/lib\librt.a(lv2errno.o)
 .text.lv2error
                0x000000000001cba8      0x3dc c:/PSDK3v2/psl1ght/ppu/lib\librt.a(lv2errno.o)
                0x000000000001cba8                .lv2error
 *fill*         0x000000000001cf84        0x4 60000000
 .text.lv2errno
                0x000000000001cf88       0x68 c:/PSDK3v2/psl1ght/ppu/lib\librt.a(lv2errno.o)
                0x000000000001cf88                .lv2errno
 .text.lv2errno_r
                0x000000000001cff0       0x58 c:/PSDK3v2/psl1ght/ppu/lib\librt.a(lv2errno.o)
                0x000000000001cff0                .lv2errno_r
 .text          0x000000000001d048        0x0 c:/PSDK3v2/psl1ght/ppu/lib\librt.a(heap.o)
 .text.heapInit
                0x000000000001d048       0xe8 c:/PSDK3v2/psl1ght/ppu/lib\librt.a(heap.o)
                0x000000000001d048                .heapInit
 .text.heapAllocate
                0x000000000001d130      0x174 c:/PSDK3v2/psl1ght/ppu/lib\librt.a(heap.o)
                0x000000000001d130                .heapAllocate
 *fill*         0x000000000001d2a4        0x4 60000000
 .text.heapAllocateAligned
                0x000000000001d2a8      0x224 c:/PSDK3v2/psl1ght/ppu/lib\librt.a(heap.o)
                0x000000000001d2a8                .heapAllocateAligned
 *fill*         0x000000000001d4cc        0x4 60000000
 .text.heapFree
                0x000000000001d4d0      0x224 c:/PSDK3v2/psl1ght/ppu/lib\librt.a(heap.o)
                0x000000000001d4d0                .heapFree
 .text          0x000000000001d6f4        0x0 c:/PSDK3v2/psl1ght/ppu/lib\librt.a(chmod.o)
 *fill*         0x000000000001d6f4        0x4 60000000
 .text.__librt_chmod_r
                0x000000000001d6f8       0x54 c:/PSDK3v2/psl1ght/ppu/lib\librt.a(chmod.o)
                0x000000000001d6f8                .__librt_chmod_r
 .text          0x000000000001d74c        0x0 c:/PSDK3v2/psl1ght/ppu/lib\librt.a(rmdir.o)
 *fill*         0x000000000001d74c        0x4 60000000
 .text.__librt_rmdir_r
                0x000000000001d750       0x50 c:/PSDK3v2/psl1ght/ppu/lib\librt.a(rmdir.o)
                0x000000000001d750                .__librt_rmdir_r
 .text          0x000000000001d7a0        0x0 c:/PSDK3v2/psl1ght/ppu/lib\librt.a(isatty.o)
 .text.__librt_isatty_r
                0x000000000001d7a0       0x2c c:/PSDK3v2/psl1ght/ppu/lib\librt.a(isatty.o)
                0x000000000001d7a0                .__librt_isatty_r
 .text          0x000000000001d7cc        0x0 c:/PSDK3v2/psl1ght/ppu/lib\librt.a(gettod.o)
 *fill*         0x000000000001d7cc        0x4 60000000
 .text.__librt_gettod_r
                0x000000000001d7d0       0xb8 c:/PSDK3v2/psl1ght/ppu/lib\librt.a(gettod.o)
                0x000000000001d7d0                .__librt_gettod_r
 .text          0x000000000001d888        0x0 c:/PSDK3v2/psl1ght/ppu/lib\librt.a(settod.o)
 .text.__librt_settod_r
                0x000000000001d888       0x58 c:/PSDK3v2/psl1ght/ppu/lib\librt.a(settod.o)
                0x000000000001d888                .__librt_settod_r
 .text          0x000000000001d8e0        0x0 c:/PSDK3v2/psl1ght/ppu/lib\liblv2.a(sprx.o)
 .text          0x000000000001d8e0        0x0 c:/PSDK3v2/psl1ght/ppu/lib\libpngdec.a(pngdec.o)
 .text.png_malloc
                0x000000000001d8e0       0x30 c:/PSDK3v2/psl1ght/ppu/lib\libpngdec.a(pngdec.o)
 .text.png_free
                0x000000000001d910       0x30 c:/PSDK3v2/psl1ght/ppu/lib\libpngdec.a(pngdec.o)
 .text.decodePNG
                0x000000000001d940      0x298 c:/PSDK3v2/psl1ght/ppu/lib\libpngdec.a(pngdec.o)
 .text.pngLoadFromFile
                0x000000000001dbd8       0x60 c:/PSDK3v2/psl1ght/ppu/lib\libpngdec.a(pngdec.o)
                0x000000000001dbd8                .pngLoadFromFile
 .text.pngLoadFromBuffer
                0x000000000001dc38       0x70 c:/PSDK3v2/psl1ght/ppu/lib\libpngdec.a(pngdec.o)
                0x000000000001dc38                .pngLoadFromBuffer
 .text          0x000000000001dca8        0x0 c:/PSDK3v2/psl1ght/ppu/lib\libpngdec.a(sprx.o)
 .text          0x000000000001dca8        0x0 c:/PSDK3v2/psl1ght/ppu/lib\libsysmodule.a(sprx.o)
 .text          0x000000000001dca8        0x0 c:/psdk3v2/ps3dev/ppu/bin/../lib/gcc/powerpc64-ps3-elf/4.5.2/../../../../powerpc64-ps3-elf/lib\libm.a(lib_a-s_sqrt.o)
 .text.sqrt     0x000000000001dca8      0x1b0 c:/psdk3v2/ps3dev/ppu/bin/../lib/gcc/powerpc64-ps3-elf/4.5.2/../../../../powerpc64-ps3-elf/lib\libm.a(lib_a-s_sqrt.o)
                0x000000000001dca8                .sqrt
 .text          0x000000000001de58        0x0 c:/psdk3v2/ps3dev/ppu/bin/../lib/gcc/powerpc64-ps3-elf/4.5.2/../../../../powerpc64-ps3-elf/lib\libm.a(lib_a-sf_cos.o)
 .text.cosf     0x000000000001de58       0x34 c:/psdk3v2/ps3dev/ppu/bin/../lib/gcc/powerpc64-ps3-elf/4.5.2/../../../../powerpc64-ps3-elf/lib\libm.a(lib_a-sf_cos.o)
                0x000000000001de58                .cosf
 .text          0x000000000001de8c        0x0 c:/psdk3v2/ps3dev/ppu/bin/../lib/gcc/powerpc64-ps3-elf/4.5.2/../../../../powerpc64-ps3-elf/lib\libm.a(lib_a-sf_sin.o)
 *fill*         0x000000000001de8c        0x4 60000000
 .text.sinf     0x000000000001de90       0x34 c:/psdk3v2/ps3dev/ppu/bin/../lib/gcc/powerpc64-ps3-elf/4.5.2/../../../../powerpc64-ps3-elf/lib\libm.a(lib_a-sf_sin.o)
                0x000000000001de90                .sinf
 .text          0x000000000001dec4        0x0 c:/psdk3v2/ps3dev/ppu/bin/../lib/gcc/powerpc64-ps3-elf/4.5.2/../../../../powerpc64-ps3-elf/lib\libm.a(lib_a-sf_sine.o)
 *fill*         0x000000000001dec4        0x4 60000000
 .text.sinef    0x000000000001dec8      0x2d0 c:/psdk3v2/ps3dev/ppu/bin/../lib/gcc/powerpc64-ps3-elf/4.5.2/../../../../powerpc64-ps3-elf/lib\libm.a(lib_a-sf_sine.o)
                0x000000000001dec8                .sinef
 .text          0x000000000001e198        0x0 c:/psdk3v2/ps3dev/ppu/bin/../lib/gcc/powerpc64-ps3-elf/4.5.2/../../../../powerpc64-ps3-elf/lib\libm.a(lib_a-sf_sqrt.o)
 .text.sqrtf    0x000000000001e198      0x1c8 c:/psdk3v2/ps3dev/ppu/bin/../lib/gcc/powerpc64-ps3-elf/4.5.2/../../../../powerpc64-ps3-elf/lib\libm.a(lib_a-sf_sqrt.o)
                0x000000000001e198                .sqrtf
 .text          0x000000000001e360        0x0 c:/psdk3v2/ps3dev/ppu/bin/../lib/gcc/powerpc64-ps3-elf/4.5.2/../../../../powerpc64-ps3-elf/lib\libm.a(lib_a-sf_tan.o)
 .text.tanf     0x000000000001e360      0x23c c:/psdk3v2/ps3dev/ppu/bin/../lib/gcc/powerpc64-ps3-elf/4.5.2/../../../../powerpc64-ps3-elf/lib\libm.a(lib_a-sf_tan.o)
                0x000000000001e360                .tanf
 .text          0x000000000001e59c        0x0 c:/psdk3v2/ps3dev/ppu/bin/../lib/gcc/powerpc64-ps3-elf/4.5.2/../../../../powerpc64-ps3-elf/lib\libm.a(lib_a-s_frexp.o)
 *fill*         0x000000000001e59c        0x4 60000000
 .text.frexp    0x000000000001e5a0       0xd0 c:/psdk3v2/ps3dev/ppu/bin/../lib/gcc/powerpc64-ps3-elf/4.5.2/../../../../powerpc64-ps3-elf/lib\libm.a(lib_a-s_frexp.o)
                0x000000000001e5a0                .frexp
 .text          0x000000000001e670        0x0 c:/psdk3v2/ps3dev/ppu/bin/../lib/gcc/powerpc64-ps3-elf/4.5.2/../../../../powerpc64-ps3-elf/lib\libm.a(lib_a-s_ispos.o)
 .text.ispos    0x000000000001e670       0x28 c:/psdk3v2/ps3dev/ppu/bin/../lib/gcc/powerpc64-ps3-elf/4.5.2/../../../../powerpc64-ps3-elf/lib\libm.a(lib_a-s_ispos.o)
                0x000000000001e670                .ispos
 .text          0x000000000001e698        0x0 c:/psdk3v2/ps3dev/ppu/bin/../lib/gcc/powerpc64-ps3-elf/4.5.2/../../../../powerpc64-ps3-elf/lib\libm.a(lib_a-s_ldexp.o)
 .text.ldexp    0x000000000001e698      0x17c c:/psdk3v2/ps3dev/ppu/bin/../lib/gcc/powerpc64-ps3-elf/4.5.2/../../../../powerpc64-ps3-elf/lib\libm.a(lib_a-s_ldexp.o)
                0x000000000001e698                .ldexp
 .text          0x000000000001e814        0x0 c:/psdk3v2/ps3dev/ppu/bin/../lib/gcc/powerpc64-ps3-elf/4.5.2/../../../../powerpc64-ps3-elf/lib\libm.a(lib_a-s_mathcnst.o)
 .text          0x000000000001e814        0x0 c:/psdk3v2/ps3dev/ppu/bin/../lib/gcc/powerpc64-ps3-elf/4.5.2/../../../../powerpc64-ps3-elf/lib\libm.a(lib_a-s_numtest.o)
 *fill*         0x000000000001e814        0x4 60000000
 .text.numtest  0x000000000001e818       0x5c c:/psdk3v2/ps3dev/ppu/bin/../lib/gcc/powerpc64-ps3-elf/4.5.2/../../../../powerpc64-ps3-elf/lib\libm.a(lib_a-s_numtest.o)
                0x000000000001e818                .numtest
 .text          0x000000000001e874        0x0 c:/psdk3v2/ps3dev/ppu/bin/../lib/gcc/powerpc64-ps3-elf/4.5.2/../../../../powerpc64-ps3-elf/lib\libm.a(lib_a-sf_fabs.o)
 *fill*         0x000000000001e874        0x4 60000000
 .text.fabsf    0x000000000001e878       0xe4 c:/psdk3v2/ps3dev/ppu/bin/../lib/gcc/powerpc64-ps3-elf/4.5.2/../../../../powerpc64-ps3-elf/lib\libm.a(lib_a-sf_fabs.o)
                0x000000000001e878                .fabsf
 .text          0x000000000001e95c        0x0 c:/psdk3v2/ps3dev/ppu/bin/../lib/gcc/powerpc64-ps3-elf/4.5.2/../../../../powerpc64-ps3-elf/lib\libm.a(lib_a-sf_frexp.o)
 *fill*         0x000000000001e95c        0x4 60000000
 .text.frexpf   0x000000000001e960       0xac c:/psdk3v2/ps3dev/ppu/bin/../lib/gcc/powerpc64-ps3-elf/4.5.2/../../../../powerpc64-ps3-elf/lib\libm.a(lib_a-sf_frexp.o)
                0x000000000001e960                .frexpf
 .text          0x000000000001ea0c        0x0 c:/psdk3v2/ps3dev/ppu/bin/../lib/gcc/powerpc64-ps3-elf/4.5.2/../../../../powerpc64-ps3-elf/lib\libm.a(lib_a-sf_ispos.o)
 *fill*         0x000000000001ea0c        0x4 60000000
 .text.isposf   0x000000000001ea10       0x24 c:/psdk3v2/ps3dev/ppu/bin/../lib/gcc/powerpc64-ps3-elf/4.5.2/../../../../powerpc64-ps3-elf/lib\libm.a(lib_a-sf_ispos.o)
                0x000000000001ea10                .isposf
 .text          0x000000000001ea34        0x0 c:/psdk3v2/ps3dev/ppu/bin/../lib/gcc/powerpc64-ps3-elf/4.5.2/../../../../powerpc64-ps3-elf/lib\libm.a(lib_a-sf_ldexp.o)
 *fill*         0x000000000001ea34        0x4 60000000
 .text.ldexpf   0x000000000001ea38      0x190 c:/psdk3v2/ps3dev/ppu/bin/../lib/gcc/powerpc64-ps3-elf/4.5.2/../../../../powerpc64-ps3-elf/lib\libm.a(lib_a-sf_ldexp.o)
                0x000000000001ea38                .ldexpf
 .text          0x000000000001ebc8        0x0 c:/psdk3v2/ps3dev/ppu/bin/../lib/gcc/powerpc64-ps3-elf/4.5.2/../../../../powerpc64-ps3-elf/lib\libm.a(lib_a-sf_numtest.o)
 .text.numtestf
                0x000000000001ebc8       0x30 c:/psdk3v2/ps3dev/ppu/bin/../lib/gcc/powerpc64-ps3-elf/4.5.2/../../../../powerpc64-ps3-elf/lib\libm.a(lib_a-sf_numtest.o)
                0x000000000001ebc8                .numtestf
 .text          0x000000000001ebf8        0x0 c:/psdk3v2/ps3dev/ppu/bin/../lib/gcc/powerpc64-ps3-elf/4.5.2/../../../../powerpc64-ps3-elf/lib\libsysbase.a(syscalls.o)
 .text          0x000000000001ebf8        0x0 c:/psdk3v2/ps3dev/ppu/bin/../lib/gcc/powerpc64-ps3-elf/4.5.2/../../../../powerpc64-ps3-elf/lib\libsysbase.a(sleep.o)
 .text.usleep   0x000000000001ebf8       0x84 c:/psdk3v2/ps3dev/ppu/bin/../lib/gcc/powerpc64-ps3-elf/4.5.2/../../../../powerpc64-ps3-elf/lib\libsysbase.a(sleep.o)
                0x000000000001ebf8                .usleep
 *fill*         0x000000000001ec7c        0x4 60000000
 .text.sleep    0x000000000001ec80       0x98 c:/psdk3v2/ps3dev/ppu/bin/../lib/gcc/powerpc64-ps3-elf/4.5.2/../../../../powerpc64-ps3-elf/lib\libsysbase.a(sleep.o)
                0x000000000001ec80                .sleep
 .text          0x000000000001ed18        0x0 c:/psdk3v2/ps3dev/ppu/bin/../lib/gcc/powerpc64-ps3-elf/4.5.2/../../../../powerpc64-ps3-elf/lib\libc.a(lib_a-atexit.o)
 .text.atexit   0x000000000001ed18       0x40 c:/psdk3v2/ps3dev/ppu/bin/../lib/gcc/powerpc64-ps3-elf/4.5.2/../../../../powerpc64-ps3-elf/lib\libc.a(lib_a-atexit.o)
                0x000000000001ed18                .atexit
 .text          0x000000000001ed58        0x0 c:/psdk3v2/ps3dev/ppu/bin/../lib/gcc/powerpc64-ps3-elf/4.5.2/../../../../powerpc64-ps3-elf/lib\libc.a(lib_a-errno.o)
 .text.__errno  0x000000000001ed58       0x30 c:/psdk3v2/ps3dev/ppu/bin/../lib/gcc/powerpc64-ps3-elf/4.5.2/../../../../powerpc64-ps3-elf/lib\libc.a(lib_a-errno.o)
                0x000000000001ed58                .__errno
 .text          0x000000000001ed88        0x0 c:/psdk3v2/ps3dev/ppu/bin/../lib/gcc/powerpc64-ps3-elf/4.5.2/../../../../powerpc64-ps3-elf/lib\libc.a(lib_a-exit.o)
 .text.exit     0x000000000001ed88       0x68 c:/psdk3v2/ps3dev/ppu/bin/../lib/gcc/powerpc64-ps3-elf/4.5.2/../../../../powerpc64-ps3-elf/lib\libc.a(lib_a-exit.o)
                0x000000000001ed88                .exit
 .text          0x000000000001edf0        0x0 c:/psdk3v2/ps3dev/ppu/bin/../lib/gcc/powerpc64-ps3-elf/4.5.2/../../../../powerpc64-ps3-elf/lib\libc.a(lib_a-getreent.o)
 .text.__getreent
                0x000000000001edf0      0x1f0 c:/psdk3v2/ps3dev/ppu/bin/../lib/gcc/powerpc64-ps3-elf/4.5.2/../../../../powerpc64-ps3-elf/lib\libc.a(lib_a-getreent.o)
                0x000000000001edf0                .__getreent
 .text          0x000000000001efe0        0x0 c:/psdk3v2/ps3dev/ppu/bin/../lib/gcc/powerpc64-ps3-elf/4.5.2/../../../../powerpc64-ps3-elf/lib\libc.a(lib_a-impure.o)
 .text          0x000000000001efe0        0x0 c:/psdk3v2/ps3dev/ppu/bin/../lib/gcc/powerpc64-ps3-elf/4.5.2/../../../../powerpc64-ps3-elf/lib\libc.a(lib_a-malign.o)
 .text.memalign
                0x000000000001efe0       0x58 c:/psdk3v2/ps3dev/ppu/bin/../lib/gcc/powerpc64-ps3-elf/4.5.2/../../../../powerpc64-ps3-elf/lib\libc.a(lib_a-malign.o)
                0x000000000001efe0                .memalign
 .text          0x000000000001f038        0x0 c:/psdk3v2/ps3dev/ppu/bin/../lib/gcc/powerpc64-ps3-elf/4.5.2/../../../../powerpc64-ps3-elf/lib\libc.a(lib_a-malignr.o)
 .text._memalign_r
                0x000000000001f038      0x214 c:/psdk3v2/ps3dev/ppu/bin/../lib/gcc/powerpc64-ps3-elf/4.5.2/../../../../powerpc64-ps3-elf/lib\libc.a(lib_a-malignr.o)
                0x000000000001f038                ._memalign_r
 .text          0x000000000001f24c        0x0 c:/psdk3v2/ps3dev/ppu/bin/../lib/gcc/powerpc64-ps3-elf/4.5.2/../../../../powerpc64-ps3-elf/lib\libc.a(lib_a-malloc.o)
 *fill*         0x000000000001f24c        0x4 60000000
 .text.malloc   0x000000000001f250       0x48 c:/psdk3v2/ps3dev/ppu/bin/../lib/gcc/powerpc64-ps3-elf/4.5.2/../../../../powerpc64-ps3-elf/lib\libc.a(lib_a-malloc.o)
                0x000000000001f250                .malloc
 .text.free     0x000000000001f298       0x48 c:/psdk3v2/ps3dev/ppu/bin/../lib/gcc/powerpc64-ps3-elf/4.5.2/../../../../powerpc64-ps3-elf/lib\libc.a(lib_a-malloc.o)
                0x000000000001f298                .free
 .text          0x000000000001f2e0        0x0 c:/psdk3v2/ps3dev/ppu/bin/../lib/gcc/powerpc64-ps3-elf/4.5.2/../../../../powerpc64-ps3-elf/lib\libc.a(lib_a-mallocr.o)
 .text._malloc_r
                0x000000000001f2e0      0x944 c:/psdk3v2/ps3dev/ppu/bin/../lib/gcc/powerpc64-ps3-elf/4.5.2/../../../../powerpc64-ps3-elf/lib\libc.a(lib_a-mallocr.o)
                0x000000000001f2e0                ._malloc_r
 .text          0x000000000001fc24        0x0 c:/psdk3v2/ps3dev/ppu/bin/../lib/gcc/powerpc64-ps3-elf/4.5.2/../../../../powerpc64-ps3-elf/lib\libc.a(lib_a-memcpy.o)
 *fill*         0x000000000001fc24        0x4 60000000
 .text.memcpy   0x000000000001fc28       0xf8 c:/psdk3v2/ps3dev/ppu/bin/../lib/gcc/powerpc64-ps3-elf/4.5.2/../../../../powerpc64-ps3-elf/lib\libc.a(lib_a-memcpy.o)
                0x000000000001fc28                .memcpy
 .text          0x000000000001fd20        0x0 c:/psdk3v2/ps3dev/ppu/bin/../lib/gcc/powerpc64-ps3-elf/4.5.2/../../../../powerpc64-ps3-elf/lib\libc.a(lib_a-memset.o)
 .text.memset   0x000000000001fd20      0x130 c:/psdk3v2/ps3dev/ppu/bin/../lib/gcc/powerpc64-ps3-elf/4.5.2/../../../../powerpc64-ps3-elf/lib\libc.a(lib_a-memset.o)
                0x000000000001fd20                .memset
 .text          0x000000000001fe50        0x0 c:/psdk3v2/ps3dev/ppu/bin/../lib/gcc/powerpc64-ps3-elf/4.5.2/../../../../powerpc64-ps3-elf/lib\libc.a(lib_a-mlock.o)
 .text.__malloc_lock
                0x000000000001fe50       0x34 c:/psdk3v2/ps3dev/ppu/bin/../lib/gcc/powerpc64-ps3-elf/4.5.2/../../../../powerpc64-ps3-elf/lib\libc.a(lib_a-mlock.o)
                0x000000000001fe50                .__malloc_lock
 *fill*         0x000000000001fe84        0x4 60000000
 .text.__malloc_unlock
                0x000000000001fe88       0x34 c:/psdk3v2/ps3dev/ppu/bin/../lib/gcc/powerpc64-ps3-elf/4.5.2/../../../../powerpc64-ps3-elf/lib\libc.a(lib_a-mlock.o)
                0x000000000001fe88                .__malloc_unlock
 .text          0x000000000001febc        0x0 c:/psdk3v2/ps3dev/ppu/bin/../lib/gcc/powerpc64-ps3-elf/4.5.2/../../../../powerpc64-ps3-elf/lib\libc.a(lib_a-sscanf.o)
 *fill*         0x000000000001febc        0x4 60000000
 .text.sscanf   0x000000000001fec0       0xa8 c:/psdk3v2/ps3dev/ppu/bin/../lib/gcc/powerpc64-ps3-elf/4.5.2/../../../../powerpc64-ps3-elf/lib\libc.a(lib_a-sscanf.o)
                0x000000000001fec0                .sscanf
 .text._sscanf_r
                0x000000000001ff68       0xa8 c:/psdk3v2/ps3dev/ppu/bin/../lib/gcc/powerpc64-ps3-elf/4.5.2/../../../../powerpc64-ps3-elf/lib\libc.a(lib_a-sscanf.o)
                0x000000000001ff68                ._sscanf_r
 .text          0x0000000000020010        0x0 c:/psdk3v2/ps3dev/ppu/bin/../lib/gcc/powerpc64-ps3-elf/4.5.2/../../../../powerpc64-ps3-elf/lib\libc.a(lib_a-stdio.o)
 .text.__sread  0x0000000000020010       0x80 c:/psdk3v2/ps3dev/ppu/bin/../lib/gcc/powerpc64-ps3-elf/4.5.2/../../../../powerpc64-ps3-elf/lib\libc.a(lib_a-stdio.o)
                0x0000000000020010                .__sread
 .text.__seofread
                0x0000000000020090       0x14 c:/psdk3v2/ps3dev/ppu/bin/../lib/gcc/powerpc64-ps3-elf/4.5.2/../../../../powerpc64-ps3-elf/lib\libc.a(lib_a-stdio.o)
                0x0000000000020090                .__seofread
 *fill*         0x00000000000200a4        0x4 60000000
 .text.__swrite
                0x00000000000200a8       0xbc c:/psdk3v2/ps3dev/ppu/bin/../lib/gcc/powerpc64-ps3-elf/4.5.2/../../../../powerpc64-ps3-elf/lib\libc.a(lib_a-stdio.o)
                0x00000000000200a8                .__swrite
 *fill*         0x0000000000020164        0x4 60000000
 .text.__sseek  0x0000000000020168       0x88 c:/psdk3v2/ps3dev/ppu/bin/../lib/gcc/powerpc64-ps3-elf/4.5.2/../../../../powerpc64-ps3-elf/lib\libc.a(lib_a-stdio.o)
                0x0000000000020168                .__sseek
 .text.__sclose
                0x00000000000201f0       0x3c c:/psdk3v2/ps3dev/ppu/bin/../lib/gcc/powerpc64-ps3-elf/4.5.2/../../../../powerpc64-ps3-elf/lib\libc.a(lib_a-stdio.o)
                0x00000000000201f0                .__sclose
 .text          0x000000000002022c        0x0 c:/psdk3v2/ps3dev/ppu/bin/../lib/gcc/powerpc64-ps3-elf/4.5.2/../../../../powerpc64-ps3-elf/lib\libc.a(lib_a-strcasecmp.o)
 *fill*         0x000000000002022c        0x4 60000000
 .text.strcasecmp
                0x0000000000020230       0xb8 c:/psdk3v2/ps3dev/ppu/bin/../lib/gcc/powerpc64-ps3-elf/4.5.2/../../../../powerpc64-ps3-elf/lib\libc.a(lib_a-strcasecmp.o)
                0x0000000000020230                .strcasecmp
 .text          0x00000000000202e8        0x0 c:/psdk3v2/ps3dev/ppu/bin/../lib/gcc/powerpc64-ps3-elf/4.5.2/../../../../powerpc64-ps3-elf/lib\libc.a(lib_a-strlen.o)
 .text.strlen   0x00000000000202e8       0xe4 c:/psdk3v2/ps3dev/ppu/bin/../lib/gcc/powerpc64-ps3-elf/4.5.2/../../../../powerpc64-ps3-elf/lib\libc.a(lib_a-strlen.o)
                0x00000000000202e8                .strlen
 .text          0x00000000000203cc        0x0 c:/psdk3v2/ps3dev/ppu/bin/../lib/gcc/powerpc64-ps3-elf/4.5.2/../../../../powerpc64-ps3-elf/lib\libc.a(lib_a-strncpy.o)
 *fill*         0x00000000000203cc        0x4 60000000
 .text.strncpy  0x00000000000203d0      0x100 c:/psdk3v2/ps3dev/ppu/bin/../lib/gcc/powerpc64-ps3-elf/4.5.2/../../../../powerpc64-ps3-elf/lib\libc.a(lib_a-strncpy.o)
                0x00000000000203d0                .strncpy
 .text          0x00000000000204d0        0x0 c:/psdk3v2/ps3dev/ppu/bin/../lib/gcc/powerpc64-ps3-elf/4.5.2/../../../../powerpc64-ps3-elf/lib\libc.a(lib_a-svfscanf.o)
 .text.__ssvfscanf_r
                0x00000000000204d0     0x18d8 c:/psdk3v2/ps3dev/ppu/bin/../lib/gcc/powerpc64-ps3-elf/4.5.2/../../../../powerpc64-ps3-elf/lib\libc.a(lib_a-svfscanf.o)
                0x00000000000204d0                .__ssvfscanf_r
 .text          0x0000000000021da8        0x0 c:/psdk3v2/ps3dev/ppu/bin/../lib/gcc/powerpc64-ps3-elf/4.5.2/../../../../powerpc64-ps3-elf/lib\libc.a(lib_a-__atexit.o)
 .text.__register_exitproc
                0x0000000000021da8      0x188 c:/psdk3v2/ps3dev/ppu/bin/../lib/gcc/powerpc64-ps3-elf/4.5.2/../../../../powerpc64-ps3-elf/lib\libc.a(lib_a-__atexit.o)
                0x0000000000021da8                .__register_exitproc
 .text          0x0000000000021f30        0x0 c:/psdk3v2/ps3dev/ppu/bin/../lib/gcc/powerpc64-ps3-elf/4.5.2/../../../../powerpc64-ps3-elf/lib\libc.a(lib_a-__call_atexit.o)
 .text.__call_exitprocs
                0x0000000000021f30      0x250 c:/psdk3v2/ps3dev/ppu/bin/../lib/gcc/powerpc64-ps3-elf/4.5.2/../../../../powerpc64-ps3-elf/lib\libc.a(lib_a-__call_atexit.o)
                0x0000000000021f30                .__call_exitprocs
 .text          0x0000000000022180        0x0 c:/psdk3v2/ps3dev/ppu/bin/../lib/gcc/powerpc64-ps3-elf/4.5.2/../../../../powerpc64-ps3-elf/lib\libc.a(lib_a-ctype_.o)
 .text          0x0000000000022180        0x0 c:/psdk3v2/ps3dev/ppu/bin/../lib/gcc/powerpc64-ps3-elf/4.5.2/../../../../powerpc64-ps3-elf/lib\libc.a(lib_a-findfp.o)
 .text._cleanup_r
                0x0000000000022180       0x34 c:/psdk3v2/ps3dev/ppu/bin/../lib/gcc/powerpc64-ps3-elf/4.5.2/../../../../powerpc64-ps3-elf/lib\libc.a(lib_a-findfp.o)
                0x0000000000022180                ._cleanup_r
 *fill*         0x00000000000221b4        0x4 60000000
 .text.__fp_unlock
                0x00000000000221b8       0x48 c:/psdk3v2/ps3dev/ppu/bin/../lib/gcc/powerpc64-ps3-elf/4.5.2/../../../../powerpc64-ps3-elf/lib\libc.a(lib_a-findfp.o)
 .text.__fp_lock
                0x0000000000022200       0x48 c:/psdk3v2/ps3dev/ppu/bin/../lib/gcc/powerpc64-ps3-elf/4.5.2/../../../../powerpc64-ps3-elf/lib\libc.a(lib_a-findfp.o)
 .text.__sfmoreglue
                0x0000000000022248       0x94 c:/psdk3v2/ps3dev/ppu/bin/../lib/gcc/powerpc64-ps3-elf/4.5.2/../../../../powerpc64-ps3-elf/lib\libc.a(lib_a-findfp.o)
                0x0000000000022248                .__sfmoreglue
 *fill*         0x00000000000222dc        0x4 60000000
 .text._cleanup
                0x00000000000222e0       0x18 c:/psdk3v2/ps3dev/ppu/bin/../lib/gcc/powerpc64-ps3-elf/4.5.2/../../../../powerpc64-ps3-elf/lib\libc.a(lib_a-findfp.o)
                0x00000000000222e0                ._cleanup
 .text.__sfp_lock_acquire
                0x00000000000222f8       0x34 c:/psdk3v2/ps3dev/ppu/bin/../lib/gcc/powerpc64-ps3-elf/4.5.2/../../../../powerpc64-ps3-elf/lib\libc.a(lib_a-findfp.o)
                0x00000000000222f8                .__sfp_lock_acquire
 *fill*         0x000000000002232c        0x4 60000000
 .text.__sfp_lock_release
                0x0000000000022330       0x34 c:/psdk3v2/ps3dev/ppu/bin/../lib/gcc/powerpc64-ps3-elf/4.5.2/../../../../powerpc64-ps3-elf/lib\libc.a(lib_a-findfp.o)
                0x0000000000022330                .__sfp_lock_release
 *fill*         0x0000000000022364        0x4 60000000
 .text.__sinit_lock_acquire
                0x0000000000022368       0x34 c:/psdk3v2/ps3dev/ppu/bin/../lib/gcc/powerpc64-ps3-elf/4.5.2/../../../../powerpc64-ps3-elf/lib\libc.a(lib_a-findfp.o)
                0x0000000000022368                .__sinit_lock_acquire
 *fill*         0x000000000002239c        0x4 60000000
 .text.__sinit_lock_release
                0x00000000000223a0       0x34 c:/psdk3v2/ps3dev/ppu/bin/../lib/gcc/powerpc64-ps3-elf/4.5.2/../../../../powerpc64-ps3-elf/lib\libc.a(lib_a-findfp.o)
                0x00000000000223a0                .__sinit_lock_release
 *fill*         0x00000000000223d4        0x4 60000000
 .text.__sinit  0x00000000000223d8      0x1d8 c:/psdk3v2/ps3dev/ppu/bin/../lib/gcc/powerpc64-ps3-elf/4.5.2/../../../../powerpc64-ps3-elf/lib\libc.a(lib_a-findfp.o)
                0x00000000000223d8                .__sinit
 .text.__sfp    0x00000000000225b0      0x190 c:/psdk3v2/ps3dev/ppu/bin/../lib/gcc/powerpc64-ps3-elf/4.5.2/../../../../powerpc64-ps3-elf/lib\libc.a(lib_a-findfp.o)
                0x00000000000225b0                .__sfp
 .text.__fp_lock_all
                0x0000000000022740       0x40 c:/psdk3v2/ps3dev/ppu/bin/../lib/gcc/powerpc64-ps3-elf/4.5.2/../../../../powerpc64-ps3-elf/lib\libc.a(lib_a-findfp.o)
                0x0000000000022740                .__fp_lock_all
 .text.__fp_unlock_all
                0x0000000000022780       0x3c c:/psdk3v2/ps3dev/ppu/bin/../lib/gcc/powerpc64-ps3-elf/4.5.2/../../../../powerpc64-ps3-elf/lib\libc.a(lib_a-findfp.o)
                0x0000000000022780                .__fp_unlock_all
 .text          0x00000000000227bc        0x0 c:/psdk3v2/ps3dev/ppu/bin/../lib/gcc/powerpc64-ps3-elf/4.5.2/../../../../powerpc64-ps3-elf/lib\libc.a(lib_a-freer.o)
 *fill*         0x00000000000227bc        0x4 60000000
 .text._malloc_trim_r
                0x00000000000227c0      0x15c c:/psdk3v2/ps3dev/ppu/bin/../lib/gcc/powerpc64-ps3-elf/4.5.2/../../../../powerpc64-ps3-elf/lib\libc.a(lib_a-freer.o)
                0x00000000000227c0                ._malloc_trim_r
 *fill*         0x000000000002291c        0x4 60000000
 .text._free_r  0x0000000000022920      0x310 c:/psdk3v2/ps3dev/ppu/bin/../lib/gcc/powerpc64-ps3-elf/4.5.2/../../../../powerpc64-ps3-elf/lib\libc.a(lib_a-freer.o)
                0x0000000000022920                ._free_r
 .text          0x0000000000022c30        0x0 c:/psdk3v2/ps3dev/ppu/bin/../lib/gcc/powerpc64-ps3-elf/4.5.2/../../../../powerpc64-ps3-elf/lib\libc.a(lib_a-fwalk.o)
 .text._fwalk   0x0000000000022c30       0xfc c:/psdk3v2/ps3dev/ppu/bin/../lib/gcc/powerpc64-ps3-elf/4.5.2/../../../../powerpc64-ps3-elf/lib\libc.a(lib_a-fwalk.o)
                0x0000000000022c30                ._fwalk
 *fill*         0x0000000000022d2c        0x4 60000000
 .text._fwalk_reent
                0x0000000000022d30      0x108 c:/psdk3v2/ps3dev/ppu/bin/../lib/gcc/powerpc64-ps3-elf/4.5.2/../../../../powerpc64-ps3-elf/lib\libc.a(lib_a-fwalk.o)
                0x0000000000022d30                ._fwalk_reent
 .text          0x0000000000022e38        0x0 c:/psdk3v2/ps3dev/ppu/bin/../lib/gcc/powerpc64-ps3-elf/4.5.2/../../../../powerpc64-ps3-elf/lib\libc.a(lib_a-iswspace.o)
 .text.iswspace
                0x0000000000022e38       0x3c c:/psdk3v2/ps3dev/ppu/bin/../lib/gcc/powerpc64-ps3-elf/4.5.2/../../../../powerpc64-ps3-elf/lib\libc.a(lib_a-iswspace.o)
                0x0000000000022e38                .iswspace
 .text          0x0000000000022e74        0x0 c:/psdk3v2/ps3dev/ppu/bin/../lib/gcc/powerpc64-ps3-elf/4.5.2/../../../../powerpc64-ps3-elf/lib\libc.a(lib_a-locale.o)
 *fill*         0x0000000000022e74        0x4 60000000
 .text._setlocale_r
                0x0000000000022e78       0xa8 c:/psdk3v2/ps3dev/ppu/bin/../lib/gcc/powerpc64-ps3-elf/4.5.2/../../../../powerpc64-ps3-elf/lib\libc.a(lib_a-locale.o)
                0x0000000000022e78                ._setlocale_r
 .text.__locale_charset
                0x0000000000022f20       0x14 c:/psdk3v2/ps3dev/ppu/bin/../lib/gcc/powerpc64-ps3-elf/4.5.2/../../../../powerpc64-ps3-elf/lib\libc.a(lib_a-locale.o)
                0x0000000000022f20                .__locale_charset
 *fill*         0x0000000000022f34        0x4 60000000
 .text.__locale_mb_cur_max
                0x0000000000022f38       0x1c c:/psdk3v2/ps3dev/ppu/bin/../lib/gcc/powerpc64-ps3-elf/4.5.2/../../../../powerpc64-ps3-elf/lib\libc.a(lib_a-locale.o)
                0x0000000000022f38                .__locale_mb_cur_max
 *fill*         0x0000000000022f54        0x4 60000000
 .text.__locale_msgcharset
                0x0000000000022f58       0x14 c:/psdk3v2/ps3dev/ppu/bin/../lib/gcc/powerpc64-ps3-elf/4.5.2/../../../../powerpc64-ps3-elf/lib\libc.a(lib_a-locale.o)
                0x0000000000022f58                .__locale_msgcharset
 *fill*         0x0000000000022f6c        0x4 60000000
 .text.__locale_cjk_lang
                0x0000000000022f70       0x14 c:/psdk3v2/ps3dev/ppu/bin/../lib/gcc/powerpc64-ps3-elf/4.5.2/../../../../powerpc64-ps3-elf/lib\libc.a(lib_a-locale.o)
                0x0000000000022f70                .__locale_cjk_lang
 *fill*         0x0000000000022f84        0x4 60000000
 .text._localeconv_r
                0x0000000000022f88       0x14 c:/psdk3v2/ps3dev/ppu/bin/../lib/gcc/powerpc64-ps3-elf/4.5.2/../../../../powerpc64-ps3-elf/lib\libc.a(lib_a-locale.o)
                0x0000000000022f88                ._localeconv_r
 *fill*         0x0000000000022f9c        0x4 60000000
 .text.setlocale
                0x0000000000022fa0       0x50 c:/psdk3v2/ps3dev/ppu/bin/../lib/gcc/powerpc64-ps3-elf/4.5.2/../../../../powerpc64-ps3-elf/lib\libc.a(lib_a-locale.o)
                0x0000000000022fa0                .setlocale
 .text.localeconv
                0x0000000000022ff0       0x34 c:/psdk3v2/ps3dev/ppu/bin/../lib/gcc/powerpc64-ps3-elf/4.5.2/../../../../powerpc64-ps3-elf/lib\libc.a(lib_a-locale.o)
                0x0000000000022ff0                .localeconv
 .text          0x0000000000023024        0x0 c:/psdk3v2/ps3dev/ppu/bin/../lib/gcc/powerpc64-ps3-elf/4.5.2/../../../../powerpc64-ps3-elf/lib\libc.a(lib_a-lock_recursive.o)
 *fill*         0x0000000000023024        0x4 60000000
 .text.__libc_lock_init_recursive
                0x0000000000023028       0x34 c:/psdk3v2/ps3dev/ppu/bin/../lib/gcc/powerpc64-ps3-elf/4.5.2/../../../../powerpc64-ps3-elf/lib\libc.a(lib_a-lock_recursive.o)
                0x0000000000023028                .__libc_lock_init_recursive
 *fill*         0x000000000002305c        0x4 60000000
 .text.__libc_lock_close_recursive
                0x0000000000023060       0x30 c:/psdk3v2/ps3dev/ppu/bin/../lib/gcc/powerpc64-ps3-elf/4.5.2/../../../../powerpc64-ps3-elf/lib\libc.a(lib_a-lock_recursive.o)
                0x0000000000023060                .__libc_lock_close_recursive
 .text.__libc_lock_acquire_recursive
                0x0000000000023090       0x58 c:/psdk3v2/ps3dev/ppu/bin/../lib/gcc/powerpc64-ps3-elf/4.5.2/../../../../powerpc64-ps3-elf/lib\libc.a(lib_a-lock_recursive.o)
                0x0000000000023090                .__libc_lock_acquire_recursive
 .text.__libc_lock_try_acquire_recursive
                0x00000000000230e8       0x54 c:/psdk3v2/ps3dev/ppu/bin/../lib/gcc/powerpc64-ps3-elf/4.5.2/../../../../powerpc64-ps3-elf/lib\libc.a(lib_a-lock_recursive.o)
                0x00000000000230e8                .__libc_lock_try_acquire_recursive
 *fill*         0x000000000002313c        0x4 60000000
 .text.__libc_lock_release_recursive
                0x0000000000023140       0x54 c:/psdk3v2/ps3dev/ppu/bin/../lib/gcc/powerpc64-ps3-elf/4.5.2/../../../../powerpc64-ps3-elf/lib\libc.a(lib_a-lock_recursive.o)
                0x0000000000023140                .__libc_lock_release_recursive
 .text          0x0000000000023194        0x0 c:/psdk3v2/ps3dev/ppu/bin/../lib/gcc/powerpc64-ps3-elf/4.5.2/../../../../powerpc64-ps3-elf/lib\libc.a(lib_a-mbrtowc.o)
 *fill*         0x0000000000023194        0x4 60000000
 .text._mbrtowc_r
                0x0000000000023198      0x10c c:/psdk3v2/ps3dev/ppu/bin/../lib/gcc/powerpc64-ps3-elf/4.5.2/../../../../powerpc64-ps3-elf/lib\libc.a(lib_a-mbrtowc.o)
                0x0000000000023198                ._mbrtowc_r
 *fill*         0x00000000000232a4        0x4 60000000
 .text.mbrtowc  0x00000000000232a8      0x170 c:/psdk3v2/ps3dev/ppu/bin/../lib/gcc/powerpc64-ps3-elf/4.5.2/../../../../powerpc64-ps3-elf/lib\libc.a(lib_a-mbrtowc.o)
                0x00000000000232a8                .mbrtowc
 .text          0x0000000000023418        0x0 c:/psdk3v2/ps3dev/ppu/bin/../lib/gcc/powerpc64-ps3-elf/4.5.2/../../../../powerpc64-ps3-elf/lib\libc.a(lib_a-mbtowc_r.o)
 .text.__ascii_mbtowc
                0x0000000000023418       0x58 c:/psdk3v2/ps3dev/ppu/bin/../lib/gcc/powerpc64-ps3-elf/4.5.2/../../../../powerpc64-ps3-elf/lib\libc.a(lib_a-mbtowc_r.o)
                0x0000000000023418                .__ascii_mbtowc
 .text._mbtowc_r
                0x0000000000023470       0x98 c:/psdk3v2/ps3dev/ppu/bin/../lib/gcc/powerpc64-ps3-elf/4.5.2/../../../../powerpc64-ps3-elf/lib\libc.a(lib_a-mbtowc_r.o)
                0x0000000000023470                ._mbtowc_r
 .text          0x0000000000023508        0x0 c:/psdk3v2/ps3dev/ppu/bin/../lib/gcc/powerpc64-ps3-elf/4.5.2/../../../../powerpc64-ps3-elf/lib\libc.a(lib_a-s_fpclassify.o)
 .text.__fpclassifyd
                0x0000000000023508       0xc4 c:/psdk3v2/ps3dev/ppu/bin/../lib/gcc/powerpc64-ps3-elf/4.5.2/../../../../powerpc64-ps3-elf/lib\libc.a(lib_a-s_fpclassify.o)
                0x0000000000023508                .__fpclassifyd
 .text          0x00000000000235cc        0x0 c:/psdk3v2/ps3dev/ppu/bin/../lib/gcc/powerpc64-ps3-elf/4.5.2/../../../../powerpc64-ps3-elf/lib\libc.a(lib_a-sccl.o)
 *fill*         0x00000000000235cc        0x4 60000000
 .text.__sccl   0x00000000000235d0      0x120 c:/psdk3v2/ps3dev/ppu/bin/../lib/gcc/powerpc64-ps3-elf/4.5.2/../../../../powerpc64-ps3-elf/lib\libc.a(lib_a-sccl.o)
                0x00000000000235d0                .__sccl
 .text          0x00000000000236f0        0x0 c:/psdk3v2/ps3dev/ppu/bin/../lib/gcc/powerpc64-ps3-elf/4.5.2/../../../../powerpc64-ps3-elf/lib\libc.a(lib_a-sf_nan.o)
 .text.nanf     0x00000000000236f0       0x18 c:/psdk3v2/ps3dev/ppu/bin/../lib/gcc/powerpc64-ps3-elf/4.5.2/../../../../powerpc64-ps3-elf/lib\libc.a(lib_a-sf_nan.o)
                0x00000000000236f0                .nanf
 .text          0x0000000000023708        0x0 c:/psdk3v2/ps3dev/ppu/bin/../lib/gcc/powerpc64-ps3-elf/4.5.2/../../../../powerpc64-ps3-elf/lib\libc.a(lib_a-sprintf.o)
 .text._sprintf_r
                0x0000000000023708       0x84 c:/psdk3v2/ps3dev/ppu/bin/../lib/gcc/powerpc64-ps3-elf/4.5.2/../../../../powerpc64-ps3-elf/lib\libc.a(lib_a-sprintf.o)
                0x0000000000023708                ._sprintf_r
 *fill*         0x000000000002378c        0x4 60000000
 .text.sprintf  0x0000000000023790       0x9c c:/psdk3v2/ps3dev/ppu/bin/../lib/gcc/powerpc64-ps3-elf/4.5.2/../../../../powerpc64-ps3-elf/lib\libc.a(lib_a-sprintf.o)
                0x0000000000023790                .sprintf
 .text          0x000000000002382c        0x0 c:/psdk3v2/ps3dev/ppu/bin/../lib/gcc/powerpc64-ps3-elf/4.5.2/../../../../powerpc64-ps3-elf/lib\libc.a(lib_a-strcmp.o)
 *fill*         0x000000000002382c        0x4 60000000
 .text.strcmp   0x0000000000023830       0xfc c:/psdk3v2/ps3dev/ppu/bin/../lib/gcc/powerpc64-ps3-elf/4.5.2/../../../../powerpc64-ps3-elf/lib\libc.a(lib_a-strcmp.o)
                0x0000000000023830                .strcmp
 .text          0x000000000002392c        0x0 c:/psdk3v2/ps3dev/ppu/bin/../lib/gcc/powerpc64-ps3-elf/4.5.2/../../../../powerpc64-ps3-elf/lib\libc.a(lib_a-strtod.o)
 *fill*         0x000000000002392c        0x4 60000000
 .text.match    0x0000000000023930       0x6c c:/psdk3v2/ps3dev/ppu/bin/../lib/gcc/powerpc64-ps3-elf/4.5.2/../../../../powerpc64-ps3-elf/lib\libc.a(lib_a-strtod.o)
 *fill*         0x000000000002399c        0x4 60000000
 .text._strtod_r
                0x00000000000239a0     0x1578 c:/psdk3v2/ps3dev/ppu/bin/../lib/gcc/powerpc64-ps3-elf/4.5.2/../../../../powerpc64-ps3-elf/lib\libc.a(lib_a-strtod.o)
                0x00000000000239a0                ._strtod_r
 .text.strtod   0x0000000000024f18       0x50 c:/psdk3v2/ps3dev/ppu/bin/../lib/gcc/powerpc64-ps3-elf/4.5.2/../../../../powerpc64-ps3-elf/lib\libc.a(lib_a-strtod.o)
                0x0000000000024f18                .strtod
 .text.strtof   0x0000000000024f68       0x98 c:/psdk3v2/ps3dev/ppu/bin/../lib/gcc/powerpc64-ps3-elf/4.5.2/../../../../powerpc64-ps3-elf/lib\libc.a(lib_a-strtod.o)
                0x0000000000024f68                .strtof
 .text          0x0000000000025000        0x0 c:/psdk3v2/ps3dev/ppu/bin/../lib/gcc/powerpc64-ps3-elf/4.5.2/../../../../powerpc64-ps3-elf/lib\libc.a(lib_a-strtol.o)
 .text._strtol_r
                0x0000000000025000      0x24c c:/psdk3v2/ps3dev/ppu/bin/../lib/gcc/powerpc64-ps3-elf/4.5.2/../../../../powerpc64-ps3-elf/lib\libc.a(lib_a-strtol.o)
                0x0000000000025000                ._strtol_r
 *fill*         0x000000000002524c        0x4 60000000
 .text.strtol   0x0000000000025250       0x60 c:/psdk3v2/ps3dev/ppu/bin/../lib/gcc/powerpc64-ps3-elf/4.5.2/../../../../powerpc64-ps3-elf/lib\libc.a(lib_a-strtol.o)
                0x0000000000025250                .strtol
 .text          0x00000000000252b0        0x0 c:/psdk3v2/ps3dev/ppu/bin/../lib/gcc/powerpc64-ps3-elf/4.5.2/../../../../powerpc64-ps3-elf/lib\libc.a(lib_a-strtoll_r.o)
 .text._strtoll_r
                0x00000000000252b0      0x24c c:/psdk3v2/ps3dev/ppu/bin/../lib/gcc/powerpc64-ps3-elf/4.5.2/../../../../powerpc64-ps3-elf/lib\libc.a(lib_a-strtoll_r.o)
                0x00000000000252b0                ._strtoll_r
 .text          0x00000000000254fc        0x0 c:/psdk3v2/ps3dev/ppu/bin/../lib/gcc/powerpc64-ps3-elf/4.5.2/../../../../powerpc64-ps3-elf/lib\libc.a(lib_a-strtoul.o)
 *fill*         0x00000000000254fc        0x4 60000000
 .text._strtoul_r
                0x0000000000025500      0x230 c:/psdk3v2/ps3dev/ppu/bin/../lib/gcc/powerpc64-ps3-elf/4.5.2/../../../../powerpc64-ps3-elf/lib\libc.a(lib_a-strtoul.o)
                0x0000000000025500                ._strtoul_r
 .text.strtoul  0x0000000000025730       0x60 c:/psdk3v2/ps3dev/ppu/bin/../lib/gcc/powerpc64-ps3-elf/4.5.2/../../../../powerpc64-ps3-elf/lib\libc.a(lib_a-strtoul.o)
                0x0000000000025730                .strtoul
 .text          0x0000000000025790        0x0 c:/psdk3v2/ps3dev/ppu/bin/../lib/gcc/powerpc64-ps3-elf/4.5.2/../../../../powerpc64-ps3-elf/lib\libc.a(lib_a-strtoull_r.o)
 .text._strtoull_r
                0x0000000000025790      0x230 c:/psdk3v2/ps3dev/ppu/bin/../lib/gcc/powerpc64-ps3-elf/4.5.2/../../../../powerpc64-ps3-elf/lib\libc.a(lib_a-strtoull_r.o)
                0x0000000000025790                ._strtoull_r
 .text          0x00000000000259c0        0x0 c:/psdk3v2/ps3dev/ppu/bin/../lib/gcc/powerpc64-ps3-elf/4.5.2/../../../../powerpc64-ps3-elf/lib\libc.a(lib_a-svfiscanf.o)
 .text._sungetc_r
                0x00000000000259c0      0x158 c:/psdk3v2/ps3dev/ppu/bin/../lib/gcc/powerpc64-ps3-elf/4.5.2/../../../../powerpc64-ps3-elf/lib\libc.a(lib_a-svfiscanf.o)
                0x00000000000259c0                ._sungetc_r
 .text.__ssrefill_r
                0x0000000000025b18       0xa0 c:/psdk3v2/ps3dev/ppu/bin/../lib/gcc/powerpc64-ps3-elf/4.5.2/../../../../powerpc64-ps3-elf/lib\libc.a(lib_a-svfiscanf.o)
                0x0000000000025b18                .__ssrefill_r
 .text._sfread_r
                0x0000000000025bb8      0x194 c:/psdk3v2/ps3dev/ppu/bin/../lib/gcc/powerpc64-ps3-elf/4.5.2/../../../../powerpc64-ps3-elf/lib\libc.a(lib_a-svfiscanf.o)
                0x0000000000025bb8                ._sfread_r
 *fill*         0x0000000000025d4c        0x4 60000000
 .text.__ssvfiscanf_r
                0x0000000000025d50     0x1208 c:/psdk3v2/ps3dev/ppu/bin/../lib/gcc/powerpc64-ps3-elf/4.5.2/../../../../powerpc64-ps3-elf/lib\libc.a(lib_a-svfiscanf.o)
                0x0000000000025d50                .__ssvfiscanf_r
 .text          0x0000000000026f58        0x0 c:/psdk3v2/ps3dev/ppu/bin/../lib/gcc/powerpc64-ps3-elf/4.5.2/../../../../powerpc64-ps3-elf/lib\libc.a(lib_a-svfprintf.o)
 .text._svfprintf_r
                0x0000000000026f58     0x2120 c:/psdk3v2/ps3dev/ppu/bin/../lib/gcc/powerpc64-ps3-elf/4.5.2/../../../../powerpc64-ps3-elf/lib\libc.a(lib_a-svfprintf.o)
                0x0000000000026f58                ._svfprintf_r
 .text          0x0000000000029078        0x0 c:/psdk3v2/ps3dev/ppu/bin/../lib/gcc/powerpc64-ps3-elf/4.5.2/../../../../powerpc64-ps3-elf/lib\libc.a(lib_a-ungetc.o)
 .text.__submore
                0x0000000000029078      0x124 c:/psdk3v2/ps3dev/ppu/bin/../lib/gcc/powerpc64-ps3-elf/4.5.2/../../../../powerpc64-ps3-elf/lib\libc.a(lib_a-ungetc.o)
                0x0000000000029078                .__submore
 *fill*         0x000000000002919c        0x4 60000000
 .text._ungetc_r
                0x00000000000291a0      0x2b8 c:/psdk3v2/ps3dev/ppu/bin/../lib/gcc/powerpc64-ps3-elf/4.5.2/../../../../powerpc64-ps3-elf/lib\libc.a(lib_a-ungetc.o)
                0x00000000000291a0                ._ungetc_r
 .text.ungetc   0x0000000000029458       0x50 c:/psdk3v2/ps3dev/ppu/bin/../lib/gcc/powerpc64-ps3-elf/4.5.2/../../../../powerpc64-ps3-elf/lib\libc.a(lib_a-ungetc.o)
                0x0000000000029458                .ungetc
 .text          0x00000000000294a8        0x0 c:/psdk3v2/ps3dev/ppu/bin/../lib/gcc/powerpc64-ps3-elf/4.5.2/../../../../powerpc64-ps3-elf/lib\libc.a(lib_a-dtoa.o)
 .text.quorem   0x00000000000294a8      0x258 c:/psdk3v2/ps3dev/ppu/bin/../lib/gcc/powerpc64-ps3-elf/4.5.2/../../../../powerpc64-ps3-elf/lib\libc.a(lib_a-dtoa.o)
 .text._dtoa_r  0x0000000000029700     0x1328 c:/psdk3v2/ps3dev/ppu/bin/../lib/gcc/powerpc64-ps3-elf/4.5.2/../../../../powerpc64-ps3-elf/lib\libc.a(lib_a-dtoa.o)
                0x0000000000029700                ._dtoa_r
 .text          0x000000000002aa28        0x0 c:/psdk3v2/ps3dev/ppu/bin/../lib/gcc/powerpc64-ps3-elf/4.5.2/../../../../powerpc64-ps3-elf/lib\libc.a(lib_a-fclose.o)
 .text._fclose_r
                0x000000000002aa28      0x1ec c:/psdk3v2/ps3dev/ppu/bin/../lib/gcc/powerpc64-ps3-elf/4.5.2/../../../../powerpc64-ps3-elf/lib\libc.a(lib_a-fclose.o)
                0x000000000002aa28                ._fclose_r
 *fill*         0x000000000002ac14        0x4 60000000
 .text.fclose   0x000000000002ac18       0x40 c:/psdk3v2/ps3dev/ppu/bin/../lib/gcc/powerpc64-ps3-elf/4.5.2/../../../../powerpc64-ps3-elf/lib\libc.a(lib_a-fclose.o)
                0x000000000002ac18                .fclose
 .text          0x000000000002ac58        0x0 c:/psdk3v2/ps3dev/ppu/bin/../lib/gcc/powerpc64-ps3-elf/4.5.2/../../../../powerpc64-ps3-elf/lib\libc.a(lib_a-fflush.o)
 .text._fflush_r
                0x000000000002ac58      0x410 c:/psdk3v2/ps3dev/ppu/bin/../lib/gcc/powerpc64-ps3-elf/4.5.2/../../../../powerpc64-ps3-elf/lib\libc.a(lib_a-fflush.o)
                0x000000000002ac58                ._fflush_r
 .text.fflush   0x000000000002b068       0x74 c:/psdk3v2/ps3dev/ppu/bin/../lib/gcc/powerpc64-ps3-elf/4.5.2/../../../../powerpc64-ps3-elf/lib\libc.a(lib_a-fflush.o)
                0x000000000002b068                .fflush
 .text          0x000000000002b0dc        0x0 c:/psdk3v2/ps3dev/ppu/bin/../lib/gcc/powerpc64-ps3-elf/4.5.2/../../../../powerpc64-ps3-elf/lib\libc.a(lib_a-gdtoa-gethex.o)
 *fill*         0x000000000002b0dc        0x4 60000000
 .text.rshift   0x000000000002b0e0      0x164 c:/psdk3v2/ps3dev/ppu/bin/../lib/gcc/powerpc64-ps3-elf/4.5.2/../../../../powerpc64-ps3-elf/lib\libc.a(lib_a-gdtoa-gethex.o)
 *fill*         0x000000000002b244        0x4 60000000
 .text.__hexdig_init
                0x000000000002b248       0x8c c:/psdk3v2/ps3dev/ppu/bin/../lib/gcc/powerpc64-ps3-elf/4.5.2/../../../../powerpc64-ps3-elf/lib\libc.a(lib_a-gdtoa-gethex.o)
                0x000000000002b248                .__hexdig_init
 *fill*         0x000000000002b2d4        0x4 60000000
 .text.__gethex
                0x000000000002b2d8      0x934 c:/psdk3v2/ps3dev/ppu/bin/../lib/gcc/powerpc64-ps3-elf/4.5.2/../../../../powerpc64-ps3-elf/lib\libc.a(lib_a-gdtoa-gethex.o)
                0x000000000002b2d8                .__gethex
 .text          0x000000000002bc0c        0x0 c:/psdk3v2/ps3dev/ppu/bin/../lib/gcc/powerpc64-ps3-elf/4.5.2/../../../../powerpc64-ps3-elf/lib\libc.a(lib_a-gdtoa-hexnan.o)
 *fill*         0x000000000002bc0c        0x4 60000000
 .text.__hexnan
                0x000000000002bc10      0x324 c:/psdk3v2/ps3dev/ppu/bin/../lib/gcc/powerpc64-ps3-elf/4.5.2/../../../../powerpc64-ps3-elf/lib\libc.a(lib_a-gdtoa-hexnan.o)
                0x000000000002bc10                .__hexnan
 .text          0x000000000002bf34        0x0 c:/psdk3v2/ps3dev/ppu/bin/../lib/gcc/powerpc64-ps3-elf/4.5.2/../../../../powerpc64-ps3-elf/lib\libc.a(lib_a-lock_internal.o)
 *fill*         0x000000000002bf34        0x4 60000000
 .text.init_metalock
                0x000000000002bf38       0x48 c:/psdk3v2/ps3dev/ppu/bin/../lib/gcc/powerpc64-ps3-elf/4.5.2/../../../../powerpc64-ps3-elf/lib\libc.a(lib_a-lock_internal.o)
 .text.__libc_auto_lock_allocate
                0x000000000002bf80       0x9c c:/psdk3v2/ps3dev/ppu/bin/../lib/gcc/powerpc64-ps3-elf/4.5.2/../../../../powerpc64-ps3-elf/lib\libc.a(lib_a-lock_internal.o)
                0x000000000002bf80                .__libc_auto_lock_allocate
 .text          0x000000000002c01c        0x0 c:/psdk3v2/ps3dev/ppu/bin/../lib/gcc/powerpc64-ps3-elf/4.5.2/../../../../powerpc64-ps3-elf/lib\libc.a(lib_a-memchr.o)
 *fill*         0x000000000002c01c        0x4 60000000
 .text.memchr   0x000000000002c020      0x13c c:/psdk3v2/ps3dev/ppu/bin/../lib/gcc/powerpc64-ps3-elf/4.5.2/../../../../powerpc64-ps3-elf/lib\libc.a(lib_a-memchr.o)
                0x000000000002c020                .memchr
 .text          0x000000000002c15c        0x0 c:/psdk3v2/ps3dev/ppu/bin/../lib/gcc/powerpc64-ps3-elf/4.5.2/../../../../powerpc64-ps3-elf/lib\libc.a(lib_a-mprec.o)
 *fill*         0x000000000002c15c        0x4 60000000
 .text._Balloc  0x000000000002c160       0xd4 c:/psdk3v2/ps3dev/ppu/bin/../lib/gcc/powerpc64-ps3-elf/4.5.2/../../../../powerpc64-ps3-elf/lib\libc.a(lib_a-mprec.o)
                0x000000000002c160                ._Balloc
 *fill*         0x000000000002c234        0x4 60000000
 .text._Bfree   0x000000000002c238       0x34 c:/psdk3v2/ps3dev/ppu/bin/../lib/gcc/powerpc64-ps3-elf/4.5.2/../../../../powerpc64-ps3-elf/lib\libc.a(lib_a-mprec.o)
                0x000000000002c238                ._Bfree
 *fill*         0x000000000002c26c        0x4 60000000
 .text.__multadd
                0x000000000002c270      0x164 c:/psdk3v2/ps3dev/ppu/bin/../lib/gcc/powerpc64-ps3-elf/4.5.2/../../../../powerpc64-ps3-elf/lib\libc.a(lib_a-mprec.o)
                0x000000000002c270                .__multadd
 *fill*         0x000000000002c3d4        0x4 60000000
 .text.__s2b    0x000000000002c3d8      0x164 c:/psdk3v2/ps3dev/ppu/bin/../lib/gcc/powerpc64-ps3-elf/4.5.2/../../../../powerpc64-ps3-elf/lib\libc.a(lib_a-mprec.o)
                0x000000000002c3d8                .__s2b
 *fill*         0x000000000002c53c        0x4 60000000
 .text.__hi0bits
                0x000000000002c540       0x94 c:/psdk3v2/ps3dev/ppu/bin/../lib/gcc/powerpc64-ps3-elf/4.5.2/../../../../powerpc64-ps3-elf/lib\libc.a(lib_a-mprec.o)
                0x000000000002c540                .__hi0bits
 *fill*         0x000000000002c5d4        0x4 60000000
 .text.__lo0bits
                0x000000000002c5d8       0xec c:/psdk3v2/ps3dev/ppu/bin/../lib/gcc/powerpc64-ps3-elf/4.5.2/../../../../powerpc64-ps3-elf/lib\libc.a(lib_a-mprec.o)
                0x000000000002c5d8                .__lo0bits
 *fill*         0x000000000002c6c4        0x4 60000000
 .text.__i2b    0x000000000002c6c8       0x48 c:/psdk3v2/ps3dev/ppu/bin/../lib/gcc/powerpc64-ps3-elf/4.5.2/../../../../powerpc64-ps3-elf/lib\libc.a(lib_a-mprec.o)
                0x000000000002c6c8                .__i2b
 .text.__multiply
                0x000000000002c710      0x2a0 c:/psdk3v2/ps3dev/ppu/bin/../lib/gcc/powerpc64-ps3-elf/4.5.2/../../../../powerpc64-ps3-elf/lib\libc.a(lib_a-mprec.o)
                0x000000000002c710                .__multiply
 .text.__pow5mult
                0x000000000002c9b0      0x15c c:/psdk3v2/ps3dev/ppu/bin/../lib/gcc/powerpc64-ps3-elf/4.5.2/../../../../powerpc64-ps3-elf/lib\libc.a(lib_a-mprec.o)
                0x000000000002c9b0                .__pow5mult
 *fill*         0x000000000002cb0c        0x4 60000000
 .text.__lshift
                0x000000000002cb10      0x1c8 c:/psdk3v2/ps3dev/ppu/bin/../lib/gcc/powerpc64-ps3-elf/4.5.2/../../../../powerpc64-ps3-elf/lib\libc.a(lib_a-mprec.o)
                0x000000000002cb10                .__lshift
 .text.__mcmp   0x000000000002ccd8       0x84 c:/psdk3v2/ps3dev/ppu/bin/../lib/gcc/powerpc64-ps3-elf/4.5.2/../../../../powerpc64-ps3-elf/lib\libc.a(lib_a-mprec.o)
                0x000000000002ccd8                .__mcmp
 *fill*         0x000000000002cd5c        0x4 60000000
 .text.__mdiff  0x000000000002cd60      0x1fc c:/psdk3v2/ps3dev/ppu/bin/../lib/gcc/powerpc64-ps3-elf/4.5.2/../../../../powerpc64-ps3-elf/lib\libc.a(lib_a-mprec.o)
                0x000000000002cd60                .__mdiff
 *fill*         0x000000000002cf5c        0x4 60000000
 .text.__ulp    0x000000000002cf60       0xb8 c:/psdk3v2/ps3dev/ppu/bin/../lib/gcc/powerpc64-ps3-elf/4.5.2/../../../../powerpc64-ps3-elf/lib\libc.a(lib_a-mprec.o)
                0x000000000002cf60                .__ulp
 .text.__b2d    0x000000000002d018      0x1c0 c:/psdk3v2/ps3dev/ppu/bin/../lib/gcc/powerpc64-ps3-elf/4.5.2/../../../../powerpc64-ps3-elf/lib\libc.a(lib_a-mprec.o)
                0x000000000002d018                .__b2d
 .text.__d2b    0x000000000002d1d8      0x1ac c:/psdk3v2/ps3dev/ppu/bin/../lib/gcc/powerpc64-ps3-elf/4.5.2/../../../../powerpc64-ps3-elf/lib\libc.a(lib_a-mprec.o)
                0x000000000002d1d8                .__d2b
 *fill*         0x000000000002d384        0x4 60000000
 .text.__ratio  0x000000000002d388       0xf8 c:/psdk3v2/ps3dev/ppu/bin/../lib/gcc/powerpc64-ps3-elf/4.5.2/../../../../powerpc64-ps3-elf/lib\libc.a(lib_a-mprec.o)
                0x000000000002d388                .__ratio
 .text._mprec_log10
                0x000000000002d480       0x4c c:/psdk3v2/ps3dev/ppu/bin/../lib/gcc/powerpc64-ps3-elf/4.5.2/../../../../powerpc64-ps3-elf/lib\libc.a(lib_a-mprec.o)
                0x000000000002d480                ._mprec_log10
 *fill*         0x000000000002d4cc        0x4 60000000
 .text.__copybits
                0x000000000002d4d0       0x98 c:/psdk3v2/ps3dev/ppu/bin/../lib/gcc/powerpc64-ps3-elf/4.5.2/../../../../powerpc64-ps3-elf/lib\libc.a(lib_a-mprec.o)
                0x000000000002d4d0                .__copybits
 .text.__any_on
                0x000000000002d568       0xf4 c:/psdk3v2/ps3dev/ppu/bin/../lib/gcc/powerpc64-ps3-elf/4.5.2/../../../../powerpc64-ps3-elf/lib\libc.a(lib_a-mprec.o)
                0x000000000002d568                .__any_on
 .text          0x000000000002d65c        0x0 c:/psdk3v2/ps3dev/ppu/bin/../lib/gcc/powerpc64-ps3-elf/4.5.2/../../../../powerpc64-ps3-elf/lib\libc.a(lib_a-reallocr.o)
 *fill*         0x000000000002d65c        0x4 60000000
 .text._realloc_r
                0x000000000002d660      0x710 c:/psdk3v2/ps3dev/ppu/bin/../lib/gcc/powerpc64-ps3-elf/4.5.2/../../../../powerpc64-ps3-elf/lib\libc.a(lib_a-reallocr.o)
                0x000000000002d660                ._realloc_r
 .text          0x000000000002dd70        0x0 c:/psdk3v2/ps3dev/ppu/bin/../lib/gcc/powerpc64-ps3-elf/4.5.2/../../../../powerpc64-ps3-elf/lib\libc.a(lib_a-strncmp.o)
 .text.strncmp  0x000000000002dd70      0x184 c:/psdk3v2/ps3dev/ppu/bin/../lib/gcc/powerpc64-ps3-elf/4.5.2/../../../../powerpc64-ps3-elf/lib\libc.a(lib_a-strncmp.o)
                0x000000000002dd70                .strncmp
 .text          0x000000000002def4        0x0 c:/psdk3v2/ps3dev/ppu/bin/../lib/gcc/powerpc64-ps3-elf/4.5.2/../../../../powerpc64-ps3-elf/lib\libc.a(lib_a-svfiprintf.o)
 *fill*         0x000000000002def4        0x4 60000000
 .text.__ssprint_r
                0x000000000002def8      0x300 c:/psdk3v2/ps3dev/ppu/bin/../lib/gcc/powerpc64-ps3-elf/4.5.2/../../../../powerpc64-ps3-elf/lib\libc.a(lib_a-svfiprintf.o)
                0x000000000002def8                .__ssprint_r
 .text._svfiprintf_r
                0x000000000002e1f8     0x1064 c:/psdk3v2/ps3dev/ppu/bin/../lib/gcc/powerpc64-ps3-elf/4.5.2/../../../../powerpc64-ps3-elf/lib\libc.a(lib_a-svfiprintf.o)
                0x000000000002e1f8                ._svfiprintf_r
 .text          0x000000000002f25c        0x0 c:/psdk3v2/ps3dev/ppu/bin/../lib/gcc/powerpc64-ps3-elf/4.5.2/../../../../powerpc64-ps3-elf/lib\libc.a(lib_a-abort.o)
 *fill*         0x000000000002f25c        0x4 60000000
 .text.abort    0x000000000002f260       0x30 c:/psdk3v2/ps3dev/ppu/bin/../lib/gcc/powerpc64-ps3-elf/4.5.2/../../../../powerpc64-ps3-elf/lib\libc.a(lib_a-abort.o)
                0x000000000002f260                .abort
 .text          0x000000000002f290        0x0 c:/psdk3v2/ps3dev/ppu/bin/../lib/gcc/powerpc64-ps3-elf/4.5.2/../../../../powerpc64-ps3-elf/lib\libc.a(lib_a-callocr.o)
 .text._calloc_r
                0x000000000002f290       0xe8 c:/psdk3v2/ps3dev/ppu/bin/../lib/gcc/powerpc64-ps3-elf/4.5.2/../../../../powerpc64-ps3-elf/lib\libc.a(lib_a-callocr.o)
                0x000000000002f290                ._calloc_r
 .text          0x000000000002f378        0x0 c:/psdk3v2/ps3dev/ppu/bin/../lib/gcc/powerpc64-ps3-elf/4.5.2/../../../../powerpc64-ps3-elf/lib\libc.a(lib_a-memmove.o)
 .text.memmove  0x000000000002f378      0x130 c:/psdk3v2/ps3dev/ppu/bin/../lib/gcc/powerpc64-ps3-elf/4.5.2/../../../../powerpc64-ps3-elf/lib\libc.a(lib_a-memmove.o)
                0x000000000002f378                .memmove
 .text          0x000000000002f4a8        0x0 c:/psdk3v2/ps3dev/ppu/bin/../lib/gcc/powerpc64-ps3-elf/4.5.2/../../../../powerpc64-ps3-elf/lib\libc.a(lib_a-signal.o)
 .text._init_signal_r
                0x000000000002f4a8       0x84 c:/psdk3v2/ps3dev/ppu/bin/../lib/gcc/powerpc64-ps3-elf/4.5.2/../../../../powerpc64-ps3-elf/lib\libc.a(lib_a-signal.o)
                0x000000000002f4a8                ._init_signal_r
 *fill*         0x000000000002f52c        0x4 60000000
 .text._signal_r
                0x000000000002f530       0x9c c:/psdk3v2/ps3dev/ppu/bin/../lib/gcc/powerpc64-ps3-elf/4.5.2/../../../../powerpc64-ps3-elf/lib\libc.a(lib_a-signal.o)
                0x000000000002f530                ._signal_r
 *fill*         0x000000000002f5cc        0x4 60000000
 .text._raise_r
                0x000000000002f5d0      0x114 c:/psdk3v2/ps3dev/ppu/bin/../lib/gcc/powerpc64-ps3-elf/4.5.2/../../../../powerpc64-ps3-elf/lib\libc.a(lib_a-signal.o)
                0x000000000002f5d0                ._raise_r
 *fill*         0x000000000002f6e4        0x4 60000000
 .text.__sigtramp_r
                0x000000000002f6e8       0xd0 c:/psdk3v2/ps3dev/ppu/bin/../lib/gcc/powerpc64-ps3-elf/4.5.2/../../../../powerpc64-ps3-elf/lib\libc.a(lib_a-signal.o)
                0x000000000002f6e8                .__sigtramp_r
 .text.raise    0x000000000002f7b8       0x40 c:/psdk3v2/ps3dev/ppu/bin/../lib/gcc/powerpc64-ps3-elf/4.5.2/../../../../powerpc64-ps3-elf/lib\libc.a(lib_a-signal.o)
                0x000000000002f7b8                .raise
 .text.signal   0x000000000002f7f8       0x50 c:/psdk3v2/ps3dev/ppu/bin/../lib/gcc/powerpc64-ps3-elf/4.5.2/../../../../powerpc64-ps3-elf/lib\libc.a(lib_a-signal.o)
                0x000000000002f7f8                .signal
 .text._init_signal
                0x000000000002f848       0x30 c:/psdk3v2/ps3dev/ppu/bin/../lib/gcc/powerpc64-ps3-elf/4.5.2/../../../../powerpc64-ps3-elf/lib\libc.a(lib_a-signal.o)
                0x000000000002f848                ._init_signal
 .text.__sigtramp
                0x000000000002f878       0x40 c:/psdk3v2/ps3dev/ppu/bin/../lib/gcc/powerpc64-ps3-elf/4.5.2/../../../../powerpc64-ps3-elf/lib\libc.a(lib_a-signal.o)
                0x000000000002f878                .__sigtramp
 .text          0x000000000002f8b8        0x0 c:/psdk3v2/ps3dev/ppu/bin/../lib/gcc/powerpc64-ps3-elf/4.5.2/../../../../powerpc64-ps3-elf/lib\libsysbase.a(close.o)
 .text._close_r
                0x000000000002f8b8       0x6c c:/psdk3v2/ps3dev/ppu/bin/../lib/gcc/powerpc64-ps3-elf/4.5.2/../../../../powerpc64-ps3-elf/lib\libsysbase.a(close.o)
                0x000000000002f8b8                ._close_r
 .text          0x000000000002f924        0x0 c:/psdk3v2/ps3dev/ppu/bin/../lib/gcc/powerpc64-ps3-elf/4.5.2/../../../../powerpc64-ps3-elf/lib\libsysbase.a(sbrk.o)
 *fill*         0x000000000002f924        0x4 60000000
 .text._sbrk_r  0x000000000002f928       0x78 c:/psdk3v2/ps3dev/ppu/bin/../lib/gcc/powerpc64-ps3-elf/4.5.2/../../../../powerpc64-ps3-elf/lib\libsysbase.a(sbrk.o)
                0x000000000002f928                ._sbrk_r
 .text          0x000000000002f9a0        0x0 c:/psdk3v2/ps3dev/ppu/bin/../lib/gcc/powerpc64-ps3-elf/4.5.2/../../../../powerpc64-ps3-elf/lib\libsysbase.a(_exit.o)
 .text._exit    0x000000000002f9a0       0x48 c:/psdk3v2/ps3dev/ppu/bin/../lib/gcc/powerpc64-ps3-elf/4.5.2/../../../../powerpc64-ps3-elf/lib\libsysbase.a(_exit.o)
                0x000000000002f9a0                ._exit
 .text          0x000000000002f9e8        0x0 c:/psdk3v2/ps3dev/ppu/bin/../lib/gcc/powerpc64-ps3-elf/4.5.2/../../../../powerpc64-ps3-elf/lib\libsysbase.a(lseek.o)
 .text._lseek_r
                0x000000000002f9e8       0x6c c:/psdk3v2/ps3dev/ppu/bin/../lib/gcc/powerpc64-ps3-elf/4.5.2/../../../../powerpc64-ps3-elf/lib\libsysbase.a(lseek.o)
                0x000000000002f9e8                ._lseek_r
 .text          0x000000000002fa54        0x0 c:/psdk3v2/ps3dev/ppu/bin/../lib/gcc/powerpc64-ps3-elf/4.5.2/../../../../powerpc64-ps3-elf/lib\libsysbase.a(read.o)
 *fill*         0x000000000002fa54        0x4 60000000
 .text._read_r  0x000000000002fa58       0x6c c:/psdk3v2/ps3dev/ppu/bin/../lib/gcc/powerpc64-ps3-elf/4.5.2/../../../../powerpc64-ps3-elf/lib\libsysbase.a(read.o)
                0x000000000002fa58                ._read_r
 .text          0x000000000002fac4        0x0 c:/psdk3v2/ps3dev/ppu/bin/../lib/gcc/powerpc64-ps3-elf/4.5.2/../../../../powerpc64-ps3-elf/lib\libsysbase.a(write.o)
 *fill*         0x000000000002fac4        0x4 60000000
 .text._write_r
                0x000000000002fac8       0x6c c:/psdk3v2/ps3dev/ppu/bin/../lib/gcc/powerpc64-ps3-elf/4.5.2/../../../../powerpc64-ps3-elf/lib\libsysbase.a(write.o)
                0x000000000002fac8                ._write_r
 .text          0x000000000002fb34        0x0 c:/psdk3v2/ps3dev/ppu/bin/../lib/gcc/powerpc64-ps3-elf/4.5.2/../../../../powerpc64-ps3-elf/lib\libsysbase.a(lock.o)
 *fill*         0x000000000002fb34        0x4 60000000
 .text.sys_lwmutex_create
                0x000000000002fb38       0x94 c:/psdk3v2/ps3dev/ppu/bin/../lib/gcc/powerpc64-ps3-elf/4.5.2/../../../../powerpc64-ps3-elf/lib\libsysbase.a(lock.o)
                0x000000000002fb38                .sys_lwmutex_create
 *fill*         0x000000000002fbcc        0x4 60000000
 .text.sys_lwmutex_destroy
                0x000000000002fbd0       0x84 c:/psdk3v2/ps3dev/ppu/bin/../lib/gcc/powerpc64-ps3-elf/4.5.2/../../../../powerpc64-ps3-elf/lib\libsysbase.a(lock.o)
                0x000000000002fbd0                .sys_lwmutex_destroy
 *fill*         0x000000000002fc54        0x4 60000000
 .text.sys_lwmutex_lock
                0x000000000002fc58       0x94 c:/psdk3v2/ps3dev/ppu/bin/../lib/gcc/powerpc64-ps3-elf/4.5.2/../../../../powerpc64-ps3-elf/lib\libsysbase.a(lock.o)
                0x000000000002fc58                .sys_lwmutex_lock
 *fill*         0x000000000002fcec        0x4 60000000
 .text.sys_lwmutex_trylock
                0x000000000002fcf0       0x84 c:/psdk3v2/ps3dev/ppu/bin/../lib/gcc/powerpc64-ps3-elf/4.5.2/../../../../powerpc64-ps3-elf/lib\libsysbase.a(lock.o)
                0x000000000002fcf0                .sys_lwmutex_trylock
 *fill*         0x000000000002fd74        0x4 60000000
 .text.sys_lwmutex_unlock
                0x000000000002fd78       0x84 c:/psdk3v2/ps3dev/ppu/bin/../lib/gcc/powerpc64-ps3-elf/4.5.2/../../../../powerpc64-ps3-elf/lib\libsysbase.a(lock.o)
                0x000000000002fd78                .sys_lwmutex_unlock
 .text          0x000000000002fdfc        0x0 c:/psdk3v2/ps3dev/ppu/bin/../lib/gcc/powerpc64-ps3-elf/4.5.2/../../../../powerpc64-ps3-elf/lib\libsysbase.a(getpid.o)
 *fill*         0x000000000002fdfc        0x4 60000000
 .text._getpid_r
                0x000000000002fe00       0x6c c:/psdk3v2/ps3dev/ppu/bin/../lib/gcc/powerpc64-ps3-elf/4.5.2/../../../../powerpc64-ps3-elf/lib\libsysbase.a(getpid.o)
                0x000000000002fe00                ._getpid_r
 .text          0x000000000002fe6c        0x0 c:/psdk3v2/ps3dev/ppu/bin/../lib/gcc/powerpc64-ps3-elf/4.5.2/../../../../powerpc64-ps3-elf/lib\libsysbase.a(kill.o)
 *fill*         0x000000000002fe6c        0x4 60000000
 .text._kill_r  0x000000000002fe70       0x1c c:/psdk3v2/ps3dev/ppu/bin/../lib/gcc/powerpc64-ps3-elf/4.5.2/../../../../powerpc64-ps3-elf/lib\libsysbase.a(kill.o)
                0x000000000002fe70                ._kill_r
 .text          0x000000000002fe8c        0x0 c:/psdk3v2/ps3dev/ppu/bin/../lib/gcc/powerpc64-ps3-elf/4.5.2/crtend.o
 *fill*         0x000000000002fe8c        0x4 60000000
 .text.__do_global_ctors_aux
                0x000000000002fe90       0x64 c:/psdk3v2/ps3dev/ppu/bin/../lib/gcc/powerpc64-ps3-elf/4.5.2/crtend.o
 .text          0x000000000002fef4        0x0 c:/psdk3v2/ps3dev/ppu/bin/../lib/gcc/powerpc64-ps3-elf/4.5.2/../../../../powerpc64-ps3-elf/lib/lv2-crtn.o
 *(.text.*personality*)
 *(.gnu.warning)
 *(.sfpr .glink)
 .sfpr          0x0000000000000000        0x0 linker stubs
 *fill*         0x000000000002fef4        0x0 60000000
 .glink         0x0000000000000000        0x0 linker stubs

.fini           0x000000000002fef4       0x2c
 *(.fini)
 .fini          0x000000000002fef4        0xc c:/psdk3v2/ps3dev/ppu/bin/../lib/gcc/powerpc64-ps3-elf/4.5.2/../../../../powerpc64-ps3-elf/lib/lv2-crti.o
                0x000000000002fef4                ._fini
 .fini          0x000000000002ff00        0x8 c:/psdk3v2/ps3dev/ppu/bin/../lib/gcc/powerpc64-ps3-elf/4.5.2/crtbegin.o
 .fini          0x000000000002ff08        0x8 c:/PSDK3v2/psl1ght/ppu/lib\librt.a(sbrk.o)
 .fini          0x000000000002ff10       0x10 c:/psdk3v2/ps3dev/ppu/bin/../lib/gcc/powerpc64-ps3-elf/4.5.2/../../../../powerpc64-ps3-elf/lib/lv2-crtn.o

.sceStub.text   0x000000000002ff20     0x5d40
 *(.sceStub.text)
 .sceStub.text  0x000000000002ff20     0x1640 c:/PSDK3v2/psl1ght/ppu/lib\libgcm_sys.a(sprx.o)
                0x000000000002ff20                .gcmInitBody
                0x000000000002ff20                __gcmInitBody
                0x000000000002ff60                .gcmSetDisplayBuffer
                0x000000000002ff60                __gcmSetDisplayBuffer
                0x000000000002ffa0                __gcmGetControlRegister
                0x000000000002ffa0                .gcmGetControlRegister
                0x000000000002ffe0                __gcmAddressToOffset
                0x000000000002ffe0                .gcmAddressToOffset
                0x0000000000030020                __gcmGetConfiguration
                0x0000000000030020                .gcmGetConfiguration
                0x0000000000030060                __gcmGetCurrentField
                0x00000000000300a0                .gcmSetFlipMode
                0x00000000000300a0                __gcmSetFlipMode
                0x00000000000300e0                .gcmGetFlipStatus
                0x00000000000300e0                __gcmGetFlipStatus
                0x0000000000030120                __gcmGetLastFlipTime
                0x0000000000030160                __gcmGetVBlankCount
                0x00000000000301a0                .gcmSetWaitFlip
                0x00000000000301a0                __gcmSetWaitFlip
                0x00000000000301e0                __gcmSetFlipStatus
                0x0000000000030220                .gcmResetFlipStatus
                0x0000000000030220                __gcmResetFlipStatus
                0x0000000000030260                .gcmSetFlip
                0x0000000000030260                __gcmSetFlip
                0x00000000000302a0                __gcmSetFlipImmediate
                0x00000000000302e0                __gcmFunc15
                0x0000000000030320                __gcmFunc3
                0x0000000000030360                __gcmFunc1
                0x00000000000303a0                __gcmFunc2
                0x00000000000303e0                __gcmFunc4
                0x0000000000030420                __gcmFunc12
                0x0000000000030460                __gcmFunc13
                0x00000000000304a0                __gcmGetReport
                0x00000000000304e0                __gcmSetTile
                0x0000000000030520                __gcmBindTile
                0x0000000000030560                __gcmUnbindTile
                0x00000000000305a0                __gcmSetZcull
                0x00000000000305e0                __gcmBindZcull
                0x0000000000030620                __gcmUnbindZcull
                0x0000000000030660                __gcmGetTimeStamp
                0x00000000000306a0                __gcmSetVBlankFrequency
                0x00000000000306e0                __gcmSetSecondVFrequency
                0x0000000000030720                __gcmSetDebugOutputLevel
                0x0000000000030760                __gcmGetLabelAddress
                0x00000000000307a0                __gcmSetVBlankHandlerEx
                0x00000000000307e0                __gcmSetFlipHandlerEx
                0x0000000000030820                __gcmSetSecondVHandlerEx
                0x0000000000030860                __gcmSetGraphicsHandlerEx
                0x00000000000308a0                __gcmTerminate
                0x00000000000308e0                __gcmMapMainMemory
                0x0000000000030920                __gcmMapEaIoAddress
                0x0000000000030960                __gcmUnmapEaIoAddress
                0x00000000000309a0                __gcmUnmapIoAddress
                0x00000000000309e0                __gcmIoOffsetToAddress
                0x0000000000030a20                __gcmSetDefaultCommandBuffer
                0x0000000000030a60                __gcmSetTileInfo
                0x0000000000030aa0                __gcmGetTiledPitchSize
                0x0000000000030ae0                __gcmSetInvalidateTile
                0x0000000000030b20                __gcmSetUserCommandEx
                0x0000000000030b60                __gcmSetUserHandlerEx
                0x0000000000030ba0                __gcmSetQueueHandlerEx
                0x0000000000030be0                __gcmSetPrepareFlip
                0x0000000000030c20                __gcmGetOffsetTable
                0x0000000000030c60                __gcmGetLastSecondVTime
                0x0000000000030ca0                __gcmSortRemapEaIoAddress
                0x0000000000030ce0                __gcmGetDisplayBufferByFlipIndex
                0x0000000000030d20                __gcmGcmGetDefaultCommandWordSize
                0x0000000000030d60                __gcmGcmGetDefaultSegmentWordSize
                0x0000000000030da0                __gcmSetDefaultCommandBufferAndSegmentWordSize
                0x0000000000030de0                __gcmGetDisplayInfo
                0x0000000000030e20                __gcmDumpGraphicsError
                0x0000000000030e60                __gcmFunc38
                0x0000000000030ea0                __gcmGetCurrentDisplayBufferId
                0x0000000000030ee0                __gcmGetDefaultCommandWordSize
                0x0000000000030f20                __gcmGetDefaultSegmentWordSize
                0x0000000000030f60                __gcmGetMaxIoMapSize
                0x0000000000030fa0                __gcmGetNotifyDataAddress
                0x0000000000030fe0                __gcmGetReportDataAddress
                0x0000000000031020                __gcmGetReportDataAddressLocation
                0x0000000000031060                __gcmGetReportDataLocation
                0x00000000000310a0                __gcmGetTileInfo
                0x00000000000310e0                __gcmGetTimeStampLocation
                0x0000000000031120                __gcmGetZcullInfo
                0x0000000000031160                __gcmInitCursor
                0x00000000000311a0                __gcmInitDefaultFifoMode
                0x00000000000311e0                __gcmInitSystemMode
                0x0000000000031220                __gcmMapEaIoAddressWithFlags
                0x0000000000031260                __gcmMapLocalMemory
                0x00000000000312a0                __gcmReserveIoMapSize
                0x00000000000312e0                __gcmSetCursorDisable
                0x0000000000031320                __gcmSetCursorEnable
                0x0000000000031360                __gcmSetCursorImageOffset
                0x00000000000313a0                __gcmSetCursorPosition
                0x00000000000313e0                __gcmSetDefaultFifoSize
                0x0000000000031420                __gcmSetFlipCommand
                0x0000000000031460                __gcmSetFlipCommandWithWaitLabel
                0x00000000000314a0                __gcmSysGetLastVBlankTime
                0x00000000000314e0                __gcmUnreserveIoMapSize
                0x0000000000031520                __gcmUpdateCursor
 .sceStub.text  0x0000000000031560      0xbc0 c:/PSDK3v2/psl1ght/ppu/lib\libio.a(sprx.o)
                0x0000000000031560                __sys_config_start
                0x00000000000315a0                __sys_config_stop
                0x00000000000315e0                __sys_config_add_service_listener
                0x0000000000031620                __sys_config_remove_service_listener
                0x0000000000031660                __sys_config_register_service
                0x00000000000316a0                __sys_config_unregister_service
                0x00000000000316e0                __ioPadInit
                0x00000000000316e0                .ioPadInit
                0x0000000000031720                __ioPadEnd
                0x0000000000031760                __ioPadClearBuf
                0x00000000000317a0                __ioPadInfoPressMode
                0x00000000000317e0                __ioPadLddRegisterController
                0x0000000000031820                __ioPadGetInfo
                0x0000000000031820                .ioPadGetInfo
                0x0000000000031860                __ioPadGetRawData
                0x00000000000318a0                __ioPadGetDataExtra
                0x00000000000318e0                __ioPadInfoSensorMode
                0x0000000000031920                .ioPadGetData
                0x0000000000031920                __ioPadGetData
                0x0000000000031960                __ioPadLddGetPortNo
                0x00000000000319a0                __ioPadLddDataInsert
                0x00000000000319e0                __ioPadSetSensorMode
                0x0000000000031a20                __ioPadGetCapabilityInfo
                0x0000000000031a60                __ioPadLddUnregisterController
                0x0000000000031aa0                __ioPadSetActDirect
                0x0000000000031ae0                __ioPadSetPressMode
                0x0000000000031b20                __ioPadPeriphGetInfo
                0x0000000000031b60                __ioPadSetPortSetting
                0x0000000000031ba0                __ioPadPeriphGetData
                0x0000000000031be0                __ioPadGetInfo2
                0x0000000000031c20                __ioMouseInit
                0x0000000000031c60                __ioMouseEnd
                0x0000000000031ca0                __ioMouseClearBuf
                0x0000000000031ce0                __ioMouseGetInfo
                0x0000000000031d20                __ioMouseGetTabletDataList
                0x0000000000031d60                __ioMouseSetTabletMode
                0x0000000000031da0                __ioMouseGetData
                0x0000000000031de0                __ioMouseInfoTabletMode
                0x0000000000031e20                __ioMouseGetRawData
                0x0000000000031e60                __ioMouseGetDataList
                0x0000000000031ea0                __ioKbInit
                0x0000000000031ee0                __ioKbEnd
                0x0000000000031f20                __ioKbRead
                0x0000000000031f60                __ioKbSetReadMode
                0x0000000000031fa0                __ioKbSetCodeType
                0x0000000000031fe0                __ioKbCnvRawCode
                0x0000000000032020                __ioKbSetLEDStatus
                0x0000000000032060                __ioKbGetInfo
                0x00000000000320a0                __ioKbGetConfiguration
                0x00000000000320e0                __ioKbClearBuf
 .sceStub.text  0x0000000000032120     0x1400 c:/PSDK3v2/psl1ght/ppu/lib\libsysutil.a(sprx.o)
                0x0000000000032120                __videoGetResolution
                0x0000000000032120                .videoGetResolution
                0x0000000000032160                .videoConfigure
                0x0000000000032160                __videoConfigure
                0x00000000000321a0                __videoGetState
                0x00000000000321a0                .videoGetState
                0x00000000000321e0                __videoGetDeviceInfo
                0x0000000000032220                __videoGetConfiguration
                0x0000000000032260                __videoGetResolutionAvailability
                0x00000000000322a0                __videoDebugSetMonitorType
                0x00000000000322e0                __videoRegisterCallbackEx
                0x0000000000032320                __videoUnregisterCallback
                0x0000000000032360                __videoGetNumberOfDevice
                0x00000000000323a0                __videoGetConvertCursorColorInfo
                0x00000000000323e0                __msgDialogClose
                0x0000000000032420                __msgDialogOpenErrorCodeEx
                0x0000000000032420                .msgDialogOpenErrorCodeEx
                0x0000000000032460                __msgDialogOpenEx
                0x0000000000032460                .msgDialogOpenEx
                0x00000000000324a0                __msgDialogProgressBarInc
                0x00000000000324e0                __msgDialogAbort
                0x0000000000032520                __msgDialogOpen2Ex
                0x0000000000032520                .msgDialogOpen2Ex
                0x0000000000032560                __msgDialogProgressBarReset
                0x00000000000325a0                __msgDialogProgressBarSetMsg
                0x00000000000325e0                __oskGetInputText
                0x0000000000032620                __oskSetInitialInputDevice
                0x0000000000032660                __oskGetSize
                0x00000000000326a0                __oskUnloadAsync
                0x00000000000326e0                __oskDisableDimmer
                0x0000000000032720                __oskSetKeyLayoutOption
                0x0000000000032760                __oskAbort
                0x00000000000327a0                __oskSetDeviceMask
                0x00000000000327e0                __oskSetSeparateWindowOption
                0x0000000000032820                __oskAddSupportLanguage
                0x0000000000032860                __oskLoadAsync
                0x00000000000328a0                __oskSetInitialKeyLayout
                0x00000000000328e0                __oskSetLayoutMode
                0x0000000000032920                .sysUtilRegisterCallbackEx
                0x0000000000032920                __sysUtilRegisterCallbackEx
                0x0000000000032960                __sysUtilCheckCallback
                0x0000000000032960                .sysUtilCheckCallback
                0x00000000000329a0                __sysUtilUnregisterCallback
                0x00000000000329a0                .sysUtilUnregisterCallback
                0x00000000000329e0                .sysSaveListLoad2Ex
                0x00000000000329e0                __sysSaveListLoad2Ex
                0x0000000000032a20                .sysSaveListSave2Ex
                0x0000000000032a20                __sysSaveListSave2Ex
                0x0000000000032a60                .sysSaveListAutoLoadEx
                0x0000000000032a60                __sysSaveListAutoLoadEx
                0x0000000000032aa0                __sysSaveListAutoSaveEx
                0x0000000000032aa0                .sysSaveListAutoSaveEx
                0x0000000000032ae0                .sysSaveFixedLoad2Ex
                0x0000000000032ae0                __sysSaveFixedLoad2Ex
                0x0000000000032b20                .sysSaveFixedSave2Ex
                0x0000000000032b20                __sysSaveFixedSave2Ex
                0x0000000000032b60                __sysSaveAutoLoad2Ex
                0x0000000000032b60                .sysSaveAutoLoad2Ex
                0x0000000000032ba0                .sysSaveAutoSave2Ex
                0x0000000000032ba0                __sysSaveAutoSave2Ex
                0x0000000000032be0                __sysSaveDelete2
                0x0000000000032c20                __sysGameDataCheck
                0x0000000000032c60                __sysGameBootCheck
                0x0000000000032ca0                __sysGamePatchCheck
                0x0000000000032ce0                __sysGameCreateGameData
                0x0000000000032d20                __sysGameGetParamInt
                0x0000000000032d60                __sysGameGetParamString
                0x0000000000032da0                __sysGameGetSizeKB
                0x0000000000032de0                __sysGameSetParamString
                0x0000000000032e20                __sysGameGetDiscContentInfoUpdatePath
                0x0000000000032e60                __sysGameContentPermit
                0x0000000000032ea0                __sysGameContentErrorDialog
                0x0000000000032ee0                __sysGameThemeInstall
                0x0000000000032f20                .sysGameThemeInstallFromBufferEx
                0x0000000000032f20                __sysGameThemeInstallFromBufferEx
                0x0000000000032f60                __sysGameGetLocalWebContentPath
                0x0000000000032fa0                __sysGameDeleteGameData
                0x0000000000032fe0                __sysGameRegisterDiscChangeCallbackEx
                0x0000000000033020                __sysGameUnregisterDiscChangeCallback
                0x0000000000033060                .sysDiscRegisterDiscChangeCallbackEx
                0x0000000000033060                __sysDiscRegisterDiscChangeCallbackEx
                0x00000000000330a0                __sysDiscUnregisterDiscChangeCallback
                0x00000000000330e0                __sysTrophyInit
                0x0000000000033120                __sysTrophyAbortHandle
                0x0000000000033160                __sysTrophyCreateContext
                0x00000000000331a0                __sysTrophyCreateHandle
                0x00000000000331e0                __sysTrophyDestroyContext
                0x0000000000033220                __sysTrophyDestroyHandle
                0x0000000000033260                __sysTrophyGetGameIcon
                0x00000000000332a0                __sysTrophyGetGameInfo
                0x00000000000332e0                __sysTrophyGetGameProgress
                0x0000000000033320                __sysTrophyGetRequiredDiskSpace
                0x0000000000033360                __sysTrophyGetTrophyIcon
                0x00000000000333a0                __sysTrophyGetTrophyInfo
                0x00000000000333e0                __sysTrophyGetTrophyUnlockState
                0x0000000000033420                __sysTrophyRegisterContextEx
                0x0000000000033460                __sysTrophySetSoundLevel
                0x00000000000334a0                __sysTrophyTerm
                0x00000000000334e0                __sysTrophyUnlockTrophy
 .sceStub.text  0x0000000000033520     0x1e00 c:/PSDK3v2/psl1ght/ppu/lib\liblv2.a(sprx.o)
                0x0000000000033520                __sysGetSystemTime
                0x0000000000033560                __sysGetSystemSwVersion
                0x00000000000335a0                __sysGetTemperature
                0x00000000000335e0                __sysGetRandomNumber
                0x0000000000033620                __sysGetRtcStatus
                0x0000000000033660                __sysBoardStorageRead
                0x00000000000336a0                __sysBoardStorageWrite
                0x00000000000336e0                __sysProcessIsStack
                0x0000000000033720                .sysProcessExit
                0x0000000000033720                __sysProcessExit
                0x0000000000033760                __sysProcessExitspawn
                0x00000000000337a0                __sysProcessExitSpawn2Ex
                0x00000000000337e0                __sysProcessExitSpawnWithLevel
                0x0000000000033820                __sysProcessAtExitSpawn
                0x0000000000033860                __sysProcess_At_ExitSpawn
                0x00000000000338a0                ___sys_process_atexitspawn
                0x00000000000338e0                __sysPrxRegisterLibrary
                0x0000000000033920                __sysPrxUnregisterLibrary
                0x0000000000033960                __sysPrxStartModule
                0x00000000000339a0                __sysPrxStopModule
                0x00000000000339e0                __sysPrxLoadModule
                0x0000000000033a20                __sysPrxLoadModuleByFd
                0x0000000000033a60                __sysPrxLoadModuleList
                0x0000000000033aa0                __sysPrxLoadModuleListOnMemcontainer
                0x0000000000033ae0                __sysPrxLoadModuleOnMemcontainer
                0x0000000000033b20                __sysPrxLoadModuleOnMemcontainerByFd
                0x0000000000033b60                __sysPrxGetModuleInfo
                0x0000000000033ba0                __sysPrxGetModuleList
                0x0000000000033be0                __sysPrxGetModuleId
                0x0000000000033c20                __sysPrxGetModuleIdByAddress
                0x0000000000033c60                __sysPrxGetModuleIdByName
                0x0000000000033ca0                __sysPrxUnloadModule
                0x0000000000033ce0                __sysPrxExitSpawnWithLevel
                0x0000000000033d20                __sysThreadCreateEx
                0x0000000000033d60                __sysThreadExit
                0x0000000000033da0                __sysThreadGetId
                0x0000000000033de0                __sysThreadOnce
                0x0000000000033e20                __sysThreadInitialzeTLS
                0x0000000000033e60                __sysThreadRegisterAtexit
                0x0000000000033ea0                __sysThreadUnregisterAtexit
                0x0000000000033ee0                __sysInterruptThreadDisestablish
                0x0000000000033f20                .sysLwMutexCreate
                0x0000000000033f20                __sysLwMutexCreate
                0x0000000000033f60                .sysLwMutexDestroy
                0x0000000000033f60                __sysLwMutexDestroy
                0x0000000000033fa0                .sysLwMutexLock
                0x0000000000033fa0                __sysLwMutexLock
                0x0000000000033fe0                .sysLwMutexTryLock
                0x0000000000033fe0                __sysLwMutexTryLock
                0x0000000000034020                .sysLwMutexUnlock
                0x0000000000034020                __sysLwMutexUnlock
                0x0000000000034060                __sysLwCondCreate
                0x00000000000340a0                __sysLwCondWait
                0x00000000000340e0                __sysLwCondSignal
                0x0000000000034120                __sysLwCondSignalTo
                0x0000000000034160                __sysLwCondSignalAll
                0x00000000000341a0                __sysLwCondDestroy
                0x00000000000341e0                .sysSpinlockInitialize
                0x00000000000341e0                __sysSpinlockInitialize
                0x0000000000034220                .sysSpinlockLock
                0x0000000000034220                __sysSpinlockLock
                0x0000000000034260                __sysSpinlockTryLock
                0x00000000000342a0                .sysSpinlockUnlock
                0x00000000000342a0                __sysSpinlockUnlock
                0x00000000000342e0                __sysWatchdogClear
                0x0000000000034320                __sysWatchdogStart
                0x0000000000034360                __sysWatchdogStop
                0x00000000000343a0                __sysMalloc
                0x00000000000343e0                __sysMemalign
                0x0000000000034420                __sysMemchr
                0x0000000000034460                __sysMemcmp
                0x00000000000344a0                __sysMemcpy
                0x00000000000344e0                __sysMemmove
                0x0000000000034520                __sysMemset
                0x0000000000034560                __sysFree
                0x00000000000345a0                __sysHeapAllocHeapMemory
                0x00000000000345e0                __sysHeapCreateHeap
                0x0000000000034620                __sysHeapDeleteHeap
                0x0000000000034660                __sysHeapFree
                0x00000000000346a0                __sysHeapGetMallInfo
                0x00000000000346e0                __sysHeapGetTotalFreeSize
                0x0000000000034720                __sysHeapMalloc
                0x0000000000034760                __sysHeapMemalign
                0x00000000000347a0                __sysHeapStats
                0x00000000000347e0                __sysQsort
                0x0000000000034820                __sysMempoolCreate
                0x0000000000034860                __sysMempoolDestroy
                0x00000000000348a0                __sysMempoolGetCount
                0x00000000000348e0                __sysMempoolAllocateBlock
                0x0000000000034920                __sysMempoolTryAllocateBlock
                0x0000000000034960                __sysMempoolFreeBlock
                0x00000000000349a0                __sysMMapperFreeMemory
                0x00000000000349a0                .sysMMapperFreeMemory
                0x00000000000349e0                __sysMMapperMapMemory
                0x0000000000034a20                __sysMMapperUnmapMemory
                0x0000000000034a20                .sysMMapperUnmapMemory
                0x0000000000034a60                __sysMMapperAllocateMemory
                0x0000000000034a60                .sysMMapperAllocateMemory
                0x0000000000034aa0                __sysMMapperAllocateMemoryFromContainer
                0x0000000000034ae0                __sysStrlen
                0x0000000000034b20                __sysStrcpy
                0x0000000000034b60                __sysStrncpy
                0x0000000000034ba0                __sysStrcat
                0x0000000000034be0                __sysStrncat
                0x0000000000034c20                __sysStrchr
                0x0000000000034c60                __sysStrrchr
                0x0000000000034ca0                __sysStrcmp
                0x0000000000034ce0                __sysStrncmp
                0x0000000000034d20                __sysStrncasecmp
                0x0000000000034d60                __sysToLower
                0x0000000000034da0                __sysToUpper
                0x0000000000034de0                __sysSpuElfGetSegments
                0x0000000000034e20                __sysSpuElfGetInformation
                0x0000000000034e60                __sysSpuRawLoad
                0x0000000000034ea0                __sysSpuRawImageLoad
                0x0000000000034ee0                __sysSpuImageClose
                0x0000000000034f20                __sysSpuImageImport
                0x0000000000034f60                __sysSpuPrintfAttachGroup
                0x0000000000034fa0                __sysSpuPrintfAttachThread
                0x0000000000034fe0                __sysSpuPrintfDetachGroup
                0x0000000000035020                __sysSpuPrintfDetach_Tread
                0x0000000000035060                __sysSpuPrintfFinalize
                0x00000000000350a0                __sysSpuPrintfInitialize
                0x00000000000350e0                __sysConsoleGetc
                0x0000000000035120                __sysConsolePutc
                0x0000000000035160                __sysConsoleWrite
                0x00000000000351a0                __sysPrintf
                0x00000000000351e0                __sysSprintf
                0x0000000000035220                __sysSnprintf
                0x0000000000035260                __sysVprintf
                0x00000000000352a0                __sysVsprintf
                0x00000000000352e0                __sysVsnprintf
 .sceStub.text  0x0000000000035320      0x740 c:/PSDK3v2/psl1ght/ppu/lib\libpngdec.a(sprx.o)
                0x0000000000035320                .pngDecCreate
                0x0000000000035320                __pngDecCreate
                0x0000000000035360                __pngDecDestroy
                0x0000000000035360                .pngDecDestroy
                0x00000000000353a0                __pngDecOpen
                0x00000000000353a0                .pngDecOpen
                0x00000000000353e0                __pngDecClose
                0x00000000000353e0                .pngDecClose
                0x0000000000035420                .pngDecReadHeader
                0x0000000000035420                __pngDecReadHeader
                0x0000000000035460                __pngDecDecodeData
                0x0000000000035460                .pngDecDecodeData
                0x00000000000354a0                __pngDecSetParameter
                0x00000000000354a0                .pngDecSetParameter
                0x00000000000354e0                __pngDecExtCreate
                0x0000000000035520                __pngDecExtOpen
                0x0000000000035560                __pngDecExtReadHeader
                0x00000000000355a0                __pngDecExtDecodeData
                0x00000000000355e0                __pngDecExtSetParameter
                0x0000000000035620                __pngDecGetbKGD
                0x0000000000035660                __pngDecGetcHRM
                0x00000000000356a0                __pngDecGetgAMA
                0x00000000000356e0                __pngDecGethIST
                0x0000000000035720                __pngDecGetiCCP
                0x0000000000035760                __pngDecGetoFFs
                0x00000000000357a0                __pngDecGetpCAL
                0x00000000000357e0                __pngDecGetpHYs
                0x0000000000035820                __pngDecGetsBIT
                0x0000000000035860                __pngDecGetsCAL
                0x00000000000358a0                __pngDecGetsPLT
                0x00000000000358e0                __pngDecGetsRGB
                0x0000000000035920                __pngDecGettIME
                0x0000000000035960                __pngDecGettRNS
                0x00000000000359a0                __pngDecGetPLTE
                0x00000000000359e0                __pngDecUnknownChunks
                0x0000000000035a20                __pngDecGetTextChunk
 .sceStub.text  0x0000000000035a60      0x200 c:/PSDK3v2/psl1ght/ppu/lib\libsysmodule.a(sprx.o)
                0x0000000000035a60                __sysModuleInitialize
                0x0000000000035aa0                __sysModuleFinalize
                0x0000000000035ae0                __sysModuleLoad
                0x0000000000035ae0                .sysModuleLoad
                0x0000000000035b20                .sysModuleUnload
                0x0000000000035b20                __sysModuleUnload
                0x0000000000035b60                __sysModuleIsLoaded
                0x0000000000035ba0                __sysModuleGetImagesize
                0x0000000000035be0                __sysModuleFetchImage
                0x0000000000035c20                __sysModuleSetMemcontainer
 *(SORT(.sceStub.text.*))
                0x0000000000035c60                PROVIDE (__etext, .)
                0x0000000000035c60                PROVIDE (_etext, .)
                0x0000000000035c60                PROVIDE (etext, .)

.eh_frame_hdr   0x0000000000035c60        0x0
 *(.eh_frame_hdr)
 .eh_frame_hdr  0x0000000000000000        0x0 c:/psdk3v2/ps3dev/ppu/bin/../lib/gcc/powerpc64-ps3-elf/4.5.2/../../../../powerpc64-ps3-elf/lib/lv2-crtn.o

.eh_frame       0x0000000000035c60        0x4
 *(.eh_frame)
 .eh_frame      0x0000000000035c60        0x0 c:/psdk3v2/ps3dev/ppu/bin/../lib/gcc/powerpc64-ps3-elf/4.5.2/crtbegin.o
 .eh_frame      0x0000000000035c60        0x4 c:/psdk3v2/ps3dev/ppu/bin/../lib/gcc/powerpc64-ps3-elf/4.5.2/crtend.o

.gcc_except_table
 *(.gcc_except_table .gcc_except_table.*)

.rodata.sceResident
                0x0000000000035c64       0x62
 *(.rodata.sceResident)
 .rodata.sceResident
                0x0000000000035c64        0xf c:/PSDK3v2/psl1ght/ppu/lib\libgcm_sys.a(sprx.o)
 *fill*         0x0000000000035c73        0x1 00
 .rodata.sceResident
                0x0000000000035c74        0xb c:/PSDK3v2/psl1ght/ppu/lib\libio.a(sprx.o)
 *fill*         0x0000000000035c7f        0x1 00
 .rodata.sceResident
                0x0000000000035c80       0x10 c:/PSDK3v2/psl1ght/ppu/lib\libsysutil.a(sprx.o)
 .rodata.sceResident
                0x0000000000035c90       0x12 c:/PSDK3v2/psl1ght/ppu/lib\liblv2.a(sprx.o)
 *fill*         0x0000000000035ca2        0x2 00
 .rodata.sceResident
                0x0000000000035ca4        0xf c:/PSDK3v2/psl1ght/ppu/lib\libpngdec.a(sprx.o)
 *fill*         0x0000000000035cb3        0x1 00
 .rodata.sceResident
                0x0000000000035cb4       0x12 c:/PSDK3v2/psl1ght/ppu/lib\libsysmodule.a(sprx.o)

.rodata.sceFNID
                0x0000000000035cc8      0x5d4
 *(.rodata.sceFNID .rodata.sceFNID.*)
 .rodata.sceFNID
                0x0000000000035cc8      0x164 c:/PSDK3v2/psl1ght/ppu/lib\libgcm_sys.a(sprx.o)
                0x0000000000035cc8                gcmInitBody_fnid
                0x0000000000035cc8                cellGcmSys
                0x0000000000035ccc                gcmSetDisplayBuffer_fnid
                0x0000000000035cd0                gcmGetControlRegister_fnid
                0x0000000000035cd4                gcmAddressToOffset_fnid
                0x0000000000035cd8                gcmGetConfiguration_fnid
                0x0000000000035cdc                gcmGetCurrentField_fnid
                0x0000000000035ce0                gcmSetFlipMode_fnid
                0x0000000000035ce4                gcmGetFlipStatus_fnid
                0x0000000000035ce8                gcmGetLastFlipTime_fnid
                0x0000000000035cec                gcmGetVBlankCount_fnid
                0x0000000000035cf0                gcmSetWaitFlip_fnid
                0x0000000000035cf4                gcmSetFlipStatus_fnid
                0x0000000000035cf8                gcmResetFlipStatus_fnid
                0x0000000000035cfc                gcmSetFlip_fnid
                0x0000000000035d00                gcmSetFlipImmediate_fnid
                0x0000000000035d04                gcmFunc15_fnid
                0x0000000000035d08                gcmFunc3_fnid
                0x0000000000035d0c                gcmFunc1_fnid
                0x0000000000035d10                gcmFunc2_fnid
                0x0000000000035d14                gcmFunc4_fnid
                0x0000000000035d18                gcmFunc12_fnid
                0x0000000000035d1c                gcmFunc13_fnid
                0x0000000000035d20                gcmGetReport_fnid
                0x0000000000035d24                gcmSetTile_fnid
                0x0000000000035d28                gcmBindTile_fnid
                0x0000000000035d2c                gcmUnbindTile_fnid
                0x0000000000035d30                gcmSetZcull_fnid
                0x0000000000035d34                gcmBindZcull_fnid
                0x0000000000035d38                gcmUnbindZcull_fnid
                0x0000000000035d3c                gcmGetTimeStamp_fnid
                0x0000000000035d40                gcmSetVBlankFrequency_fnid
                0x0000000000035d44                gcmSetSecondVFrequency_fnid
                0x0000000000035d48                gcmSetDebugOutputLevel_fnid
                0x0000000000035d4c                gcmGetLabelAddress_fnid
                0x0000000000035d50                gcmSetVBlankHandlerEx_fnid
                0x0000000000035d54                gcmSetFlipHandlerEx_fnid
                0x0000000000035d58                gcmSetSecondVHandlerEx_fnid
                0x0000000000035d5c                gcmSetGraphicsHandlerEx_fnid
                0x0000000000035d60                gcmTerminate_fnid
                0x0000000000035d64                gcmMapMainMemory_fnid
                0x0000000000035d68                gcmMapEaIoAddress_fnid
                0x0000000000035d6c                gcmUnmapEaIoAddress_fnid
                0x0000000000035d70                gcmUnmapIoAddress_fnid
                0x0000000000035d74                gcmIoOffsetToAddress_fnid
                0x0000000000035d78                gcmSetDefaultCommandBuffer_fnid
                0x0000000000035d7c                gcmSetTileInfo_fnid
                0x0000000000035d80                gcmGetTiledPitchSize_fnid
                0x0000000000035d84                gcmSetInvalidateTile_fnid
                0x0000000000035d88                gcmSetUserCommandEx_fnid
                0x0000000000035d8c                gcmSetUserHandlerEx_fnid
                0x0000000000035d90                gcmSetQueueHandlerEx_fnid
                0x0000000000035d94                gcmSetPrepareFlip_fnid
                0x0000000000035d98                gcmGetOffsetTable_fnid
                0x0000000000035d9c                gcmGetLastSecondVTime_fnid
                0x0000000000035da0                gcmSortRemapEaIoAddress_fnid
                0x0000000000035da4                gcmGetDisplayBufferByFlipIndex_fnid
                0x0000000000035da8                gcmGcmGetDefaultCommandWordSize_fnid
                0x0000000000035dac                gcmGcmGetDefaultSegmentWordSize_fnid
                0x0000000000035db0                gcmSetDefaultCommandBufferAndSegmentWordSize_fnid
                0x0000000000035db4                gcmGetDisplayInfo_fnid
                0x0000000000035db8                gcmDumpGraphicsError_fnid
                0x0000000000035dbc                gcmFunc38_fnid
                0x0000000000035dc0                gcmGetCurrentDisplayBufferId_fnid
                0x0000000000035dc4                gcmGetDefaultCommandWordSize_fnid
                0x0000000000035dc8                gcmGetDefaultSegmentWordSize_fnid
                0x0000000000035dcc                gcmGetMaxIoMapSize_fnid
                0x0000000000035dd0                gcmGetNotifyDataAddress_fnid
                0x0000000000035dd4                gcmGetReportDataAddress_fnid
                0x0000000000035dd8                gcmGetReportDataAddressLocation_fnid
                0x0000000000035ddc                gcmGetReportDataLocation_fnid
                0x0000000000035de0                gcmGetTileInfo_fnid
                0x0000000000035de4                gcmGetTimeStampLocation_fnid
                0x0000000000035de8                gcmGetZcullInfo_fnid
                0x0000000000035dec                gcmInitCursor_fnid
                0x0000000000035df0                gcmInitDefaultFifoMode_fnid
                0x0000000000035df4                gcmInitSystemMode_fnid
                0x0000000000035df8                gcmMapEaIoAddressWithFlags_fnid
                0x0000000000035dfc                gcmMapLocalMemory_fnid
                0x0000000000035e00                gcmReserveIoMapSize_fnid
                0x0000000000035e04                gcmSetCursorDisable_fnid
                0x0000000000035e08                gcmSetCursorEnable_fnid
                0x0000000000035e0c                gcmSetCursorImageOffset_fnid
                0x0000000000035e10                gcmSetCursorPosition_fnid
                0x0000000000035e14                gcmSetDefaultFifoSize_fnid
                0x0000000000035e18                gcmSetFlipCommand_fnid
                0x0000000000035e1c                gcmSetFlipCommandWithWaitLabel_fnid
                0x0000000000035e20                gcmSysGetLastVBlankTime_fnid
                0x0000000000035e24                gcmUnreserveIoMapSize_fnid
                0x0000000000035e28                gcmUpdateCursor_fnid
 .rodata.sceFNID
                0x0000000000035e2c       0xbc c:/PSDK3v2/psl1ght/ppu/lib\libio.a(sprx.o)
                0x0000000000035e2c                sys_io
                0x0000000000035e2c                sys_config_start_fnid
                0x0000000000035e30                sys_config_stop_fnid
                0x0000000000035e34                sys_config_add_service_listener_fnid
                0x0000000000035e38                sys_config_remove_service_listener_fnid
                0x0000000000035e3c                sys_config_register_service_fnid
                0x0000000000035e40                sys_config_unregister_service_fnid
                0x0000000000035e44                ioPadInit_fnid
                0x0000000000035e48                ioPadEnd_fnid
                0x0000000000035e4c                ioPadClearBuf_fnid
                0x0000000000035e50                ioPadInfoPressMode_fnid
                0x0000000000035e54                ioPadLddRegisterController_fnid
                0x0000000000035e58                ioPadGetInfo_fnid
                0x0000000000035e5c                ioPadGetRawData_fnid
                0x0000000000035e60                ioPadGetDataExtra_fnid
                0x0000000000035e64                ioPadInfoSensorMode_fnid
                0x0000000000035e68                ioPadGetData_fnid
                0x0000000000035e6c                ioPadLddGetPortNo_fnid
                0x0000000000035e70                ioPadLddDataInsert_fnid
                0x0000000000035e74                ioPadSetSensorMode_fnid
                0x0000000000035e78                ioPadGetCapabilityInfo_fnid
                0x0000000000035e7c                ioPadLddUnregisterController_fnid
                0x0000000000035e80                ioPadSetActDirect_fnid
                0x0000000000035e84                ioPadSetPressMode_fnid
                0x0000000000035e88                ioPadPeriphGetInfo_fnid
                0x0000000000035e8c                ioPadSetPortSetting_fnid
                0x0000000000035e90                ioPadPeriphGetData_fnid
                0x0000000000035e94                ioPadGetInfo2_fnid
                0x0000000000035e98                ioMouseInit_fnid
                0x0000000000035e9c                ioMouseEnd_fnid
                0x0000000000035ea0                ioMouseClearBuf_fnid
                0x0000000000035ea4                ioMouseGetInfo_fnid
                0x0000000000035ea8                ioMouseGetTabletDataList_fnid
                0x0000000000035eac                ioMouseSetTabletMode_fnid
                0x0000000000035eb0                ioMouseGetData_fnid
                0x0000000000035eb4                ioMouseInfoTabletMode_fnid
                0x0000000000035eb8                ioMouseGetRawData_fnid
                0x0000000000035ebc                ioMouseGetDataList_fnid
                0x0000000000035ec0                ioKbInit_fnid
                0x0000000000035ec4                ioKbEnd_fnid
                0x0000000000035ec8                ioKbRead_fnid
                0x0000000000035ecc                ioKbSetReadMode_fnid
                0x0000000000035ed0                ioKbSetCodeType_fnid
                0x0000000000035ed4                ioKbCnvRawCode_fnid
                0x0000000000035ed8                ioKbSetLEDStatus_fnid
                0x0000000000035edc                ioKbGetInfo_fnid
                0x0000000000035ee0                ioKbGetConfiguration_fnid
                0x0000000000035ee4                ioKbClearBuf_fnid
 .rodata.sceFNID
                0x0000000000035ee8      0x140 c:/PSDK3v2/psl1ght/ppu/lib\libsysutil.a(sprx.o)
                0x0000000000035ee8                videoGetResolution_fnid
                0x0000000000035ee8                cellSysutil
                0x0000000000035eec                videoConfigure_fnid
                0x0000000000035ef0                videoGetState_fnid
                0x0000000000035ef4                videoGetDeviceInfo_fnid
                0x0000000000035ef8                videoGetConfiguration_fnid
                0x0000000000035efc                videoGetResolutionAvailability_fnid
                0x0000000000035f00                videoDebugSetMonitorType_fnid
                0x0000000000035f04                videoRegisterCallbackEx_fnid
                0x0000000000035f08                videoUnregisterCallback_fnid
                0x0000000000035f0c                videoGetNumberOfDevice_fnid
                0x0000000000035f10                videoGetConvertCursorColorInfo_fnid
                0x0000000000035f14                msgDialogClose_fnid
                0x0000000000035f18                msgDialogOpenErrorCodeEx_fnid
                0x0000000000035f1c                msgDialogOpenEx_fnid
                0x0000000000035f20                msgDialogProgressBarInc_fnid
                0x0000000000035f24                msgDialogAbort_fnid
                0x0000000000035f28                msgDialogOpen2Ex_fnid
                0x0000000000035f2c                msgDialogProgressBarReset_fnid
                0x0000000000035f30                msgDialogProgressBarSetMsg_fnid
                0x0000000000035f34                oskGetInputText_fnid
                0x0000000000035f38                oskSetInitialInputDevice_fnid
                0x0000000000035f3c                oskGetSize_fnid
                0x0000000000035f40                oskUnloadAsync_fnid
                0x0000000000035f44                oskDisableDimmer_fnid
                0x0000000000035f48                oskSetKeyLayoutOption_fnid
                0x0000000000035f4c                oskAbort_fnid
                0x0000000000035f50                oskSetDeviceMask_fnid
                0x0000000000035f54                oskSetSeparateWindowOption_fnid
                0x0000000000035f58                oskAddSupportLanguage_fnid
                0x0000000000035f5c                oskLoadAsync_fnid
                0x0000000000035f60                oskSetInitialKeyLayout_fnid
                0x0000000000035f64                oskSetLayoutMode_fnid
                0x0000000000035f68                sysUtilRegisterCallbackEx_fnid
                0x0000000000035f6c                sysUtilCheckCallback_fnid
                0x0000000000035f70                sysUtilUnregisterCallback_fnid
                0x0000000000035f74                sysSaveListLoad2Ex_fnid
                0x0000000000035f78                sysSaveListSave2Ex_fnid
                0x0000000000035f7c                sysSaveListAutoLoadEx_fnid
                0x0000000000035f80                sysSaveListAutoSaveEx_fnid
                0x0000000000035f84                sysSaveFixedLoad2Ex_fnid
                0x0000000000035f88                sysSaveFixedSave2Ex_fnid
                0x0000000000035f8c                sysSaveAutoLoad2Ex_fnid
                0x0000000000035f90                sysSaveAutoSave2Ex_fnid
                0x0000000000035f94                sysSaveDelete2_fnid
                0x0000000000035f98                sysGameDataCheck_fnid
                0x0000000000035f9c                sysGameBootCheck_fnid
                0x0000000000035fa0                sysGamePatchCheck_fnid
                0x0000000000035fa4                sysGameCreateGameData_fnid
                0x0000000000035fa8                sysGameGetParamInt_fnid
                0x0000000000035fac                sysGameGetParamString_fnid
                0x0000000000035fb0                sysGameGetSizeKB_fnid
                0x0000000000035fb4                sysGameSetParamString_fnid
                0x0000000000035fb8                sysGameGetDiscContentInfoUpdatePath_fnid
                0x0000000000035fbc                sysGameContentPermit_fnid
                0x0000000000035fc0                sysGameContentErrorDialog_fnid
                0x0000000000035fc4                sysGameThemeInstall_fnid
                0x0000000000035fc8                sysGameThemeInstallFromBufferEx_fnid
                0x0000000000035fcc                sysGameGetLocalWebContentPath_fnid
                0x0000000000035fd0                sysGameDeleteGameData_fnid
                0x0000000000035fd4                sysGameRegisterDiscChangeCallbackEx_fnid
                0x0000000000035fd8                sysGameUnregisterDiscChangeCallback_fnid
                0x0000000000035fdc                sysDiscRegisterDiscChangeCallbackEx_fnid
                0x0000000000035fe0                sysDiscUnregisterDiscChangeCallback_fnid
                0x0000000000035fe4                sysTrophyInit_fnid
                0x0000000000035fe8                sysTrophyAbortHandle_fnid
                0x0000000000035fec                sysTrophyCreateContext_fnid
                0x0000000000035ff0                sysTrophyCreateHandle_fnid
                0x0000000000035ff4                sysTrophyDestroyContext_fnid
                0x0000000000035ff8                sysTrophyDestroyHandle_fnid
                0x0000000000035ffc                sysTrophyGetGameIcon_fnid
                0x0000000000036000                sysTrophyGetGameInfo_fnid
                0x0000000000036004                sysTrophyGetGameProgress_fnid
                0x0000000000036008                sysTrophyGetRequiredDiskSpace_fnid
                0x000000000003600c                sysTrophyGetTrophyIcon_fnid
                0x0000000000036010                sysTrophyGetTrophyInfo_fnid
                0x0000000000036014                sysTrophyGetTrophyUnlockState_fnid
                0x0000000000036018                sysTrophyRegisterContextEx_fnid
                0x000000000003601c                sysTrophySetSoundLevel_fnid
                0x0000000000036020                sysTrophyTerm_fnid
                0x0000000000036024                sysTrophyUnlockTrophy_fnid
 .rodata.sceFNID
                0x0000000000036028      0x1e0 c:/PSDK3v2/psl1ght/ppu/lib\liblv2.a(sprx.o)
                0x0000000000036028                sysPrxForUser
                0x0000000000036028                sysGetSystemTime_fnid
                0x000000000003602c                sysGetSystemSwVersion_fnid
                0x0000000000036030                sysGetTemperature_fnid
                0x0000000000036034                sysGetRandomNumber_fnid
                0x0000000000036038                sysGetRtcStatus_fnid
                0x000000000003603c                sysBoardStorageRead_fnid
                0x0000000000036040                sysBoardStorageWrite_fnid
                0x0000000000036044                sysProcessIsStack_fnid
                0x0000000000036048                sysProcessExit_fnid
                0x000000000003604c                sysProcessExitspawn_fnid
                0x0000000000036050                sysProcessExitSpawn2Ex_fnid
                0x0000000000036054                sysProcessExitSpawnWithLevel_fnid
                0x0000000000036058                sysProcessAtExitSpawn_fnid
                0x000000000003605c                sysProcess_At_ExitSpawn_fnid
                0x0000000000036060                _sys_process_atexitspawn_fnid
                0x0000000000036064                sysPrxRegisterLibrary_fnid
                0x0000000000036068                sysPrxUnregisterLibrary_fnid
                0x000000000003606c                sysPrxStartModule_fnid
                0x0000000000036070                sysPrxStopModule_fnid
                0x0000000000036074                sysPrxLoadModule_fnid
                0x0000000000036078                sysPrxLoadModuleByFd_fnid
                0x000000000003607c                sysPrxLoadModuleList_fnid
                0x0000000000036080                sysPrxLoadModuleListOnMemcontainer_fnid
                0x0000000000036084                sysPrxLoadModuleOnMemcontainer_fnid
                0x0000000000036088                sysPrxLoadModuleOnMemcontainerByFd_fnid
                0x000000000003608c                sysPrxGetModuleInfo_fnid
                0x0000000000036090                sysPrxGetModuleList_fnid
                0x0000000000036094                sysPrxGetModuleId_fnid
                0x0000000000036098                sysPrxGetModuleIdByAddress_fnid
                0x000000000003609c                sysPrxGetModuleIdByName_fnid
                0x00000000000360a0                sysPrxUnloadModule_fnid
                0x00000000000360a4                sysPrxExitSpawnWithLevel_fnid
                0x00000000000360a8                sysThreadCreateEx_fnid
                0x00000000000360ac                sysThreadExit_fnid
                0x00000000000360b0                sysThreadGetId_fnid
                0x00000000000360b4                sysThreadOnce_fnid
                0x00000000000360b8                sysThreadInitialzeTLS_fnid
                0x00000000000360bc                sysThreadRegisterAtexit_fnid
                0x00000000000360c0                sysThreadUnregisterAtexit_fnid
                0x00000000000360c4                sysInterruptThreadDisestablish_fnid
                0x00000000000360c8                sysLwMutexCreate_fnid
                0x00000000000360cc                sysLwMutexDestroy_fnid
                0x00000000000360d0                sysLwMutexLock_fnid
                0x00000000000360d4                sysLwMutexTryLock_fnid
                0x00000000000360d8                sysLwMutexUnlock_fnid
                0x00000000000360dc                sysLwCondCreate_fnid
                0x00000000000360e0                sysLwCondWait_fnid
                0x00000000000360e4                sysLwCondSignal_fnid
                0x00000000000360e8                sysLwCondSignalTo_fnid
                0x00000000000360ec                sysLwCondSignalAll_fnid
                0x00000000000360f0                sysLwCondDestroy_fnid
                0x00000000000360f4                sysSpinlockInitialize_fnid
                0x00000000000360f8                sysSpinlockLock_fnid
                0x00000000000360fc                sysSpinlockTryLock_fnid
                0x0000000000036100                sysSpinlockUnlock_fnid
                0x0000000000036104                sysWatchdogClear_fnid
                0x0000000000036108                sysWatchdogStart_fnid
                0x000000000003610c                sysWatchdogStop_fnid
                0x0000000000036110                sysMalloc_fnid
                0x0000000000036114                sysMemalign_fnid
                0x0000000000036118                sysMemchr_fnid
                0x000000000003611c                sysMemcmp_fnid
                0x0000000000036120                sysMemcpy_fnid
                0x0000000000036124                sysMemmove_fnid
                0x0000000000036128                sysMemset_fnid
                0x000000000003612c                sysFree_fnid
                0x0000000000036130                sysHeapAllocHeapMemory_fnid
                0x0000000000036134                sysHeapCreateHeap_fnid
                0x0000000000036138                sysHeapDeleteHeap_fnid
                0x000000000003613c                sysHeapFree_fnid
                0x0000000000036140                sysHeapGetMallInfo_fnid
                0x0000000000036144                sysHeapGetTotalFreeSize_fnid
                0x0000000000036148                sysHeapMalloc_fnid
                0x000000000003614c                sysHeapMemalign_fnid
                0x0000000000036150                sysHeapStats_fnid
                0x0000000000036154                sysQsort_fnid
                0x0000000000036158                sysMempoolCreate_fnid
                0x000000000003615c                sysMempoolDestroy_fnid
                0x0000000000036160                sysMempoolGetCount_fnid
                0x0000000000036164                sysMempoolAllocateBlock_fnid
                0x0000000000036168                sysMempoolTryAllocateBlock_fnid
                0x000000000003616c                sysMempoolFreeBlock_fnid
                0x0000000000036170                sysMMapperFreeMemory_fnid
                0x0000000000036174                sysMMapperMapMemory_fnid
                0x0000000000036178                sysMMapperUnmapMemory_fnid
                0x000000000003617c                sysMMapperAllocateMemory_fnid
                0x0000000000036180                sysMMapperAllocateMemoryFromContainer_fnid
                0x0000000000036184                sysStrlen_fnid
                0x0000000000036188                sysStrcpy_fnid
                0x000000000003618c                sysStrncpy_fnid
                0x0000000000036190                sysStrcat_fnid
                0x0000000000036194                sysStrncat_fnid
                0x0000000000036198                sysStrchr_fnid
                0x000000000003619c                sysStrrchr_fnid
                0x00000000000361a0                sysStrcmp_fnid
                0x00000000000361a4                sysStrncmp_fnid
                0x00000000000361a8                sysStrncasecmp_fnid
                0x00000000000361ac                sysToLower_fnid
                0x00000000000361b0                sysToUpper_fnid
                0x00000000000361b4                sysSpuElfGetSegments_fnid
                0x00000000000361b8                sysSpuElfGetInformation_fnid
                0x00000000000361bc                sysSpuRawLoad_fnid
                0x00000000000361c0                sysSpuRawImageLoad_fnid
                0x00000000000361c4                sysSpuImageClose_fnid
                0x00000000000361c8                sysSpuImageImport_fnid
                0x00000000000361cc                sysSpuPrintfAttachGroup_fnid
                0x00000000000361d0                sysSpuPrintfAttachThread_fnid
                0x00000000000361d4                sysSpuPrintfDetachGroup_fnid
                0x00000000000361d8                sysSpuPrintfDetach_Tread_fnid
                0x00000000000361dc                sysSpuPrintfFinalize_fnid
                0x00000000000361e0                sysSpuPrintfInitialize_fnid
                0x00000000000361e4                sysConsoleGetc_fnid
                0x00000000000361e8                sysConsolePutc_fnid
                0x00000000000361ec                sysConsoleWrite_fnid
                0x00000000000361f0                sysPrintf_fnid
                0x00000000000361f4                sysSprintf_fnid
                0x00000000000361f8                sysSnprintf_fnid
                0x00000000000361fc                sysVprintf_fnid
                0x0000000000036200                sysVsprintf_fnid
                0x0000000000036204                sysVsnprintf_fnid
 .rodata.sceFNID
                0x0000000000036208       0x74 c:/PSDK3v2/psl1ght/ppu/lib\libpngdec.a(sprx.o)
                0x0000000000036208                pngDecCreate_fnid
                0x0000000000036208                cellPngDec
                0x000000000003620c                pngDecDestroy_fnid
                0x0000000000036210                pngDecOpen_fnid
                0x0000000000036214                pngDecClose_fnid
                0x0000000000036218                pngDecReadHeader_fnid
                0x000000000003621c                pngDecDecodeData_fnid
                0x0000000000036220                pngDecSetParameter_fnid
                0x0000000000036224                pngDecExtCreate_fnid
                0x0000000000036228                pngDecExtOpen_fnid
                0x000000000003622c                pngDecExtReadHeader_fnid
                0x0000000000036230                pngDecExtDecodeData_fnid
                0x0000000000036234                pngDecExtSetParameter_fnid
                0x0000000000036238                pngDecGetbKGD_fnid
                0x000000000003623c                pngDecGetcHRM_fnid
                0x0000000000036240                pngDecGetgAMA_fnid
                0x0000000000036244                pngDecGethIST_fnid
                0x0000000000036248                pngDecGetiCCP_fnid
                0x000000000003624c                pngDecGetoFFs_fnid
                0x0000000000036250                pngDecGetpCAL_fnid
                0x0000000000036254                pngDecGetpHYs_fnid
                0x0000000000036258                pngDecGetsBIT_fnid
                0x000000000003625c                pngDecGetsCAL_fnid
                0x0000000000036260                pngDecGetsPLT_fnid
                0x0000000000036264                pngDecGetsRGB_fnid
                0x0000000000036268                pngDecGettIME_fnid
                0x000000000003626c                pngDecGettRNS_fnid
                0x0000000000036270                pngDecGetPLTE_fnid
                0x0000000000036274                pngDecUnknownChunks_fnid
                0x0000000000036278                pngDecGetTextChunk_fnid
 .rodata.sceFNID
                0x000000000003627c       0x20 c:/PSDK3v2/psl1ght/ppu/lib\libsysmodule.a(sprx.o)
                0x000000000003627c                sysModuleInitialize_fnid
                0x000000000003627c                cellSysmodule
                0x0000000000036280                sysModuleFinalize_fnid
                0x0000000000036284                sysModuleLoad_fnid
                0x0000000000036288                sysModuleUnload_fnid
                0x000000000003628c                sysModuleIsLoaded_fnid
                0x0000000000036290                sysModuleGetImagesize_fnid
                0x0000000000036294                sysModuleFetchImage_fnid
                0x0000000000036298                sysModuleSetMemcontainer_fnid

.rodata.sceVNID
 *(.rodata.sceVNID .rodata.sceVNID.*)

.rodata.sceTNID
 *(.rodata.sceTNID .rodata.sceTNID.*)

.rodata.sceVStub
 *(.rodata.sceVStub)
 *(SORT(.rodata.sceVStub.*))
                0x000000000003629c                PROVIDE (__libentstart, .)

.lib.ent.top
 *(.lib.ent.top)

.lib.ent        0x000000000003629c        0x0
 *(.lib.ent)
 .lib.ent       0x000000000003629c        0x0 c:/psdk3v2/ps3dev/ppu/bin/../lib/gcc/powerpc64-ps3-elf/4.5.2/../../../../powerpc64-ps3-elf/lib/lv2-sprx.o

.lib.ent.btm
 *(.lib.ent.btm)
                0x000000000003629c                PROVIDE (__libentend, .)
                0x000000000003629c                PROVIDE (__libstubstart, .)

.lib.stub.top
 *(.lib.stub.top)

.lib.stub       0x000000000003629c      0x108
 *(.lib.stub)
 .lib.stub      0x000000000003629c        0x0 c:/psdk3v2/ps3dev/ppu/bin/../lib/gcc/powerpc64-ps3-elf/4.5.2/../../../../powerpc64-ps3-elf/lib/lv2-sprx.o
 .lib.stub      0x000000000003629c       0x2c c:/PSDK3v2/psl1ght/ppu/lib\libgcm_sys.a(sprx.o)
 .lib.stub      0x00000000000362c8       0x2c c:/PSDK3v2/psl1ght/ppu/lib\libio.a(sprx.o)
 .lib.stub      0x00000000000362f4       0x2c c:/PSDK3v2/psl1ght/ppu/lib\libsysutil.a(sprx.o)
 .lib.stub      0x0000000000036320       0x2c c:/PSDK3v2/psl1ght/ppu/lib\liblv2.a(sprx.o)
 .lib.stub      0x000000000003634c       0x2c c:/PSDK3v2/psl1ght/ppu/lib\libpngdec.a(sprx.o)
 .lib.stub      0x0000000000036378       0x2c c:/PSDK3v2/psl1ght/ppu/lib\libsysmodule.a(sprx.o)

.lib.stub.btm
 *(.lib.stub.btm)
                0x00000000000363a4                PROVIDE (__libstubend, .)

.ppu_rodata
 *(.ppu_rodata .ppu_rodata.*)

.sys_proc_param
 *(.sys_proc_param)

.sys_proc_prx_param
                0x00000000000363a4       0x28
 *(.sys_proc_prx_param)
 .sys_proc_prx_param
                0x00000000000363a4       0x28 c:/psdk3v2/ps3dev/ppu/bin/../lib/gcc/powerpc64-ps3-elf/4.5.2/../../../../powerpc64-ps3-elf/lib/lv2-sprx.o
                0x0000000000040000                . = ALIGN (0x10000)

.ppu_data
 *(.ppu_data .ppu_data.*)

.sdata2
 *(.sdata2 .sdata2.* .gnu.linkonce.s2.*)

.sbss2
 *(.sbss2 .sbss2.* .gnu.linkonce.sb2.*)

.eh_frame
 *(.eh_frame)

.gcc_except_table
 *(.gcc_except_table .gcc_except_table.*)
                0x0000000000040000                . = ALIGN (0x8)

.preinit_array  0x0000000000040000        0x0
                0x0000000000040000                PROVIDE (__preinit_array_start, .)
 *(.preinit_array)
                0x0000000000040000                PROVIDE (__preinit_array_end, .)

.init_array     0x0000000000040000        0x0
                0x0000000000040000                PROVIDE (__init_array_start, .)
 *(SORT(.init_array.*))
 *(.init_array)
                0x0000000000040000                PROVIDE (__init_array_end, .)

.fini_array     0x0000000000040000        0x0
                0x0000000000040000                PROVIDE (__fini_array_start, .)
 *(.fini_array)
 *(SORT(.fini_array.*))
                0x0000000000040000                PROVIDE (__fini_array_end, .)

.ctors          0x0000000000040000       0x28
 *crtbegin.o(.ctors)
 .ctors         0x0000000000040000        0x8 c:/psdk3v2/ps3dev/ppu/bin/../lib/gcc/powerpc64-ps3-elf/4.5.2/crtbegin.o
 *crtbegin?.o(.ctors)
 *(EXCLUDE_FILE(*crtend?.o *crtend.o) .ctors)
 *(SORT(.ctors.*))
 .ctors.65430   0x0000000000040008        0x8 c:/psdk3v2/ps3dev/ppu/bin/../lib/gcc/powerpc64-ps3-elf/4.5.2/../../../../powerpc64-ps3-elf/lib\libc.a(lib_a-lock_internal.o)
 .ctors.65431   0x0000000000040010        0x8 c:/psdk3v2/ps3dev/ppu/bin/../lib/gcc/powerpc64-ps3-elf/4.5.2/../../../../powerpc64-ps3-elf/lib/lv2-crt0.o
 .ctors.65432   0x0000000000040018        0x8 c:/PSDK3v2/psl1ght/ppu/lib\librt.a(sbrk.o)
 *(.ctors)
 .ctors         0x0000000000040020        0x8 c:/psdk3v2/ps3dev/ppu/bin/../lib/gcc/powerpc64-ps3-elf/4.5.2/crtend.o

.dtors          0x0000000000040028       0x10
 *crtbegin.o(.dtors)
 .dtors         0x0000000000040028        0x8 c:/psdk3v2/ps3dev/ppu/bin/../lib/gcc/powerpc64-ps3-elf/4.5.2/crtbegin.o
 *crtbegin?.o(.dtors)
 *(EXCLUDE_FILE(*crtend?.o *crtend.o) .dtors)
 *(SORT(.dtors.*))
 *(.dtors)
 .dtors         0x0000000000040030        0x8 c:/psdk3v2/ps3dev/ppu/bin/../lib/gcc/powerpc64-ps3-elf/4.5.2/crtend.o
                0x0000000000040030                __DTOR_END__

.jcr            0x0000000000040038        0x8
 *(.jcr)
 .jcr           0x0000000000040038        0x0 c:/psdk3v2/ps3dev/ppu/bin/../lib/gcc/powerpc64-ps3-elf/4.5.2/crtbegin.o
 .jcr           0x0000000000040038        0x8 c:/psdk3v2/ps3dev/ppu/bin/../lib/gcc/powerpc64-ps3-elf/4.5.2/crtend.o

.data.rel.ro
 *(.data.rel.ro.local*)
 *(.data.rel.ro*)

.dynamic
 *(.dynamic)

.data.sceFStub  0x0000000000040040      0x5d4
 *(.data.sceFStub)
 *(SORT(.data.sceFStub.*))
 .data.sceFStub.cellGcmSys
                0x0000000000040040      0x164 c:/PSDK3v2/psl1ght/ppu/lib\libgcm_sys.a(sprx.o)
                0x0000000000040040                gcmInitBody_stub
                0x0000000000040044                gcmSetDisplayBuffer_stub
                0x0000000000040048                gcmGetControlRegister_stub
                0x000000000004004c                gcmAddressToOffset_stub
                0x0000000000040050                gcmGetConfiguration_stub
                0x0000000000040054                gcmGetCurrentField_stub
                0x0000000000040058                gcmSetFlipMode_stub
                0x000000000004005c                gcmGetFlipStatus_stub
                0x0000000000040060                gcmGetLastFlipTime_stub
                0x0000000000040064                gcmGetVBlankCount_stub
                0x0000000000040068                gcmSetWaitFlip_stub
                0x000000000004006c                gcmSetFlipStatus_stub
                0x0000000000040070                gcmResetFlipStatus_stub
                0x0000000000040074                gcmSetFlip_stub
                0x0000000000040078                gcmSetFlipImmediate_stub
                0x000000000004007c                gcmFunc15_stub
                0x0000000000040080                gcmFunc3_stub
                0x0000000000040084                gcmFunc1_stub
                0x0000000000040088                gcmFunc2_stub
                0x000000000004008c                gcmFunc4_stub
                0x0000000000040090                gcmFunc12_stub
                0x0000000000040094                gcmFunc13_stub
                0x0000000000040098                gcmGetReport_stub
                0x000000000004009c                gcmSetTile_stub
                0x00000000000400a0                gcmBindTile_stub
                0x00000000000400a4                gcmUnbindTile_stub
                0x00000000000400a8                gcmSetZcull_stub
                0x00000000000400ac                gcmBindZcull_stub
                0x00000000000400b0                gcmUnbindZcull_stub
                0x00000000000400b4                gcmGetTimeStamp_stub
                0x00000000000400b8                gcmSetVBlankFrequency_stub
                0x00000000000400bc                gcmSetSecondVFrequency_stub
                0x00000000000400c0                gcmSetDebugOutputLevel_stub
                0x00000000000400c4                gcmGetLabelAddress_stub
                0x00000000000400c8                gcmSetVBlankHandlerEx_stub
                0x00000000000400cc                gcmSetFlipHandlerEx_stub
                0x00000000000400d0                gcmSetSecondVHandlerEx_stub
                0x00000000000400d4                gcmSetGraphicsHandlerEx_stub
                0x00000000000400d8                gcmTerminate_stub
                0x00000000000400dc                gcmMapMainMemory_stub
                0x00000000000400e0                gcmMapEaIoAddress_stub
                0x00000000000400e4                gcmUnmapEaIoAddress_stub
                0x00000000000400e8                gcmUnmapIoAddress_stub
                0x00000000000400ec                gcmIoOffsetToAddress_stub
                0x00000000000400f0                gcmSetDefaultCommandBuffer_stub
                0x00000000000400f4                gcmSetTileInfo_stub
                0x00000000000400f8                gcmGetTiledPitchSize_stub
                0x00000000000400fc                gcmSetInvalidateTile_stub
                0x0000000000040100                gcmSetUserCommandEx_stub
                0x0000000000040104                gcmSetUserHandlerEx_stub
                0x0000000000040108                gcmSetQueueHandlerEx_stub
                0x000000000004010c                gcmSetPrepareFlip_stub
                0x0000000000040110                gcmGetOffsetTable_stub
                0x0000000000040114                gcmGetLastSecondVTime_stub
                0x0000000000040118                gcmSortRemapEaIoAddress_stub
                0x000000000004011c                gcmGetDisplayBufferByFlipIndex_stub
                0x0000000000040120                gcmGcmGetDefaultCommandWordSize_stub
                0x0000000000040124                gcmGcmGetDefaultSegmentWordSize_stub
                0x0000000000040128                gcmSetDefaultCommandBufferAndSegmentWordSize_stub
                0x000000000004012c                gcmGetDisplayInfo_stub
                0x0000000000040130                gcmDumpGraphicsError_stub
                0x0000000000040134                gcmFunc38_stub
                0x0000000000040138                gcmGetCurrentDisplayBufferId_stub
                0x000000000004013c                gcmGetDefaultCommandWordSize_stub
                0x0000000000040140                gcmGetDefaultSegmentWordSize_stub
                0x0000000000040144                gcmGetMaxIoMapSize_stub
                0x0000000000040148                gcmGetNotifyDataAddress_stub
                0x000000000004014c                gcmGetReportDataAddress_stub
                0x0000000000040150                gcmGetReportDataAddressLocation_stub
                0x0000000000040154                gcmGetReportDataLocation_stub
                0x0000000000040158                gcmGetTileInfo_stub
                0x000000000004015c                gcmGetTimeStampLocation_stub
                0x0000000000040160                gcmGetZcullInfo_stub
                0x0000000000040164                gcmInitCursor_stub
                0x0000000000040168                gcmInitDefaultFifoMode_stub
                0x000000000004016c                gcmInitSystemMode_stub
                0x0000000000040170                gcmMapEaIoAddressWithFlags_stub
                0x0000000000040174                gcmMapLocalMemory_stub
                0x0000000000040178                gcmReserveIoMapSize_stub
                0x000000000004017c                gcmSetCursorDisable_stub
                0x0000000000040180                gcmSetCursorEnable_stub
                0x0000000000040184                gcmSetCursorImageOffset_stub
                0x0000000000040188                gcmSetCursorPosition_stub
                0x000000000004018c                gcmSetDefaultFifoSize_stub
                0x0000000000040190                gcmSetFlipCommand_stub
                0x0000000000040194                gcmSetFlipCommandWithWaitLabel_stub
                0x0000000000040198                gcmSysGetLastVBlankTime_stub
                0x000000000004019c                gcmUnreserveIoMapSize_stub
                0x00000000000401a0                gcmUpdateCursor_stub
 .data.sceFStub.cellPngDec
                0x00000000000401a4       0x74 c:/PSDK3v2/psl1ght/ppu/lib\libpngdec.a(sprx.o)
                0x00000000000401a4                pngDecCreate_stub
                0x00000000000401a8                pngDecDestroy_stub
                0x00000000000401ac                pngDecOpen_stub
                0x00000000000401b0                pngDecClose_stub
                0x00000000000401b4                pngDecReadHeader_stub
                0x00000000000401b8                pngDecDecodeData_stub
                0x00000000000401bc                pngDecSetParameter_stub
                0x00000000000401c0                pngDecExtCreate_stub
                0x00000000000401c4                pngDecExtOpen_stub
                0x00000000000401c8                pngDecExtReadHeader_stub
                0x00000000000401cc                pngDecExtDecodeData_stub
                0x00000000000401d0                pngDecExtSetParameter_stub
                0x00000000000401d4                pngDecGetbKGD_stub
                0x00000000000401d8                pngDecGetcHRM_stub
                0x00000000000401dc                pngDecGetgAMA_stub
                0x00000000000401e0                pngDecGethIST_stub
                0x00000000000401e4                pngDecGetiCCP_stub
                0x00000000000401e8                pngDecGetoFFs_stub
                0x00000000000401ec                pngDecGetpCAL_stub
                0x00000000000401f0                pngDecGetpHYs_stub
                0x00000000000401f4                pngDecGetsBIT_stub
                0x00000000000401f8                pngDecGetsCAL_stub
                0x00000000000401fc                pngDecGetsPLT_stub
                0x0000000000040200                pngDecGetsRGB_stub
                0x0000000000040204                pngDecGettIME_stub
                0x0000000000040208                pngDecGettRNS_stub
                0x000000000004020c                pngDecGetPLTE_stub
                0x0000000000040210                pngDecUnknownChunks_stub
                0x0000000000040214                pngDecGetTextChunk_stub
 .data.sceFStub.cellSysmodule
                0x0000000000040218       0x20 c:/PSDK3v2/psl1ght/ppu/lib\libsysmodule.a(sprx.o)
                0x0000000000040218                sysModuleInitialize_stub
                0x000000000004021c                sysModuleFinalize_stub
                0x0000000000040220                sysModuleLoad_stub
                0x0000000000040224                sysModuleUnload_stub
                0x0000000000040228                sysModuleIsLoaded_stub
                0x000000000004022c                sysModuleGetImagesize_stub
                0x0000000000040230                sysModuleFetchImage_stub
                0x0000000000040234                sysModuleSetMemcontainer_stub
 .data.sceFStub.cellSysutil
                0x0000000000040238      0x140 c:/PSDK3v2/psl1ght/ppu/lib\libsysutil.a(sprx.o)
                0x0000000000040238                videoGetResolution_stub
                0x000000000004023c                videoConfigure_stub
                0x0000000000040240                videoGetState_stub
                0x0000000000040244                videoGetDeviceInfo_stub
                0x0000000000040248                videoGetConfiguration_stub
                0x000000000004024c                videoGetResolutionAvailability_stub
                0x0000000000040250                videoDebugSetMonitorType_stub
                0x0000000000040254                videoRegisterCallbackEx_stub
                0x0000000000040258                videoUnregisterCallback_stub
                0x000000000004025c                videoGetNumberOfDevice_stub
                0x0000000000040260                videoGetConvertCursorColorInfo_stub
                0x0000000000040264                msgDialogClose_stub
                0x0000000000040268                msgDialogOpenErrorCodeEx_stub
                0x000000000004026c                msgDialogOpenEx_stub
                0x0000000000040270                msgDialogProgressBarInc_stub
                0x0000000000040274                msgDialogAbort_stub
                0x0000000000040278                msgDialogOpen2Ex_stub
                0x000000000004027c                msgDialogProgressBarReset_stub
                0x0000000000040280                msgDialogProgressBarSetMsg_stub
                0x0000000000040284                oskGetInputText_stub
                0x0000000000040288                oskSetInitialInputDevice_stub
                0x000000000004028c                oskGetSize_stub
                0x0000000000040290                oskUnloadAsync_stub
                0x0000000000040294                oskDisableDimmer_stub
                0x0000000000040298                oskSetKeyLayoutOption_stub
                0x000000000004029c                oskAbort_stub
                0x00000000000402a0                oskSetDeviceMask_stub
                0x00000000000402a4                oskSetSeparateWindowOption_stub
                0x00000000000402a8                oskAddSupportLanguage_stub
                0x00000000000402ac                oskLoadAsync_stub
                0x00000000000402b0                oskSetInitialKeyLayout_stub
                0x00000000000402b4                oskSetLayoutMode_stub
                0x00000000000402b8                sysUtilRegisterCallbackEx_stub
                0x00000000000402bc                sysUtilCheckCallback_stub
                0x00000000000402c0                sysUtilUnregisterCallback_stub
                0x00000000000402c4                sysSaveListLoad2Ex_stub
                0x00000000000402c8                sysSaveListSave2Ex_stub
                0x00000000000402cc                sysSaveListAutoLoadEx_stub
                0x00000000000402d0                sysSaveListAutoSaveEx_stub
                0x00000000000402d4                sysSaveFixedLoad2Ex_stub
                0x00000000000402d8                sysSaveFixedSave2Ex_stub
                0x00000000000402dc                sysSaveAutoLoad2Ex_stub
                0x00000000000402e0                sysSaveAutoSave2Ex_stub
                0x00000000000402e4                sysSaveDelete2_stub
                0x00000000000402e8                sysGameDataCheck_stub
                0x00000000000402ec                sysGameBootCheck_stub
                0x00000000000402f0                sysGamePatchCheck_stub
                0x00000000000402f4                sysGameCreateGameData_stub
                0x00000000000402f8                sysGameGetParamInt_stub
                0x00000000000402fc                sysGameGetParamString_stub
                0x0000000000040300                sysGameGetSizeKB_stub
                0x0000000000040304                sysGameSetParamString_stub
                0x0000000000040308                sysGameGetDiscContentInfoUpdatePath_stub
                0x000000000004030c                sysGameContentPermit_stub
                0x0000000000040310                sysGameContentErrorDialog_stub
                0x0000000000040314                sysGameThemeInstall_stub
                0x0000000000040318                sysGameThemeInstallFromBufferEx_stub
                0x000000000004031c                sysGameGetLocalWebContentPath_stub
                0x0000000000040320                sysGameDeleteGameData_stub
                0x0000000000040324                sysGameRegisterDiscChangeCallbackEx_stub
                0x0000000000040328                sysGameUnregisterDiscChangeCallback_stub
                0x000000000004032c                sysDiscRegisterDiscChangeCallbackEx_stub
                0x0000000000040330                sysDiscUnregisterDiscChangeCallback_stub
                0x0000000000040334                sysTrophyInit_stub
                0x0000000000040338                sysTrophyAbortHandle_stub
                0x000000000004033c                sysTrophyCreateContext_stub
                0x0000000000040340                sysTrophyCreateHandle_stub
                0x0000000000040344                sysTrophyDestroyContext_stub
                0x0000000000040348                sysTrophyDestroyHandle_stub
                0x000000000004034c                sysTrophyGetGameIcon_stub
                0x0000000000040350                sysTrophyGetGameInfo_stub
                0x0000000000040354                sysTrophyGetGameProgress_stub
                0x0000000000040358                sysTrophyGetRequiredDiskSpace_stub
                0x000000000004035c                sysTrophyGetTrophyIcon_stub
                0x0000000000040360                sysTrophyGetTrophyInfo_stub
                0x0000000000040364                sysTrophyGetTrophyUnlockState_stub
                0x0000000000040368                sysTrophyRegisterContextEx_stub
                0x000000000004036c                sysTrophySetSoundLevel_stub
                0x0000000000040370                sysTrophyTerm_stub
                0x0000000000040374                sysTrophyUnlockTrophy_stub
 .data.sceFStub.sysPrxForUser
                0x0000000000040378      0x1e0 c:/PSDK3v2/psl1ght/ppu/lib\liblv2.a(sprx.o)
                0x0000000000040378                sysGetSystemTime_stub
                0x000000000004037c                sysGetSystemSwVersion_stub
                0x0000000000040380                sysGetTemperature_stub
                0x0000000000040384                sysGetRandomNumber_stub
                0x0000000000040388                sysGetRtcStatus_stub
                0x000000000004038c                sysBoardStorageRead_stub
                0x0000000000040390                sysBoardStorageWrite_stub
                0x0000000000040394                sysProcessIsStack_stub
                0x0000000000040398                sysProcessExit_stub
                0x000000000004039c                sysProcessExitspawn_stub
                0x00000000000403a0                sysProcessExitSpawn2Ex_stub
                0x00000000000403a4                sysProcessExitSpawnWithLevel_stub
                0x00000000000403a8                sysProcessAtExitSpawn_stub
                0x00000000000403ac                sysProcess_At_ExitSpawn_stub
                0x00000000000403b0                _sys_process_atexitspawn_stub
                0x00000000000403b4                sysPrxRegisterLibrary_stub
                0x00000000000403b8                sysPrxUnregisterLibrary_stub
                0x00000000000403bc                sysPrxStartModule_stub
                0x00000000000403c0                sysPrxStopModule_stub
                0x00000000000403c4                sysPrxLoadModule_stub
                0x00000000000403c8                sysPrxLoadModuleByFd_stub
                0x00000000000403cc                sysPrxLoadModuleList_stub
                0x00000000000403d0                sysPrxLoadModuleListOnMemcontainer_stub
                0x00000000000403d4                sysPrxLoadModuleOnMemcontainer_stub
                0x00000000000403d8                sysPrxLoadModuleOnMemcontainerByFd_stub
                0x00000000000403dc                sysPrxGetModuleInfo_stub
                0x00000000000403e0                sysPrxGetModuleList_stub
                0x00000000000403e4                sysPrxGetModuleId_stub
                0x00000000000403e8                sysPrxGetModuleIdByAddress_stub
                0x00000000000403ec                sysPrxGetModuleIdByName_stub
                0x00000000000403f0                sysPrxUnloadModule_stub
                0x00000000000403f4                sysPrxExitSpawnWithLevel_stub
                0x00000000000403f8                sysThreadCreateEx_stub
                0x00000000000403fc                sysThreadExit_stub
                0x0000000000040400                sysThreadGetId_stub
                0x0000000000040404                sysThreadOnce_stub
                0x0000000000040408                sysThreadInitialzeTLS_stub
                0x000000000004040c                sysThreadRegisterAtexit_stub
                0x0000000000040410                sysThreadUnregisterAtexit_stub
                0x0000000000040414                sysInterruptThreadDisestablish_stub
                0x0000000000040418                sysLwMutexCreate_stub
                0x000000000004041c                sysLwMutexDestroy_stub
                0x0000000000040420                sysLwMutexLock_stub
                0x0000000000040424                sysLwMutexTryLock_stub
                0x0000000000040428                sysLwMutexUnlock_stub
                0x000000000004042c                sysLwCondCreate_stub
                0x0000000000040430                sysLwCondWait_stub
                0x0000000000040434                sysLwCondSignal_stub
                0x0000000000040438                sysLwCondSignalTo_stub
                0x000000000004043c                sysLwCondSignalAll_stub
                0x0000000000040440                sysLwCondDestroy_stub
                0x0000000000040444                sysSpinlockInitialize_stub
                0x0000000000040448                sysSpinlockLock_stub
                0x000000000004044c                sysSpinlockTryLock_stub
                0x0000000000040450                sysSpinlockUnlock_stub
                0x0000000000040454                sysWatchdogClear_stub
                0x0000000000040458                sysWatchdogStart_stub
                0x000000000004045c                sysWatchdogStop_stub
                0x0000000000040460                sysMalloc_stub
                0x0000000000040464                sysMemalign_stub
                0x0000000000040468                sysMemchr_stub
                0x000000000004046c                sysMemcmp_stub
                0x0000000000040470                sysMemcpy_stub
                0x0000000000040474                sysMemmove_stub
                0x0000000000040478                sysMemset_stub
                0x000000000004047c                sysFree_stub
                0x0000000000040480                sysHeapAllocHeapMemory_stub
                0x0000000000040484                sysHeapCreateHeap_stub
                0x0000000000040488                sysHeapDeleteHeap_stub
                0x000000000004048c                sysHeapFree_stub
                0x0000000000040490                sysHeapGetMallInfo_stub
                0x0000000000040494                sysHeapGetTotalFreeSize_stub
                0x0000000000040498                sysHeapMalloc_stub
                0x000000000004049c                sysHeapMemalign_stub
                0x00000000000404a0                sysHeapStats_stub
                0x00000000000404a4                sysQsort_stub
                0x00000000000404a8                sysMempoolCreate_stub
                0x00000000000404ac                sysMempoolDestroy_stub
                0x00000000000404b0                sysMempoolGetCount_stub
                0x00000000000404b4                sysMempoolAllocateBlock_stub
                0x00000000000404b8                sysMempoolTryAllocateBlock_stub
                0x00000000000404bc                sysMempoolFreeBlock_stub
                0x00000000000404c0                sysMMapperFreeMemory_stub
                0x00000000000404c4                sysMMapperMapMemory_stub
                0x00000000000404c8                sysMMapperUnmapMemory_stub
                0x00000000000404cc                sysMMapperAllocateMemory_stub
                0x00000000000404d0                sysMMapperAllocateMemoryFromContainer_stub
                0x00000000000404d4                sysStrlen_stub
                0x00000000000404d8                sysStrcpy_stub
                0x00000000000404dc                sysStrncpy_stub
                0x00000000000404e0                sysStrcat_stub
                0x00000000000404e4                sysStrncat_stub
                0x00000000000404e8                sysStrchr_stub
                0x00000000000404ec                sysStrrchr_stub
                0x00000000000404f0                sysStrcmp_stub
                0x00000000000404f4                sysStrncmp_stub
                0x00000000000404f8                sysStrncasecmp_stub
                0x00000000000404fc                sysToLower_stub
                0x0000000000040500                sysToUpper_stub
                0x0000000000040504                sysSpuElfGetSegments_stub
                0x0000000000040508                sysSpuElfGetInformation_stub
                0x000000000004050c                sysSpuRawLoad_stub
                0x0000000000040510                sysSpuRawImageLoad_stub
                0x0000000000040514                sysSpuImageClose_stub
                0x0000000000040518                sysSpuImageImport_stub
                0x000000000004051c                sysSpuPrintfAttachGroup_stub
                0x0000000000040520                sysSpuPrintfAttachThread_stub
                0x0000000000040524                sysSpuPrintfDetachGroup_stub
                0x0000000000040528                sysSpuPrintfDetach_Tread_stub
                0x000000000004052c                sysSpuPrintfFinalize_stub
                0x0000000000040530                sysSpuPrintfInitialize_stub
                0x0000000000040534                sysConsoleGetc_stub
                0x0000000000040538                sysConsolePutc_stub
                0x000000000004053c                sysConsoleWrite_stub
                0x0000000000040540                sysPrintf_stub
                0x0000000000040544                sysSprintf_stub
                0x0000000000040548                sysSnprintf_stub
                0x000000000004054c                sysVprintf_stub
                0x0000000000040550                sysVsprintf_stub
                0x0000000000040554                sysVsnprintf_stub
 .data.sceFStub.sys_io
                0x0000000000040558       0xbc c:/PSDK3v2/psl1ght/ppu/lib\libio.a(sprx.o)
                0x0000000000040558                sys_config_start_stub
                0x000000000004055c                sys_config_stop_stub
                0x0000000000040560                sys_config_add_service_listener_stub
                0x0000000000040564                sys_config_remove_service_listener_stub
                0x0000000000040568                sys_config_register_service_stub
                0x000000000004056c                sys_config_unregister_service_stub
                0x0000000000040570                ioPadInit_stub
                0x0000000000040574                ioPadEnd_stub
                0x0000000000040578                ioPadClearBuf_stub
                0x000000000004057c                ioPadInfoPressMode_stub
                0x0000000000040580                ioPadLddRegisterController_stub
                0x0000000000040584                ioPadGetInfo_stub
                0x0000000000040588                ioPadGetRawData_stub
                0x000000000004058c                ioPadGetDataExtra_stub
                0x0000000000040590                ioPadInfoSensorMode_stub
                0x0000000000040594                ioPadGetData_stub
                0x0000000000040598                ioPadLddGetPortNo_stub
                0x000000000004059c                ioPadLddDataInsert_stub
                0x00000000000405a0                ioPadSetSensorMode_stub
                0x00000000000405a4                ioPadGetCapabilityInfo_stub
                0x00000000000405a8                ioPadLddUnregisterController_stub
                0x00000000000405ac                ioPadSetActDirect_stub
                0x00000000000405b0                ioPadSetPressMode_stub
                0x00000000000405b4                ioPadPeriphGetInfo_stub
                0x00000000000405b8                ioPadSetPortSetting_stub
                0x00000000000405bc                ioPadPeriphGetData_stub
                0x00000000000405c0                ioPadGetInfo2_stub
                0x00000000000405c4                ioMouseInit_stub
                0x00000000000405c8                ioMouseEnd_stub
                0x00000000000405cc                ioMouseClearBuf_stub
                0x00000000000405d0                ioMouseGetInfo_stub
                0x00000000000405d4                ioMouseGetTabletDataList_stub
                0x00000000000405d8                ioMouseSetTabletMode_stub
                0x00000000000405dc                ioMouseGetData_stub
                0x00000000000405e0                ioMouseInfoTabletMode_stub
                0x00000000000405e4                ioMouseGetRawData_stub
                0x00000000000405e8                ioMouseGetDataList_stub
                0x00000000000405ec                ioKbInit_stub
                0x00000000000405f0                ioKbEnd_stub
                0x00000000000405f4                ioKbRead_stub
                0x00000000000405f8                ioKbSetReadMode_stub
                0x00000000000405fc                ioKbSetCodeType_stub
                0x0000000000040600                ioKbCnvRawCode_stub
                0x0000000000040604                ioKbSetLEDStatus_stub
                0x0000000000040608                ioKbGetInfo_stub
                0x000000000004060c                ioKbGetConfiguration_stub
                0x0000000000040610                ioKbClearBuf_stub

.toc1
 *(.toc1)

.opd            0x0000000000040618     0x47a0
 *(.opd)
 .opd           0x0000000000040618       0x30 c:/psdk3v2/ps3dev/ppu/bin/../lib/gcc/powerpc64-ps3-elf/4.5.2/../../../../powerpc64-ps3-elf/lib/lv2-crti.o
                0x0000000000040618                _init
                0x0000000000040630                _fini
 .opd           0x0000000000040648       0x30 c:/psdk3v2/ps3dev/ppu/bin/../lib/gcc/powerpc64-ps3-elf/4.5.2/crtbegin.o
 .opd           0x0000000000040678       0x48 c:/psdk3v2/ps3dev/ppu/bin/../lib/gcc/powerpc64-ps3-elf/4.5.2/../../../../powerpc64-ps3-elf/lib/lv2-crt0.o
                0x00000000000406a8                _initialize
 .opd           0x00000000000406c0       0xa8 main.o
                0x00000000000406c0                exiting
                0x00000000000406d8                DrawBackground2D
                0x00000000000406f0                DrawSprites2D
                0x0000000000040708                drawScene
                0x0000000000040720                Load_PNG
                0x0000000000040738                LoadTexture
                0x0000000000040750                main
 .opd           0x0000000000040768      0x588 c:/PSDK3v2/ps3dev/portlibs/ppu/lib\libtiny3d.a(tiny3d.o)
                0x0000000000040828                tiny3d_Exit
                0x0000000000040840                tiny3d_alarm
                0x0000000000040858                tiny3d_RecordList
                0x0000000000040870                tiny3d_StopList
                0x0000000000040888                tiny3d_FreeList
                0x00000000000408a0                tiny3d_DynamicMatrixList
                0x00000000000408b8                tiny3d_ApplyMatrixList
                0x00000000000408d0                tiny3d_Init
                0x00000000000408e8                tiny3d_SetPolygon
                0x0000000000040900                tiny3d_VertexPos
                0x0000000000040918                tiny3d_VertexPos4
                0x0000000000040930                tiny3d_VertexPosVector
                0x0000000000040948                tiny3d_VertexColor
                0x0000000000040960                tiny3d_VertexFcolor
                0x0000000000040978                tiny3d_VertexTexture
                0x0000000000040990                tiny3d_VertexTexture2
                0x00000000000409a8                tiny3d_Normal
                0x00000000000409c0                tiny3d_NormalVector
                0x00000000000409d8                tiny3d_End
                0x00000000000409f0                tiny3d_SetMatrixModelView
                0x0000000000040a08                tiny3d_SetProjectionMatrix
                0x0000000000040a20                tiny3d_Flip
                0x0000000000040a38                tiny3d_UserViewport
                0x0000000000040a50                tiny3d_UserViewport2
                0x0000000000040a68                tiny3d_UserViewportSurface
                0x0000000000040a80                tiny3d_Project2D
                0x0000000000040a98                tiny3d_Project3D
                0x0000000000040ab0                tiny3d_Clear
                0x0000000000040ac8                tiny3d_ClearSurface
                0x0000000000040ae0                tiny3d_AlphaTest
                0x0000000000040af8                tiny3d_BlendFunc
                0x0000000000040b10                tiny3d_SetTextureWrap
                0x0000000000040b28                tiny3d_SetTexture
                0x0000000000040b40                tiny3d_AllocTexture
                0x0000000000040b58                tiny3d_TextureOffset
                0x0000000000040b70                tiny3d_EmissiveMaterial
                0x0000000000040b88                tiny3d_AmbientMaterial
                0x0000000000040ba0                tiny3d_DiffuseMaterial
                0x0000000000040bb8                tiny3d_SpecularMaterial
                0x0000000000040bd0                tiny3d_SetLightCameraPosition
                0x0000000000040be8                tiny3d_SetLight
                0x0000000000040c00                tiny3d_SetLightsOff
                0x0000000000040c18                tiny3d_SetAmbientLight
                0x0000000000040c30                tiny3d_SelMultiTexturesMethod
                0x0000000000040c48                tiny3d_DrawList
                0x0000000000040c60                tiny3d_MenuActive
                0x0000000000040c78                tiny3d_Enable_YUV
                0x0000000000040c90                tiny3d_Disable_YUV
                0x0000000000040ca8                tiny3d_Dirty_Status
                0x0000000000040cc0                tiny3d_Get_GCM_Context
                0x0000000000040cd8                tiny3d_DoCmd_Space
 .opd           0x0000000000040cf0      0x408 c:/PSDK3v2/ps3dev/portlibs/ppu/lib\libtiny3d.a(commands.o)
                0x0000000000040cf0                rsxtiny_MakeCmdSpace
                0x0000000000040d08                rsxtiny_SetReferenceCommand
                0x0000000000040d20                rsxtiny_SetWriteBackendLabel
                0x0000000000040d38                rsxtiny_SetWaitLabel
                0x0000000000040d50                rsxtiny_SetScissor
                0x0000000000040d68                rsxtiny_SetClearColor
                0x0000000000040d80                rsxtiny_SetClearDepthValue
                0x0000000000040d98                rsxtiny_Nop
                0x0000000000040db0                rsxtiny_ClearBuffers
                0x0000000000040dc8                rsxtiny_SetRenderSurface
                0x0000000000040de0                rsxtiny_SelectRenderTarget
                0x0000000000040df8                rsxtiny_Viewport
                0x0000000000040e10                rsxtiny_ViewportClip
                0x0000000000040e28                rsxtiny_VertexBegin
                0x0000000000040e40                rsxtiny_VertexEnd
                0x0000000000040e58                rsxtiny_Vertex4f
                0x0000000000040e70                rsxtiny_TexCoord2f
                0x0000000000040e88                rsxtiny_SetVertexProgramConstant4f
                0x0000000000040ea0                rsxtiny_LoadVertexProgram
                0x0000000000040eb8                rsxtiny_SetVertexProgramConstant4fBlock
                0x0000000000040ed0                rsxtiny_InstallFragmentProgram
                0x0000000000040ee8                rsxtiny_LoadFragmentProgram
                0x0000000000040f00                rsxtiny_InvalidateTextureCache
                0x0000000000040f18                rsxtiny_SetTexture
                0x0000000000040f30                rsxtiny_ViewportTranslate
                0x0000000000040f48                rsxtiny_ViewportScale
                0x0000000000040f60                rsxtiny_CullFace
                0x0000000000040f78                rsxtiny_FrontFace
                0x0000000000040f90                rsxtiny_CullEnable
                0x0000000000040fa8                rsxtiny_AlphaEnable
                0x0000000000040fc0                rsxtiny_AlphaRef
                0x0000000000040fd8                rsxtiny_AlphaFunc
                0x0000000000040ff0                rsxtiny_BlendEnable
                0x0000000000041008                rsxtiny_BlendEquation
                0x0000000000041020                rsxtiny_BlendFunc
                0x0000000000041038                rsxtiny_ZControl
                0x0000000000041050                rsxtiny_BindVertexBufferAttribute
                0x0000000000041068                rsxtiny_VertexInvalidate
                0x0000000000041080                rsxtiny_DrawVertexBuffer
                0x0000000000041098                rsxtiny_DrawVertexBufferIndex
                0x00000000000410b0                rsxtiny_DepthTestEnable
                0x00000000000410c8                rsxtiny_DepthTestFunc
                0x00000000000410e0                rsxtiny_DepthWriteEnable
 .opd           0x00000000000410f8       0x48 c:/PSDK3v2/ps3dev/portlibs/ppu/lib\libtiny3d.a(glue.o)
                0x00000000000410f8                rsxtiny_FlushBuffer
                0x0000000000041110                rsxtiny_Init
                0x0000000000041128                rsxtiny_AddressToOffset
 .opd           0x0000000000041140      0x168 c:/PSDK3v2/ps3dev/portlibs/ppu/lib\libtiny3d.a(matrix.o)
                0x0000000000041140                MatrixProjPerspective
                0x0000000000041158                MatrixVectorMultiply
                0x0000000000041170                MatrixVectorMultiply3x3
                0x0000000000041188                MatrixMultiply
                0x00000000000411a0                MatrixIdentity
                0x00000000000411b8                MatrixTranslation
                0x00000000000411d0                MatrixTranspose
                0x00000000000411e8                MatrixScale
                0x0000000000041200                MatrixRotationX
                0x0000000000041218                MatrixRotationY
                0x0000000000041230                MatrixRotationZ
                0x0000000000041248                MatrixRotationAxis
                0x0000000000041260                VectorToUnit
                0x0000000000041278                VectorNormalPlane
                0x0000000000041290                MakeLookAtMatrix
 .opd           0x00000000000412a8       0x30 c:/PSDK3v2/ps3dev/portlibs/ppu/lib\libtiny3d.a(mm.o)
                0x00000000000412a8                rsxtiny_MemAlign
                0x00000000000412c0                rsxtiny_Mem
 .opd           0x00000000000412d8       0xa8 c:/PSDK3v2/ps3dev/portlibs/ppu/lib\libtiny3d.a(realityVP.o)
                0x00000000000412d8                rsxtiny_VertexProgramGetUCode
                0x00000000000412f0                rsxtiny_VertexProgramGetInputMask
                0x0000000000041308                rsxtiny_VertexProgramGetOutputMask
                0x0000000000041320                rsxtiny_VertexProgramGetAttributes
                0x0000000000041338                rsxtiny_VertexProgramGetInputAttribute
                0x0000000000041350                rsxtiny_VertexProgramGetConstants
                0x0000000000041368                rsxtiny_VertexProgramGetConstant
 .opd           0x0000000000041380       0x78 c:/PSDK3v2/ps3dev/portlibs/ppu/lib\libtiny3d.a(rsxutil.o)
                0x0000000000041380                waitFlip
                0x0000000000041398                flip
                0x00000000000413b0                init_screen
                0x00000000000413c8                setupRenderTarget
                0x00000000000413e0                setupRenderTarget2
 .opd           0x00000000000413f8       0x30 c:/PSDK3v2/ps3dev/portlibs/ppu/lib\libtiny3d.a(buffer.o)
                0x00000000000413f8                tiny_rsxContextCallback
                0x0000000000041410                commandBufferPut
 .opd           0x0000000000041428      0x858 c:/PSDK3v2/psl1ght/ppu/lib\libgcm_sys.a(sprx.o)
                0x0000000000041428                gcmInitBody
                0x0000000000041440                gcmSetDisplayBuffer
                0x0000000000041458                gcmGetControlRegister
                0x0000000000041470                gcmAddressToOffset
                0x0000000000041488                gcmGetConfiguration
                0x00000000000414a0                gcmGetCurrentField
                0x00000000000414b8                gcmSetFlipMode
                0x00000000000414d0                gcmGetFlipStatus
                0x00000000000414e8                gcmGetLastFlipTime
                0x0000000000041500                gcmGetVBlankCount
                0x0000000000041518                gcmSetWaitFlip
                0x0000000000041530                gcmSetFlipStatus
                0x0000000000041548                gcmResetFlipStatus
                0x0000000000041560                gcmSetFlip
                0x0000000000041578                gcmSetFlipImmediate
                0x0000000000041590                gcmFunc15
                0x00000000000415a8                gcmFunc3
                0x00000000000415c0                gcmFunc1
                0x00000000000415d8                gcmFunc2
                0x00000000000415f0                gcmFunc4
                0x0000000000041608                gcmFunc12
                0x0000000000041620                gcmFunc13
                0x0000000000041638                gcmGetReport
                0x0000000000041650                gcmSetTile
                0x0000000000041668                gcmBindTile
                0x0000000000041680                gcmUnbindTile
                0x0000000000041698                gcmSetZcull
                0x00000000000416b0                gcmBindZcull
                0x00000000000416c8                gcmUnbindZcull
                0x00000000000416e0                gcmGetTimeStamp
                0x00000000000416f8                gcmSetVBlankFrequency
                0x0000000000041710                gcmSetSecondVFrequency
                0x0000000000041728                gcmSetDebugOutputLevel
                0x0000000000041740                gcmGetLabelAddress
                0x0000000000041758                gcmSetVBlankHandlerEx
                0x0000000000041770                gcmSetFlipHandlerEx
                0x0000000000041788                gcmSetSecondVHandlerEx
                0x00000000000417a0                gcmSetGraphicsHandlerEx
                0x00000000000417b8                gcmTerminate
                0x00000000000417d0                gcmMapMainMemory
                0x00000000000417e8                gcmMapEaIoAddress
                0x0000000000041800                gcmUnmapEaIoAddress
                0x0000000000041818                gcmUnmapIoAddress
                0x0000000000041830                gcmIoOffsetToAddress
                0x0000000000041848                gcmSetDefaultCommandBuffer
                0x0000000000041860                gcmSetTileInfo
                0x0000000000041878                gcmGetTiledPitchSize
                0x0000000000041890                gcmSetInvalidateTile
                0x00000000000418a8                gcmSetUserCommandEx
                0x00000000000418c0                gcmSetUserHandlerEx
                0x00000000000418d8                gcmSetQueueHandlerEx
                0x00000000000418f0                gcmSetPrepareFlip
                0x0000000000041908                gcmGetOffsetTable
                0x0000000000041920                gcmGetLastSecondVTime
                0x0000000000041938                gcmSortRemapEaIoAddress
                0x0000000000041950                gcmGetDisplayBufferByFlipIndex
                0x0000000000041968                gcmGcmGetDefaultCommandWordSize
                0x0000000000041980                gcmGcmGetDefaultSegmentWordSize
                0x0000000000041998                gcmSetDefaultCommandBufferAndSegmentWordSize
                0x00000000000419b0                gcmGetDisplayInfo
                0x00000000000419c8                gcmDumpGraphicsError
                0x00000000000419e0                gcmFunc38
                0x00000000000419f8                gcmGetCurrentDisplayBufferId
                0x0000000000041a10                gcmGetDefaultCommandWordSize
                0x0000000000041a28                gcmGetDefaultSegmentWordSize
                0x0000000000041a40                gcmGetMaxIoMapSize
                0x0000000000041a58                gcmGetNotifyDataAddress
                0x0000000000041a70                gcmGetReportDataAddress
                0x0000000000041a88                gcmGetReportDataAddressLocation
                0x0000000000041aa0                gcmGetReportDataLocation
                0x0000000000041ab8                gcmGetTileInfo
                0x0000000000041ad0                gcmGetTimeStampLocation
                0x0000000000041ae8                gcmGetZcullInfo
                0x0000000000041b00                gcmInitCursor
                0x0000000000041b18                gcmInitDefaultFifoMode
                0x0000000000041b30                gcmInitSystemMode
                0x0000000000041b48                gcmMapEaIoAddressWithFlags
                0x0000000000041b60                gcmMapLocalMemory
                0x0000000000041b78                gcmReserveIoMapSize
                0x0000000000041b90                gcmSetCursorDisable
                0x0000000000041ba8                gcmSetCursorEnable
                0x0000000000041bc0                gcmSetCursorImageOffset
                0x0000000000041bd8                gcmSetCursorPosition
                0x0000000000041bf0                gcmSetDefaultFifoSize
                0x0000000000041c08                gcmSetFlipCommand
                0x0000000000041c20                gcmSetFlipCommandWithWaitLabel
                0x0000000000041c38                gcmSysGetLastVBlankTime
                0x0000000000041c50                gcmUnreserveIoMapSize
                0x0000000000041c68                gcmUpdateCursor
 .opd           0x0000000000041c80      0x468 c:/PSDK3v2/psl1ght/ppu/lib\libio.a(sprx.o)
                0x0000000000041c80                sys_config_start
                0x0000000000041c98                sys_config_stop
                0x0000000000041cb0                sys_config_add_service_listener
                0x0000000000041cc8                sys_config_remove_service_listener
                0x0000000000041ce0                sys_config_register_service
                0x0000000000041cf8                sys_config_unregister_service
                0x0000000000041d10                ioPadInit
                0x0000000000041d28                ioPadEnd
                0x0000000000041d40                ioPadClearBuf
                0x0000000000041d58                ioPadInfoPressMode
                0x0000000000041d70                ioPadLddRegisterController
                0x0000000000041d88                ioPadGetInfo
                0x0000000000041da0                ioPadGetRawData
                0x0000000000041db8                ioPadGetDataExtra
                0x0000000000041dd0                ioPadInfoSensorMode
                0x0000000000041de8                ioPadGetData
                0x0000000000041e00                ioPadLddGetPortNo
                0x0000000000041e18                ioPadLddDataInsert
                0x0000000000041e30                ioPadSetSensorMode
                0x0000000000041e48                ioPadGetCapabilityInfo
                0x0000000000041e60                ioPadLddUnregisterController
                0x0000000000041e78                ioPadSetActDirect
                0x0000000000041e90                ioPadSetPressMode
                0x0000000000041ea8                ioPadPeriphGetInfo
                0x0000000000041ec0                ioPadSetPortSetting
                0x0000000000041ed8                ioPadPeriphGetData
                0x0000000000041ef0                ioPadGetInfo2
                0x0000000000041f08                ioMouseInit
                0x0000000000041f20                ioMouseEnd
                0x0000000000041f38                ioMouseClearBuf
                0x0000000000041f50                ioMouseGetInfo
                0x0000000000041f68                ioMouseGetTabletDataList
                0x0000000000041f80                ioMouseSetTabletMode
                0x0000000000041f98                ioMouseGetData
                0x0000000000041fb0                ioMouseInfoTabletMode
                0x0000000000041fc8                ioMouseGetRawData
                0x0000000000041fe0                ioMouseGetDataList
                0x0000000000041ff8                ioKbInit
                0x0000000000042010                ioKbEnd
                0x0000000000042028                ioKbRead
                0x0000000000042040                ioKbSetReadMode
                0x0000000000042058                ioKbSetCodeType
                0x0000000000042070                ioKbCnvRawCode
                0x0000000000042088                ioKbSetLEDStatus
                0x00000000000420a0                ioKbGetInfo
                0x00000000000420b8                ioKbGetConfiguration
                0x00000000000420d0                ioKbClearBuf
 .opd           0x00000000000420e8      0x780 c:/PSDK3v2/psl1ght/ppu/lib\libsysutil.a(sprx.o)
                0x00000000000420e8                videoGetResolution
                0x0000000000042100                videoConfigure
                0x0000000000042118                videoGetState
                0x0000000000042130                videoGetDeviceInfo
                0x0000000000042148                videoGetConfiguration
                0x0000000000042160                videoGetResolutionAvailability
                0x0000000000042178                videoDebugSetMonitorType
                0x0000000000042190                videoRegisterCallbackEx
                0x00000000000421a8                videoUnregisterCallback
                0x00000000000421c0                videoGetNumberOfDevice
                0x00000000000421d8                videoGetConvertCursorColorInfo
                0x00000000000421f0                msgDialogClose
                0x0000000000042208                msgDialogOpenErrorCodeEx
                0x0000000000042220                msgDialogOpenEx
                0x0000000000042238                msgDialogProgressBarInc
                0x0000000000042250                msgDialogAbort
                0x0000000000042268                msgDialogOpen2Ex
                0x0000000000042280                msgDialogProgressBarReset
                0x0000000000042298                msgDialogProgressBarSetMsg
                0x00000000000422b0                oskGetInputText
                0x00000000000422c8                oskSetInitialInputDevice
                0x00000000000422e0                oskGetSize
                0x00000000000422f8                oskUnloadAsync
                0x0000000000042310                oskDisableDimmer
                0x0000000000042328                oskSetKeyLayoutOption
                0x0000000000042340                oskAbort
                0x0000000000042358                oskSetDeviceMask
                0x0000000000042370                oskSetSeparateWindowOption
                0x0000000000042388                oskAddSupportLanguage
                0x00000000000423a0                oskLoadAsync
                0x00000000000423b8                oskSetInitialKeyLayout
                0x00000000000423d0                oskSetLayoutMode
                0x00000000000423e8                sysUtilRegisterCallbackEx
                0x0000000000042400                sysUtilCheckCallback
                0x0000000000042418                sysUtilUnregisterCallback
                0x0000000000042430                sysSaveListLoad2Ex
                0x0000000000042448                sysSaveListSave2Ex
                0x0000000000042460                sysSaveListAutoLoadEx
                0x0000000000042478                sysSaveListAutoSaveEx
                0x0000000000042490                sysSaveFixedLoad2Ex
                0x00000000000424a8                sysSaveFixedSave2Ex
                0x00000000000424c0                sysSaveAutoLoad2Ex
                0x00000000000424d8                sysSaveAutoSave2Ex
                0x00000000000424f0                sysSaveDelete2
                0x0000000000042508                sysGameDataCheck
                0x0000000000042520                sysGameBootCheck
                0x0000000000042538                sysGamePatchCheck
                0x0000000000042550                sysGameCreateGameData
                0x0000000000042568                sysGameGetParamInt
                0x0000000000042580                sysGameGetParamString
                0x0000000000042598                sysGameGetSizeKB
                0x00000000000425b0                sysGameSetParamString
                0x00000000000425c8                sysGameGetDiscContentInfoUpdatePath
                0x00000000000425e0                sysGameContentPermit
                0x00000000000425f8                sysGameContentErrorDialog
                0x0000000000042610                sysGameThemeInstall
                0x0000000000042628                sysGameThemeInstallFromBufferEx
                0x0000000000042640                sysGameGetLocalWebContentPath
                0x0000000000042658                sysGameDeleteGameData
                0x0000000000042670                sysGameRegisterDiscChangeCallbackEx
                0x0000000000042688                sysGameUnregisterDiscChangeCallback
                0x00000000000426a0                sysDiscRegisterDiscChangeCallbackEx
                0x00000000000426b8                sysDiscUnregisterDiscChangeCallback
                0x00000000000426d0                sysTrophyInit
                0x00000000000426e8                sysTrophyAbortHandle
                0x0000000000042700                sysTrophyCreateContext
                0x0000000000042718                sysTrophyCreateHandle
                0x0000000000042730                sysTrophyDestroyContext
                0x0000000000042748                sysTrophyDestroyHandle
                0x0000000000042760                sysTrophyGetGameIcon
                0x0000000000042778                sysTrophyGetGameInfo
                0x0000000000042790                sysTrophyGetGameProgress
                0x00000000000427a8                sysTrophyGetRequiredDiskSpace
                0x00000000000427c0                sysTrophyGetTrophyIcon
                0x00000000000427d8                sysTrophyGetTrophyInfo
                0x00000000000427f0                sysTrophyGetTrophyUnlockState
                0x0000000000042808                sysTrophyRegisterContextEx
                0x0000000000042820                sysTrophySetSoundLevel
                0x0000000000042838                sysTrophyTerm
                0x0000000000042850                sysTrophyUnlockTrophy
 .opd           0x0000000000042868      0x168 c:/PSDK3v2/psl1ght/ppu/lib\libsysutil.a(sysutil_wrapper.o)
                0x0000000000042868                sysUtilRegisterCallback
                0x0000000000042880                msgDialogOpen
                0x0000000000042898                msgDialogOpen2
                0x00000000000428b0                msgDialogOpenErrorCode
                0x00000000000428c8                sysSaveListLoad2
                0x00000000000428e0                sysSaveListSave2
                0x00000000000428f8                sysSaveListAutoLoad
                0x0000000000042910                sysSaveListAutoSave
                0x0000000000042928                sysSaveFixedLoad2
                0x0000000000042940                sysSaveFixedSave2
                0x0000000000042958                sysSaveAutoLoad2
                0x0000000000042970                sysSaveAutoSave2
                0x0000000000042988                sysGameThemeInstallFromBuffer
                0x00000000000429a0                sysGameDiscRegisterDiscChangeCallback
                0x00000000000429b8                sysDiscRegisterDiscChangeCallback
 .opd           0x00000000000429d0       0x48 c:/PSDK3v2/psl1ght/ppu/lib\librt.a(sbrk.o)
                0x0000000000042a00                __librt_sbrk_r
 .opd           0x0000000000042a18       0x18 c:/PSDK3v2/psl1ght/ppu/lib\librt.a(exit.o)
                0x0000000000042a18                __librt_exit
 .opd           0x0000000000042a30       0x18 c:/PSDK3v2/psl1ght/ppu/lib\librt.a(close.o)
                0x0000000000042a30                __librt_close_r
 .opd           0x0000000000042a48       0x30 c:/PSDK3v2/psl1ght/ppu/lib\librt.a(lseek.o)
                0x0000000000042a48                __librt_lseek_r
                0x0000000000042a60                __librt_lseek64_r
 .opd           0x0000000000042a78       0x18 c:/PSDK3v2/psl1ght/ppu/lib\librt.a(read.o)
                0x0000000000042a78                __librt_read_r
 .opd           0x0000000000042a90       0x18 c:/PSDK3v2/psl1ght/ppu/lib\librt.a(open.o)
                0x0000000000042a90                __librt_open_r
 .opd           0x0000000000042aa8       0x30 c:/PSDK3v2/psl1ght/ppu/lib\librt.a(sleep.o)
                0x0000000000042aa8                __librt_usleep_r
                0x0000000000042ac0                __librt_sleep_r
 .opd           0x0000000000042ad8       0x18 c:/PSDK3v2/psl1ght/ppu/lib\librt.a(write.o)
                0x0000000000042ad8                __librt_write_r
 .opd           0x0000000000042af0       0x60 c:/PSDK3v2/psl1ght/ppu/lib\librt.a(fstat.o)
                0x0000000000042af0                __librt_fstat_r
                0x0000000000042b08                __librt_fstat64_r
                0x0000000000042b20                __librt_stat_r
                0x0000000000042b38                __librt_stat64_r
 .opd           0x0000000000042b50      0x150 c:/PSDK3v2/psl1ght/ppu/lib\librt.a(socket.o)
                0x0000000000042b50                accept
                0x0000000000042b68                bind
                0x0000000000042b80                connect
                0x0000000000042b98                listen
                0x0000000000042bb0                socket
                0x0000000000042bc8                send
                0x0000000000042be0                sendto
                0x0000000000042bf8                recv
                0x0000000000042c10                recvfrom
                0x0000000000042c28                shutdown
                0x0000000000042c40                inet_aton
                0x0000000000042c58                inet_pton
                0x0000000000042c70                select
                0x0000000000042c88                closesocket
 .opd           0x0000000000042ca0       0x78 c:/PSDK3v2/psl1ght/ppu/lib\librt.a(lock.o)
                0x0000000000042ca0                __librt_sys_lwmutex_create_r
                0x0000000000042cb8                __librt_sys_lwmutex_destroy_r
                0x0000000000042cd0                __librt_sys_lwmutex_lock_r
                0x0000000000042ce8                __librt_sys_lwmutex_trylock_r
                0x0000000000042d00                __librt_sys_lwmutex_unlock_r
 .opd           0x0000000000042d18       0xc0 c:/PSDK3v2/psl1ght/ppu/lib\librt.a(dirent.o)
                0x0000000000042d30                __librt_opendir_r
                0x0000000000042d48                __librt_readdir_r
                0x0000000000042d60                __librt_readdir_r_r
                0x0000000000042d78                __librt_closedir_r
                0x0000000000042d90                __librt_telldir_r
                0x0000000000042da8                __librt_rewinddir_r
                0x0000000000042dc0                __librt_seekdir_r
 .opd           0x0000000000042dd8       0x18 c:/PSDK3v2/psl1ght/ppu/lib\librt.a(mkdir.o)
                0x0000000000042dd8                __librt_mkdir_r
 .opd           0x0000000000042df0       0x18 c:/PSDK3v2/psl1ght/ppu/lib\librt.a(times.o)
                0x0000000000042df0                __librt_times_r
 .opd           0x0000000000042e08       0x18 c:/PSDK3v2/psl1ght/ppu/lib\librt.a(umask.o)
                0x0000000000042e08                __librt_umask_r
 .opd           0x0000000000042e20       0x48 c:/PSDK3v2/psl1ght/ppu/lib\librt.a(lv2errno.o)
                0x0000000000042e20                lv2error
                0x0000000000042e38                lv2errno
                0x0000000000042e50                lv2errno_r
 .opd           0x0000000000042e68       0x60 c:/PSDK3v2/psl1ght/ppu/lib\librt.a(heap.o)
                0x0000000000042e68                heapInit
                0x0000000000042e80                heapAllocate
                0x0000000000042e98                heapAllocateAligned
                0x0000000000042eb0                heapFree
 .opd           0x0000000000042ec8       0x18 c:/PSDK3v2/psl1ght/ppu/lib\librt.a(chmod.o)
                0x0000000000042ec8                __librt_chmod_r
 .opd           0x0000000000042ee0       0x18 c:/PSDK3v2/psl1ght/ppu/lib\librt.a(rmdir.o)
                0x0000000000042ee0                __librt_rmdir_r
 .opd           0x0000000000042ef8       0x18 c:/PSDK3v2/psl1ght/ppu/lib\librt.a(isatty.o)
                0x0000000000042ef8                __librt_isatty_r
 .opd           0x0000000000042f10       0x18 c:/PSDK3v2/psl1ght/ppu/lib\librt.a(gettod.o)
                0x0000000000042f10                __librt_gettod_r
 .opd           0x0000000000042f28       0x18 c:/PSDK3v2/psl1ght/ppu/lib\librt.a(settod.o)
                0x0000000000042f28                __librt_settod_r
 .opd           0x0000000000042f40      0xb40 c:/PSDK3v2/psl1ght/ppu/lib\liblv2.a(sprx.o)
                0x0000000000042f40                sysGetSystemTime
                0x0000000000042f58                sysGetSystemSwVersion
                0x0000000000042f70                sysGetTemperature
                0x0000000000042f88                sysGetRandomNumber
                0x0000000000042fa0                sysGetRtcStatus
                0x0000000000042fb8                sysBoardStorageRead
                0x0000000000042fd0                sysBoardStorageWrite
                0x0000000000042fe8                sysProcessIsStack
                0x0000000000043000                sysProcessExit
                0x0000000000043018                sysProcessExitspawn
                0x0000000000043030                sysProcessExitSpawn2Ex
                0x0000000000043048                sysProcessExitSpawnWithLevel
                0x0000000000043060                sysProcessAtExitSpawn
                0x0000000000043078                sysProcess_At_ExitSpawn
                0x0000000000043090                _sys_process_atexitspawn
                0x00000000000430a8                sysPrxRegisterLibrary
                0x00000000000430c0                sysPrxUnregisterLibrary
                0x00000000000430d8                sysPrxStartModule
                0x00000000000430f0                sysPrxStopModule
                0x0000000000043108                sysPrxLoadModule
                0x0000000000043120                sysPrxLoadModuleByFd
                0x0000000000043138                sysPrxLoadModuleList
                0x0000000000043150                sysPrxLoadModuleListOnMemcontainer
                0x0000000000043168                sysPrxLoadModuleOnMemcontainer
                0x0000000000043180                sysPrxLoadModuleOnMemcontainerByFd
                0x0000000000043198                sysPrxGetModuleInfo
                0x00000000000431b0                sysPrxGetModuleList
                0x00000000000431c8                sysPrxGetModuleId
                0x00000000000431e0                sysPrxGetModuleIdByAddress
                0x00000000000431f8                sysPrxGetModuleIdByName
                0x0000000000043210                sysPrxUnloadModule
                0x0000000000043228                sysPrxExitSpawnWithLevel
                0x0000000000043240                sysThreadCreateEx
                0x0000000000043258                sysThreadExit
                0x0000000000043270                sysThreadGetId
                0x0000000000043288                sysThreadOnce
                0x00000000000432a0                sysThreadInitialzeTLS
                0x00000000000432b8                sysThreadRegisterAtexit
                0x00000000000432d0                sysThreadUnregisterAtexit
                0x00000000000432e8                sysInterruptThreadDisestablish
                0x0000000000043300                sysLwMutexCreate
                0x0000000000043318                sysLwMutexDestroy
                0x0000000000043330                sysLwMutexLock
                0x0000000000043348                sysLwMutexTryLock
                0x0000000000043360                sysLwMutexUnlock
                0x0000000000043378                sysLwCondCreate
                0x0000000000043390                sysLwCondWait
                0x00000000000433a8                sysLwCondSignal
                0x00000000000433c0                sysLwCondSignalTo
                0x00000000000433d8                sysLwCondSignalAll
                0x00000000000433f0                sysLwCondDestroy
                0x0000000000043408                sysSpinlockInitialize
                0x0000000000043420                sysSpinlockLock
                0x0000000000043438                sysSpinlockTryLock
                0x0000000000043450                sysSpinlockUnlock
                0x0000000000043468                sysWatchdogClear
                0x0000000000043480                sysWatchdogStart
                0x0000000000043498                sysWatchdogStop
                0x00000000000434b0                sysMalloc
                0x00000000000434c8                sysMemalign
                0x00000000000434e0                sysMemchr
                0x00000000000434f8                sysMemcmp
                0x0000000000043510                sysMemcpy
                0x0000000000043528                sysMemmove
                0x0000000000043540                sysMemset
                0x0000000000043558                sysFree
                0x0000000000043570                sysHeapAllocHeapMemory
                0x0000000000043588                sysHeapCreateHeap
                0x00000000000435a0                sysHeapDeleteHeap
                0x00000000000435b8                sysHeapFree
                0x00000000000435d0                sysHeapGetMallInfo
                0x00000000000435e8                sysHeapGetTotalFreeSize
                0x0000000000043600                sysHeapMalloc
                0x0000000000043618                sysHeapMemalign
                0x0000000000043630                sysHeapStats
                0x0000000000043648                sysQsort
                0x0000000000043660                sysMempoolCreate
                0x0000000000043678                sysMempoolDestroy
                0x0000000000043690                sysMempoolGetCount
                0x00000000000436a8                sysMempoolAllocateBlock
                0x00000000000436c0                sysMempoolTryAllocateBlock
                0x00000000000436d8                sysMempoolFreeBlock
                0x00000000000436f0                sysMMapperFreeMemory
                0x0000000000043708                sysMMapperMapMemory
                0x0000000000043720                sysMMapperUnmapMemory
                0x0000000000043738                sysMMapperAllocateMemory
                0x0000000000043750                sysMMapperAllocateMemoryFromContainer
                0x0000000000043768                sysStrlen
                0x0000000000043780                sysStrcpy
                0x0000000000043798                sysStrncpy
                0x00000000000437b0                sysStrcat
                0x00000000000437c8                sysStrncat
                0x00000000000437e0                sysStrchr
                0x00000000000437f8                sysStrrchr
                0x0000000000043810                sysStrcmp
                0x0000000000043828                sysStrncmp
                0x0000000000043840                sysStrncasecmp
                0x0000000000043858                sysToLower
                0x0000000000043870                sysToUpper
                0x0000000000043888                sysSpuElfGetSegments
                0x00000000000438a0                sysSpuElfGetInformation
                0x00000000000438b8                sysSpuRawLoad
                0x00000000000438d0                sysSpuRawImageLoad
                0x00000000000438e8                sysSpuImageClose
                0x0000000000043900                sysSpuImageImport
                0x0000000000043918                sysSpuPrintfAttachGroup
                0x0000000000043930                sysSpuPrintfAttachThread
                0x0000000000043948                sysSpuPrintfDetachGroup
                0x0000000000043960                sysSpuPrintfDetach_Tread
                0x0000000000043978                sysSpuPrintfFinalize
                0x0000000000043990                sysSpuPrintfInitialize
                0x00000000000439a8                sysConsoleGetc
                0x00000000000439c0                sysConsolePutc
                0x00000000000439d8                sysConsoleWrite
                0x00000000000439f0                sysPrintf
                0x0000000000043a08                sysSprintf
                0x0000000000043a20                sysSnprintf
                0x0000000000043a38                sysVprintf
                0x0000000000043a50                sysVsprintf
                0x0000000000043a68                sysVsnprintf
 .opd           0x0000000000043a80       0x78 c:/PSDK3v2/psl1ght/ppu/lib\libpngdec.a(pngdec.o)
                0x0000000000043ac8                pngLoadFromFile
                0x0000000000043ae0                pngLoadFromBuffer
 .opd           0x0000000000043af8      0x2b8 c:/PSDK3v2/psl1ght/ppu/lib\libpngdec.a(sprx.o)
                0x0000000000043af8                pngDecCreate
                0x0000000000043b10                pngDecDestroy
                0x0000000000043b28                pngDecOpen
                0x0000000000043b40                pngDecClose
                0x0000000000043b58                pngDecReadHeader
                0x0000000000043b70                pngDecDecodeData
                0x0000000000043b88                pngDecSetParameter
                0x0000000000043ba0                pngDecExtCreate
                0x0000000000043bb8                pngDecExtOpen
                0x0000000000043bd0                pngDecExtReadHeader
                0x0000000000043be8                pngDecExtDecodeData
                0x0000000000043c00                pngDecExtSetParameter
                0x0000000000043c18                pngDecGetbKGD
                0x0000000000043c30                pngDecGetcHRM
                0x0000000000043c48                pngDecGetgAMA
                0x0000000000043c60                pngDecGethIST
                0x0000000000043c78                pngDecGetiCCP
                0x0000000000043c90                pngDecGetoFFs
                0x0000000000043ca8                pngDecGetpCAL
                0x0000000000043cc0                pngDecGetpHYs
                0x0000000000043cd8                pngDecGetsBIT
                0x0000000000043cf0                pngDecGetsCAL
                0x0000000000043d08                pngDecGetsPLT
                0x0000000000043d20                pngDecGetsRGB
                0x0000000000043d38                pngDecGettIME
                0x0000000000043d50                pngDecGettRNS
                0x0000000000043d68                pngDecGetPLTE
                0x0000000000043d80                pngDecUnknownChunks
                0x0000000000043d98                pngDecGetTextChunk
 .opd           0x0000000000043db0       0xc0 c:/PSDK3v2/psl1ght/ppu/lib\libsysmodule.a(sprx.o)
                0x0000000000043db0                sysModuleInitialize
                0x0000000000043dc8                sysModuleFinalize
                0x0000000000043de0                sysModuleLoad
                0x0000000000043df8                sysModuleUnload
                0x0000000000043e10                sysModuleIsLoaded
                0x0000000000043e28                sysModuleGetImagesize
                0x0000000000043e40                sysModuleFetchImage
                0x0000000000043e58                sysModuleSetMemcontainer
 .opd           0x0000000000043e70       0x18 c:/psdk3v2/ps3dev/ppu/bin/../lib/gcc/powerpc64-ps3-elf/4.5.2/../../../../powerpc64-ps3-elf/lib\libm.a(lib_a-s_sqrt.o)
                0x0000000000043e70                sqrt
 .opd           0x0000000000043e88       0x18 c:/psdk3v2/ps3dev/ppu/bin/../lib/gcc/powerpc64-ps3-elf/4.5.2/../../../../powerpc64-ps3-elf/lib\libm.a(lib_a-sf_cos.o)
                0x0000000000043e88                cosf
 .opd           0x0000000000043ea0       0x18 c:/psdk3v2/ps3dev/ppu/bin/../lib/gcc/powerpc64-ps3-elf/4.5.2/../../../../powerpc64-ps3-elf/lib\libm.a(lib_a-sf_sin.o)
                0x0000000000043ea0                sinf
 .opd           0x0000000000043eb8       0x18 c:/psdk3v2/ps3dev/ppu/bin/../lib/gcc/powerpc64-ps3-elf/4.5.2/../../../../powerpc64-ps3-elf/lib\libm.a(lib_a-sf_sine.o)
                0x0000000000043eb8                sinef
 .opd           0x0000000000043ed0       0x18 c:/psdk3v2/ps3dev/ppu/bin/../lib/gcc/powerpc64-ps3-elf/4.5.2/../../../../powerpc64-ps3-elf/lib\libm.a(lib_a-sf_sqrt.o)
                0x0000000000043ed0                sqrtf
 .opd           0x0000000000043ee8       0x18 c:/psdk3v2/ps3dev/ppu/bin/../lib/gcc/powerpc64-ps3-elf/4.5.2/../../../../powerpc64-ps3-elf/lib\libm.a(lib_a-sf_tan.o)
                0x0000000000043ee8                tanf
 .opd           0x0000000000043f00       0x18 c:/psdk3v2/ps3dev/ppu/bin/../lib/gcc/powerpc64-ps3-elf/4.5.2/../../../../powerpc64-ps3-elf/lib\libm.a(lib_a-s_frexp.o)
                0x0000000000043f00                frexp
 .opd           0x0000000000043f18       0x18 c:/psdk3v2/ps3dev/ppu/bin/../lib/gcc/powerpc64-ps3-elf/4.5.2/../../../../powerpc64-ps3-elf/lib\libm.a(lib_a-s_ispos.o)
                0x0000000000043f18                ispos
 .opd           0x0000000000043f30       0x18 c:/psdk3v2/ps3dev/ppu/bin/../lib/gcc/powerpc64-ps3-elf/4.5.2/../../../../powerpc64-ps3-elf/lib\libm.a(lib_a-s_ldexp.o)
                0x0000000000043f30                ldexp
 .opd           0x0000000000043f48       0x18 c:/psdk3v2/ps3dev/ppu/bin/../lib/gcc/powerpc64-ps3-elf/4.5.2/../../../../powerpc64-ps3-elf/lib\libm.a(lib_a-s_numtest.o)
                0x0000000000043f48                numtest
 .opd           0x0000000000043f60       0x18 c:/psdk3v2/ps3dev/ppu/bin/../lib/gcc/powerpc64-ps3-elf/4.5.2/../../../../powerpc64-ps3-elf/lib\libm.a(lib_a-sf_fabs.o)
                0x0000000000043f60                fabsf
 .opd           0x0000000000043f78       0x18 c:/psdk3v2/ps3dev/ppu/bin/../lib/gcc/powerpc64-ps3-elf/4.5.2/../../../../powerpc64-ps3-elf/lib\libm.a(lib_a-sf_frexp.o)
                0x0000000000043f78                frexpf
 .opd           0x0000000000043f90       0x18 c:/psdk3v2/ps3dev/ppu/bin/../lib/gcc/powerpc64-ps3-elf/4.5.2/../../../../powerpc64-ps3-elf/lib\libm.a(lib_a-sf_ispos.o)
                0x0000000000043f90                isposf
 .opd           0x0000000000043fa8       0x18 c:/psdk3v2/ps3dev/ppu/bin/../lib/gcc/powerpc64-ps3-elf/4.5.2/../../../../powerpc64-ps3-elf/lib\libm.a(lib_a-sf_ldexp.o)
                0x0000000000043fa8                ldexpf
 .opd           0x0000000000043fc0       0x18 c:/psdk3v2/ps3dev/ppu/bin/../lib/gcc/powerpc64-ps3-elf/4.5.2/../../../../powerpc64-ps3-elf/lib\libm.a(lib_a-sf_numtest.o)
                0x0000000000043fc0                numtestf
 .opd           0x0000000000043fd8       0x30 c:/psdk3v2/ps3dev/ppu/bin/../lib/gcc/powerpc64-ps3-elf/4.5.2/../../../../powerpc64-ps3-elf/lib\libsysbase.a(sleep.o)
                0x0000000000043fd8                usleep
                0x0000000000043ff0                sleep
 .opd           0x0000000000044008       0x18 c:/psdk3v2/ps3dev/ppu/bin/../lib/gcc/powerpc64-ps3-elf/4.5.2/../../../../powerpc64-ps3-elf/lib\libc.a(lib_a-atexit.o)
                0x0000000000044008                atexit
 .opd           0x0000000000044020       0x18 c:/psdk3v2/ps3dev/ppu/bin/../lib/gcc/powerpc64-ps3-elf/4.5.2/../../../../powerpc64-ps3-elf/lib\libc.a(lib_a-errno.o)
                0x0000000000044020                __errno
 .opd           0x0000000000044038       0x18 c:/psdk3v2/ps3dev/ppu/bin/../lib/gcc/powerpc64-ps3-elf/4.5.2/../../../../powerpc64-ps3-elf/lib\libc.a(lib_a-exit.o)
                0x0000000000044038                exit
 .opd           0x0000000000044050       0x18 c:/psdk3v2/ps3dev/ppu/bin/../lib/gcc/powerpc64-ps3-elf/4.5.2/../../../../powerpc64-ps3-elf/lib\libc.a(lib_a-getreent.o)
                0x0000000000044050                __getreent
 .opd           0x0000000000044068       0x18 c:/psdk3v2/ps3dev/ppu/bin/../lib/gcc/powerpc64-ps3-elf/4.5.2/../../../../powerpc64-ps3-elf/lib\libc.a(lib_a-malign.o)
                0x0000000000044068                memalign
 .opd           0x0000000000044080       0x18 c:/psdk3v2/ps3dev/ppu/bin/../lib/gcc/powerpc64-ps3-elf/4.5.2/../../../../powerpc64-ps3-elf/lib\libc.a(lib_a-malignr.o)
                0x0000000000044080                _memalign_r
 .opd           0x0000000000044098       0x30 c:/psdk3v2/ps3dev/ppu/bin/../lib/gcc/powerpc64-ps3-elf/4.5.2/../../../../powerpc64-ps3-elf/lib\libc.a(lib_a-malloc.o)
                0x0000000000044098                malloc
                0x00000000000440b0                free
 .opd           0x00000000000440c8       0x18 c:/psdk3v2/ps3dev/ppu/bin/../lib/gcc/powerpc64-ps3-elf/4.5.2/../../../../powerpc64-ps3-elf/lib\libc.a(lib_a-mallocr.o)
                0x00000000000440c8                _malloc_r
 .opd           0x00000000000440e0       0x18 c:/psdk3v2/ps3dev/ppu/bin/../lib/gcc/powerpc64-ps3-elf/4.5.2/../../../../powerpc64-ps3-elf/lib\libc.a(lib_a-memcpy.o)
                0x00000000000440e0                memcpy
 .opd           0x00000000000440f8       0x18 c:/psdk3v2/ps3dev/ppu/bin/../lib/gcc/powerpc64-ps3-elf/4.5.2/../../../../powerpc64-ps3-elf/lib\libc.a(lib_a-memset.o)
                0x00000000000440f8                memset
 .opd           0x0000000000044110       0x30 c:/psdk3v2/ps3dev/ppu/bin/../lib/gcc/powerpc64-ps3-elf/4.5.2/../../../../powerpc64-ps3-elf/lib\libc.a(lib_a-mlock.o)
                0x0000000000044110                __malloc_lock
                0x0000000000044128                __malloc_unlock
 .opd           0x0000000000044140       0x30 c:/psdk3v2/ps3dev/ppu/bin/../lib/gcc/powerpc64-ps3-elf/4.5.2/../../../../powerpc64-ps3-elf/lib\libc.a(lib_a-sscanf.o)
                0x0000000000044140                sscanf
                0x0000000000044158                _sscanf_r
 .opd           0x0000000000044170       0x78 c:/psdk3v2/ps3dev/ppu/bin/../lib/gcc/powerpc64-ps3-elf/4.5.2/../../../../powerpc64-ps3-elf/lib\libc.a(lib_a-stdio.o)
                0x0000000000044170                __sread
                0x0000000000044188                __seofread
                0x00000000000441a0                __swrite
                0x00000000000441b8                __sseek
                0x00000000000441d0                __sclose
 .opd           0x00000000000441e8       0x18 c:/psdk3v2/ps3dev/ppu/bin/../lib/gcc/powerpc64-ps3-elf/4.5.2/../../../../powerpc64-ps3-elf/lib\libc.a(lib_a-strcasecmp.o)
                0x00000000000441e8                strcasecmp
 .opd           0x0000000000044200       0x18 c:/psdk3v2/ps3dev/ppu/bin/../lib/gcc/powerpc64-ps3-elf/4.5.2/../../../../powerpc64-ps3-elf/lib\libc.a(lib_a-strlen.o)
                0x0000000000044200                strlen
 .opd           0x0000000000044218       0x18 c:/psdk3v2/ps3dev/ppu/bin/../lib/gcc/powerpc64-ps3-elf/4.5.2/../../../../powerpc64-ps3-elf/lib\libc.a(lib_a-strncpy.o)
                0x0000000000044218                strncpy
 .opd           0x0000000000044230       0x18 c:/psdk3v2/ps3dev/ppu/bin/../lib/gcc/powerpc64-ps3-elf/4.5.2/../../../../powerpc64-ps3-elf/lib\libc.a(lib_a-svfscanf.o)
                0x0000000000044230                __ssvfscanf_r
 .opd           0x0000000000044248       0x18 c:/psdk3v2/ps3dev/ppu/bin/../lib/gcc/powerpc64-ps3-elf/4.5.2/../../../../powerpc64-ps3-elf/lib\libc.a(lib_a-__atexit.o)
                0x0000000000044248                __register_exitproc
 .opd           0x0000000000044260       0x18 c:/psdk3v2/ps3dev/ppu/bin/../lib/gcc/powerpc64-ps3-elf/4.5.2/../../../../powerpc64-ps3-elf/lib\libc.a(lib_a-__call_atexit.o)
                0x0000000000044260                __call_exitprocs
 .opd           0x0000000000044278      0x138 c:/psdk3v2/ps3dev/ppu/bin/../lib/gcc/powerpc64-ps3-elf/4.5.2/../../../../powerpc64-ps3-elf/lib\libc.a(lib_a-findfp.o)
                0x0000000000044278                _cleanup_r
                0x00000000000442c0                __sfmoreglue
                0x00000000000442d8                _cleanup
                0x00000000000442f0                __sfp_lock_acquire
                0x0000000000044308                __sfp_lock_release
                0x0000000000044320                __sinit_lock_acquire
                0x0000000000044338                __sinit_lock_release
                0x0000000000044350                __sinit
                0x0000000000044368                __sfp
                0x0000000000044380                __fp_lock_all
                0x0000000000044398                __fp_unlock_all
 .opd           0x00000000000443b0       0x30 c:/psdk3v2/ps3dev/ppu/bin/../lib/gcc/powerpc64-ps3-elf/4.5.2/../../../../powerpc64-ps3-elf/lib\libc.a(lib_a-freer.o)
                0x00000000000443b0                _malloc_trim_r
                0x00000000000443c8                _free_r
 .opd           0x00000000000443e0       0x30 c:/psdk3v2/ps3dev/ppu/bin/../lib/gcc/powerpc64-ps3-elf/4.5.2/../../../../powerpc64-ps3-elf/lib\libc.a(lib_a-fwalk.o)
                0x00000000000443e0                _fwalk
                0x00000000000443f8                _fwalk_reent
 .opd           0x0000000000044410       0x18 c:/psdk3v2/ps3dev/ppu/bin/../lib/gcc/powerpc64-ps3-elf/4.5.2/../../../../powerpc64-ps3-elf/lib\libc.a(lib_a-iswspace.o)
                0x0000000000044410                iswspace
 .opd           0x0000000000044428       0xc0 c:/psdk3v2/ps3dev/ppu/bin/../lib/gcc/powerpc64-ps3-elf/4.5.2/../../../../powerpc64-ps3-elf/lib\libc.a(lib_a-locale.o)
                0x0000000000044428                _setlocale_r
                0x0000000000044440                __locale_charset
                0x0000000000044458                __locale_mb_cur_max
                0x0000000000044470                __locale_msgcharset
                0x0000000000044488                __locale_cjk_lang
                0x00000000000444a0                _localeconv_r
                0x00000000000444b8                setlocale
                0x00000000000444d0                localeconv
 .opd           0x00000000000444e8       0x78 c:/psdk3v2/ps3dev/ppu/bin/../lib/gcc/powerpc64-ps3-elf/4.5.2/../../../../powerpc64-ps3-elf/lib\libc.a(lib_a-lock_recursive.o)
                0x00000000000444e8                __libc_lock_init_recursive
                0x0000000000044500                __libc_lock_close_recursive
                0x0000000000044518                __libc_lock_acquire_recursive
                0x0000000000044530                __libc_lock_try_acquire_recursive
                0x0000000000044548                __libc_lock_release_recursive
 .opd           0x0000000000044560       0x30 c:/psdk3v2/ps3dev/ppu/bin/../lib/gcc/powerpc64-ps3-elf/4.5.2/../../../../powerpc64-ps3-elf/lib\libc.a(lib_a-mbrtowc.o)
                0x0000000000044560                _mbrtowc_r
                0x0000000000044578                mbrtowc
 .opd           0x0000000000044590       0x30 c:/psdk3v2/ps3dev/ppu/bin/../lib/gcc/powerpc64-ps3-elf/4.5.2/../../../../powerpc64-ps3-elf/lib\libc.a(lib_a-mbtowc_r.o)
                0x0000000000044590                __ascii_mbtowc
                0x00000000000445a8                _mbtowc_r
 .opd           0x00000000000445c0       0x18 c:/psdk3v2/ps3dev/ppu/bin/../lib/gcc/powerpc64-ps3-elf/4.5.2/../../../../powerpc64-ps3-elf/lib\libc.a(lib_a-s_fpclassify.o)
                0x00000000000445c0                __fpclassifyd
 .opd           0x00000000000445d8       0x18 c:/psdk3v2/ps3dev/ppu/bin/../lib/gcc/powerpc64-ps3-elf/4.5.2/../../../../powerpc64-ps3-elf/lib\libc.a(lib_a-sccl.o)
                0x00000000000445d8                __sccl
 .opd           0x00000000000445f0       0x18 c:/psdk3v2/ps3dev/ppu/bin/../lib/gcc/powerpc64-ps3-elf/4.5.2/../../../../powerpc64-ps3-elf/lib\libc.a(lib_a-sf_nan.o)
                0x00000000000445f0                nanf
 .opd           0x0000000000044608       0x30 c:/psdk3v2/ps3dev/ppu/bin/../lib/gcc/powerpc64-ps3-elf/4.5.2/../../../../powerpc64-ps3-elf/lib\libc.a(lib_a-sprintf.o)
                0x0000000000044608                _sprintf_r
                0x0000000000044620                sprintf
 .opd           0x0000000000044638       0x18 c:/psdk3v2/ps3dev/ppu/bin/../lib/gcc/powerpc64-ps3-elf/4.5.2/../../../../powerpc64-ps3-elf/lib\libc.a(lib_a-strcmp.o)
                0x0000000000044638                strcmp
 .opd           0x0000000000044650       0x60 c:/psdk3v2/ps3dev/ppu/bin/../lib/gcc/powerpc64-ps3-elf/4.5.2/../../../../powerpc64-ps3-elf/lib\libc.a(lib_a-strtod.o)
                0x0000000000044668                _strtod_r
                0x0000000000044680                strtod
                0x0000000000044698                strtof
 .opd           0x00000000000446b0       0x30 c:/psdk3v2/ps3dev/ppu/bin/../lib/gcc/powerpc64-ps3-elf/4.5.2/../../../../powerpc64-ps3-elf/lib\libc.a(lib_a-strtol.o)
                0x00000000000446b0                _strtol_r
                0x00000000000446c8                strtol
 .opd           0x00000000000446e0       0x18 c:/psdk3v2/ps3dev/ppu/bin/../lib/gcc/powerpc64-ps3-elf/4.5.2/../../../../powerpc64-ps3-elf/lib\libc.a(lib_a-strtoll_r.o)
                0x00000000000446e0                _strtoll_r
 .opd           0x00000000000446f8       0x30 c:/psdk3v2/ps3dev/ppu/bin/../lib/gcc/powerpc64-ps3-elf/4.5.2/../../../../powerpc64-ps3-elf/lib\libc.a(lib_a-strtoul.o)
                0x00000000000446f8                _strtoul_r
                0x0000000000044710                strtoul
 .opd           0x0000000000044728       0x18 c:/psdk3v2/ps3dev/ppu/bin/../lib/gcc/powerpc64-ps3-elf/4.5.2/../../../../powerpc64-ps3-elf/lib\libc.a(lib_a-strtoull_r.o)
                0x0000000000044728                _strtoull_r
 .opd           0x0000000000044740       0x60 c:/psdk3v2/ps3dev/ppu/bin/../lib/gcc/powerpc64-ps3-elf/4.5.2/../../../../powerpc64-ps3-elf/lib\libc.a(lib_a-svfiscanf.o)
                0x0000000000044740                _sungetc_r
                0x0000000000044758                __ssrefill_r
                0x0000000000044770                _sfread_r
                0x0000000000044788                __ssvfiscanf_r
 .opd           0x00000000000447a0       0x18 c:/psdk3v2/ps3dev/ppu/bin/../lib/gcc/powerpc64-ps3-elf/4.5.2/../../../../powerpc64-ps3-elf/lib\libc.a(lib_a-svfprintf.o)
                0x00000000000447a0                _svfprintf_r
 .opd           0x00000000000447b8       0x48 c:/psdk3v2/ps3dev/ppu/bin/../lib/gcc/powerpc64-ps3-elf/4.5.2/../../../../powerpc64-ps3-elf/lib\libc.a(lib_a-ungetc.o)
                0x00000000000447b8                __submore
                0x00000000000447d0                _ungetc_r
                0x00000000000447e8                ungetc
 .opd           0x0000000000044800       0x30 c:/psdk3v2/ps3dev/ppu/bin/../lib/gcc/powerpc64-ps3-elf/4.5.2/../../../../powerpc64-ps3-elf/lib\libc.a(lib_a-dtoa.o)
                0x0000000000044818                _dtoa_r
 .opd           0x0000000000044830       0x30 c:/psdk3v2/ps3dev/ppu/bin/../lib/gcc/powerpc64-ps3-elf/4.5.2/../../../../powerpc64-ps3-elf/lib\libc.a(lib_a-fclose.o)
                0x0000000000044830                _fclose_r
                0x0000000000044848                fclose
 .opd           0x0000000000044860       0x30 c:/psdk3v2/ps3dev/ppu/bin/../lib/gcc/powerpc64-ps3-elf/4.5.2/../../../../powerpc64-ps3-elf/lib\libc.a(lib_a-fflush.o)
                0x0000000000044860                _fflush_r
                0x0000000000044878                fflush
 .opd           0x0000000000044890       0x48 c:/psdk3v2/ps3dev/ppu/bin/../lib/gcc/powerpc64-ps3-elf/4.5.2/../../../../powerpc64-ps3-elf/lib\libc.a(lib_a-gdtoa-gethex.o)
                0x00000000000448a8                __hexdig_init
                0x00000000000448c0                __gethex
 .opd           0x00000000000448d8       0x18 c:/psdk3v2/ps3dev/ppu/bin/../lib/gcc/powerpc64-ps3-elf/4.5.2/../../../../powerpc64-ps3-elf/lib\libc.a(lib_a-gdtoa-hexnan.o)
                0x00000000000448d8                __hexnan
 .opd           0x00000000000448f0       0x30 c:/psdk3v2/ps3dev/ppu/bin/../lib/gcc/powerpc64-ps3-elf/4.5.2/../../../../powerpc64-ps3-elf/lib\libc.a(lib_a-lock_internal.o)
                0x0000000000044908                __libc_auto_lock_allocate
 .opd           0x0000000000044920       0x18 c:/psdk3v2/ps3dev/ppu/bin/../lib/gcc/powerpc64-ps3-elf/4.5.2/../../../../powerpc64-ps3-elf/lib\libc.a(lib_a-memchr.o)
                0x0000000000044920                memchr
 .opd           0x0000000000044938      0x1c8 c:/psdk3v2/ps3dev/ppu/bin/../lib/gcc/powerpc64-ps3-elf/4.5.2/../../../../powerpc64-ps3-elf/lib\libc.a(lib_a-mprec.o)
                0x0000000000044938                _Balloc
                0x0000000000044950                _Bfree
                0x0000000000044968                __multadd
                0x0000000000044980                __s2b
                0x0000000000044998                __hi0bits
                0x00000000000449b0                __lo0bits
                0x00000000000449c8                __i2b
                0x00000000000449e0                __multiply
                0x00000000000449f8                __pow5mult
                0x0000000000044a10                __lshift
                0x0000000000044a28                __mcmp
                0x0000000000044a40                __mdiff
                0x0000000000044a58                __ulp
                0x0000000000044a70                __b2d
                0x0000000000044a88                __d2b
                0x0000000000044aa0                __ratio
                0x0000000000044ab8                _mprec_log10
                0x0000000000044ad0                __copybits
                0x0000000000044ae8                __any_on
 .opd           0x0000000000044b00       0x18 c:/psdk3v2/ps3dev/ppu/bin/../lib/gcc/powerpc64-ps3-elf/4.5.2/../../../../powerpc64-ps3-elf/lib\libc.a(lib_a-reallocr.o)
                0x0000000000044b00                _realloc_r
 .opd           0x0000000000044b18       0x18 c:/psdk3v2/ps3dev/ppu/bin/../lib/gcc/powerpc64-ps3-elf/4.5.2/../../../../powerpc64-ps3-elf/lib\libc.a(lib_a-strncmp.o)
                0x0000000000044b18                strncmp
 .opd           0x0000000000044b30       0x30 c:/psdk3v2/ps3dev/ppu/bin/../lib/gcc/powerpc64-ps3-elf/4.5.2/../../../../powerpc64-ps3-elf/lib\libc.a(lib_a-svfiprintf.o)
                0x0000000000044b30                __ssprint_r
                0x0000000000044b48                _svfiprintf_r
 .opd           0x0000000000044b60       0x18 c:/psdk3v2/ps3dev/ppu/bin/../lib/gcc/powerpc64-ps3-elf/4.5.2/../../../../powerpc64-ps3-elf/lib\libc.a(lib_a-abort.o)
                0x0000000000044b60                abort
 .opd           0x0000000000044b78       0x18 c:/psdk3v2/ps3dev/ppu/bin/../lib/gcc/powerpc64-ps3-elf/4.5.2/../../../../powerpc64-ps3-elf/lib\libc.a(lib_a-callocr.o)
                0x0000000000044b78                _calloc_r
 .opd           0x0000000000044b90       0x18 c:/psdk3v2/ps3dev/ppu/bin/../lib/gcc/powerpc64-ps3-elf/4.5.2/../../../../powerpc64-ps3-elf/lib\libc.a(lib_a-memmove.o)
                0x0000000000044b90                memmove
 .opd           0x0000000000044ba8       0xc0 c:/psdk3v2/ps3dev/ppu/bin/../lib/gcc/powerpc64-ps3-elf/4.5.2/../../../../powerpc64-ps3-elf/lib\libc.a(lib_a-signal.o)
                0x0000000000044ba8                _init_signal_r
                0x0000000000044bc0                _signal_r
                0x0000000000044bd8                _raise_r
                0x0000000000044bf0                __sigtramp_r
                0x0000000000044c08                raise
                0x0000000000044c20                signal
                0x0000000000044c38                _init_signal
                0x0000000000044c50                __sigtramp
 .opd           0x0000000000044c68       0x18 c:/psdk3v2/ps3dev/ppu/bin/../lib/gcc/powerpc64-ps3-elf/4.5.2/../../../../powerpc64-ps3-elf/lib\libsysbase.a(close.o)
                0x0000000000044c68                _close_r
 .opd           0x0000000000044c80       0x18 c:/psdk3v2/ps3dev/ppu/bin/../lib/gcc/powerpc64-ps3-elf/4.5.2/../../../../powerpc64-ps3-elf/lib\libsysbase.a(sbrk.o)
                0x0000000000044c80                _sbrk_r
 .opd           0x0000000000044c98       0x18 c:/psdk3v2/ps3dev/ppu/bin/../lib/gcc/powerpc64-ps3-elf/4.5.2/../../../../powerpc64-ps3-elf/lib\libsysbase.a(_exit.o)
                0x0000000000044c98                _exit
 .opd           0x0000000000044cb0       0x18 c:/psdk3v2/ps3dev/ppu/bin/../lib/gcc/powerpc64-ps3-elf/4.5.2/../../../../powerpc64-ps3-elf/lib\libsysbase.a(lseek.o)
                0x0000000000044cb0                _lseek_r
 .opd           0x0000000000044cc8       0x18 c:/psdk3v2/ps3dev/ppu/bin/../lib/gcc/powerpc64-ps3-elf/4.5.2/../../../../powerpc64-ps3-elf/lib\libsysbase.a(read.o)
                0x0000000000044cc8                _read_r
 .opd           0x0000000000044ce0       0x18 c:/psdk3v2/ps3dev/ppu/bin/../lib/gcc/powerpc64-ps3-elf/4.5.2/../../../../powerpc64-ps3-elf/lib\libsysbase.a(write.o)
                0x0000000000044ce0                _write_r
 .opd           0x0000000000044cf8       0x78 c:/psdk3v2/ps3dev/ppu/bin/../lib/gcc/powerpc64-ps3-elf/4.5.2/../../../../powerpc64-ps3-elf/lib\libsysbase.a(lock.o)
                0x0000000000044cf8                sys_lwmutex_create
                0x0000000000044d10                sys_lwmutex_destroy
                0x0000000000044d28                sys_lwmutex_lock
                0x0000000000044d40                sys_lwmutex_trylock
                0x0000000000044d58                sys_lwmutex_unlock
 .opd           0x0000000000044d70       0x18 c:/psdk3v2/ps3dev/ppu/bin/../lib/gcc/powerpc64-ps3-elf/4.5.2/../../../../powerpc64-ps3-elf/lib\libsysbase.a(getpid.o)
                0x0000000000044d70                _getpid_r
 .opd           0x0000000000044d88       0x18 c:/psdk3v2/ps3dev/ppu/bin/../lib/gcc/powerpc64-ps3-elf/4.5.2/../../../../powerpc64-ps3-elf/lib\libsysbase.a(kill.o)
                0x0000000000044d88                _kill_r
 .opd           0x0000000000044da0       0x18 c:/psdk3v2/ps3dev/ppu/bin/../lib/gcc/powerpc64-ps3-elf/4.5.2/crtend.o

.branch_lt      0x0000000000044db8        0x0
 *(.branch_lt)
 .branch_lt     0x0000000000044db8        0x0 linker stubs

.got            0x0000000000044db8      0xc50
 *(.got .toc)
 .toc           0x0000000000044db8       0x50 c:/psdk3v2/ps3dev/ppu/bin/../lib/gcc/powerpc64-ps3-elf/4.5.2/crtbegin.o
 .toc           0x0000000000044e08       0x28 c:/PSDK3v2/psl1ght/ppu/lib\librt.a(sbrk.o)
 .toc           0x0000000000044e30        0x8 c:/psdk3v2/ps3dev/ppu/bin/../lib/gcc/powerpc64-ps3-elf/4.5.2/crtend.o
 .toc           0x0000000000044e38      0x118 c:/psdk3v2/ps3dev/ppu/bin/../lib/gcc/powerpc64-ps3-elf/4.5.2/../../../../powerpc64-ps3-elf/lib/lv2-crt0.o
 .toc           0x0000000000044f50       0x78 main.o
 .toc           0x0000000000044fc8      0x370 c:/PSDK3v2/ps3dev/portlibs/ppu/lib\libtiny3d.a(tiny3d.o)
 .toc           0x0000000000045338       0x28 c:/PSDK3v2/ps3dev/portlibs/ppu/lib\libtiny3d.a(commands.o)
 .toc           0x0000000000045360       0x38 c:/PSDK3v2/ps3dev/portlibs/ppu/lib\libtiny3d.a(matrix.o)
 .toc           0x0000000000045398       0x18 c:/PSDK3v2/ps3dev/portlibs/ppu/lib\libtiny3d.a(mm.o)
 .toc           0x00000000000453b0       0x60 c:/PSDK3v2/ps3dev/portlibs/ppu/lib\libtiny3d.a(rsxutil.o)
 .toc           0x0000000000045410        0x8 c:/PSDK3v2/psl1ght/ppu/lib\librt.a(open.o)
 .toc           0x0000000000045418        0x8 c:/PSDK3v2/psl1ght/ppu/lib\librt.a(socket.o)
 .toc           0x0000000000045420        0x8 c:/PSDK3v2/psl1ght/ppu/lib\librt.a(mkdir.o)
 .toc           0x0000000000045428        0x8 c:/PSDK3v2/psl1ght/ppu/lib\librt.a(umask.o)
 .toc           0x0000000000045430       0x10 c:/PSDK3v2/psl1ght/ppu/lib\libpngdec.a(pngdec.o)
 .toc           0x0000000000045440       0x38 c:/psdk3v2/ps3dev/ppu/bin/../lib/gcc/powerpc64-ps3-elf/4.5.2/../../../../powerpc64-ps3-elf/lib\libm.a(lib_a-s_sqrt.o)
 .toc           0x0000000000045478       0x60 c:/psdk3v2/ps3dev/ppu/bin/../lib/gcc/powerpc64-ps3-elf/4.5.2/../../../../powerpc64-ps3-elf/lib\libm.a(lib_a-sf_sine.o)
 .toc           0x00000000000454d8       0x38 c:/psdk3v2/ps3dev/ppu/bin/../lib/gcc/powerpc64-ps3-elf/4.5.2/../../../../powerpc64-ps3-elf/lib\libm.a(lib_a-sf_sqrt.o)
 .toc           0x0000000000045510       0x58 c:/psdk3v2/ps3dev/ppu/bin/../lib/gcc/powerpc64-ps3-elf/4.5.2/../../../../powerpc64-ps3-elf/lib\libm.a(lib_a-sf_tan.o)
 .toc           0x0000000000045568        0x8 c:/psdk3v2/ps3dev/ppu/bin/../lib/gcc/powerpc64-ps3-elf/4.5.2/../../../../powerpc64-ps3-elf/lib\libm.a(lib_a-s_ldexp.o)
 .toc           0x0000000000045570        0x8 c:/psdk3v2/ps3dev/ppu/bin/../lib/gcc/powerpc64-ps3-elf/4.5.2/../../../../powerpc64-ps3-elf/lib\libm.a(lib_a-s_numtest.o)
 .toc           0x0000000000045578        0x8 c:/psdk3v2/ps3dev/ppu/bin/../lib/gcc/powerpc64-ps3-elf/4.5.2/../../../../powerpc64-ps3-elf/lib\libm.a(lib_a-sf_fabs.o)
 .toc           0x0000000000045580        0x8 c:/psdk3v2/ps3dev/ppu/bin/../lib/gcc/powerpc64-ps3-elf/4.5.2/../../../../powerpc64-ps3-elf/lib\libm.a(lib_a-sf_ldexp.o)
 .toc           0x0000000000045588        0x8 c:/psdk3v2/ps3dev/ppu/bin/../lib/gcc/powerpc64-ps3-elf/4.5.2/../../../../powerpc64-ps3-elf/lib\libm.a(lib_a-sf_numtest.o)
 .toc           0x0000000000045590        0x8 c:/psdk3v2/ps3dev/ppu/bin/../lib/gcc/powerpc64-ps3-elf/4.5.2/../../../../powerpc64-ps3-elf/lib\libsysbase.a(sleep.o)
 .toc           0x0000000000045598        0x8 c:/psdk3v2/ps3dev/ppu/bin/../lib/gcc/powerpc64-ps3-elf/4.5.2/../../../../powerpc64-ps3-elf/lib\libc.a(lib_a-exit.o)
 .toc           0x00000000000455a0        0x8 c:/psdk3v2/ps3dev/ppu/bin/../lib/gcc/powerpc64-ps3-elf/4.5.2/../../../../powerpc64-ps3-elf/lib\libc.a(lib_a-getreent.o)
 .toc           0x00000000000455a8       0x30 c:/psdk3v2/ps3dev/ppu/bin/../lib/gcc/powerpc64-ps3-elf/4.5.2/../../../../powerpc64-ps3-elf/lib\libc.a(lib_a-mallocr.o)
 .toc           0x00000000000455d8        0x8 c:/psdk3v2/ps3dev/ppu/bin/../lib/gcc/powerpc64-ps3-elf/4.5.2/../../../../powerpc64-ps3-elf/lib\libc.a(lib_a-mlock.o)
 .toc           0x00000000000455e0        0x8 c:/psdk3v2/ps3dev/ppu/bin/../lib/gcc/powerpc64-ps3-elf/4.5.2/../../../../powerpc64-ps3-elf/lib\libc.a(lib_a-sscanf.o)
 .toc           0x00000000000455e8        0x8 c:/psdk3v2/ps3dev/ppu/bin/../lib/gcc/powerpc64-ps3-elf/4.5.2/../../../../powerpc64-ps3-elf/lib\libc.a(lib_a-strcasecmp.o)
 .toc           0x00000000000455f0       0x40 c:/psdk3v2/ps3dev/ppu/bin/../lib/gcc/powerpc64-ps3-elf/4.5.2/../../../../powerpc64-ps3-elf/lib\libc.a(lib_a-svfscanf.o)
 .toc           0x0000000000045630       0x18 c:/psdk3v2/ps3dev/ppu/bin/../lib/gcc/powerpc64-ps3-elf/4.5.2/../../../../powerpc64-ps3-elf/lib\libc.a(lib_a-__atexit.o)
 .toc           0x0000000000045648       0x18 c:/psdk3v2/ps3dev/ppu/bin/../lib/gcc/powerpc64-ps3-elf/4.5.2/../../../../powerpc64-ps3-elf/lib\libc.a(lib_a-__call_atexit.o)
 .toc           0x0000000000045660       0x58 c:/psdk3v2/ps3dev/ppu/bin/../lib/gcc/powerpc64-ps3-elf/4.5.2/../../../../powerpc64-ps3-elf/lib\libc.a(lib_a-findfp.o)
 .toc           0x00000000000456b8       0x28 c:/psdk3v2/ps3dev/ppu/bin/../lib/gcc/powerpc64-ps3-elf/4.5.2/../../../../powerpc64-ps3-elf/lib\libc.a(lib_a-freer.o)
 .toc           0x00000000000456e0        0x8 c:/psdk3v2/ps3dev/ppu/bin/../lib/gcc/powerpc64-ps3-elf/4.5.2/../../../../powerpc64-ps3-elf/lib\libc.a(lib_a-iswspace.o)
 .toc           0x00000000000456e8       0x38 c:/psdk3v2/ps3dev/ppu/bin/../lib/gcc/powerpc64-ps3-elf/4.5.2/../../../../powerpc64-ps3-elf/lib\libc.a(lib_a-locale.o)
 .toc           0x0000000000045720        0x8 c:/psdk3v2/ps3dev/ppu/bin/../lib/gcc/powerpc64-ps3-elf/4.5.2/../../../../powerpc64-ps3-elf/lib\libc.a(lib_a-lock_recursive.o)
 .toc           0x0000000000045728       0x10 c:/psdk3v2/ps3dev/ppu/bin/../lib/gcc/powerpc64-ps3-elf/4.5.2/../../../../powerpc64-ps3-elf/lib\libc.a(lib_a-mbrtowc.o)
 .toc           0x0000000000045738        0x8 c:/psdk3v2/ps3dev/ppu/bin/../lib/gcc/powerpc64-ps3-elf/4.5.2/../../../../powerpc64-ps3-elf/lib\libc.a(lib_a-mbtowc_r.o)
 .toc           0x0000000000045740        0x8 c:/psdk3v2/ps3dev/ppu/bin/../lib/gcc/powerpc64-ps3-elf/4.5.2/../../../../powerpc64-ps3-elf/lib\libc.a(lib_a-sf_nan.o)
 .toc           0x0000000000045748       0xb0 c:/psdk3v2/ps3dev/ppu/bin/../lib/gcc/powerpc64-ps3-elf/4.5.2/../../../../powerpc64-ps3-elf/lib\libc.a(lib_a-strtod.o)
 .toc           0x00000000000457f8        0x8 c:/psdk3v2/ps3dev/ppu/bin/../lib/gcc/powerpc64-ps3-elf/4.5.2/../../../../powerpc64-ps3-elf/lib\libc.a(lib_a-strtol.o)
 .toc           0x0000000000045800        0x8 c:/psdk3v2/ps3dev/ppu/bin/../lib/gcc/powerpc64-ps3-elf/4.5.2/../../../../powerpc64-ps3-elf/lib\libc.a(lib_a-strtoll_r.o)
 .toc           0x0000000000045808        0x8 c:/psdk3v2/ps3dev/ppu/bin/../lib/gcc/powerpc64-ps3-elf/4.5.2/../../../../powerpc64-ps3-elf/lib\libc.a(lib_a-strtoul.o)
 .toc           0x0000000000045810        0x8 c:/psdk3v2/ps3dev/ppu/bin/../lib/gcc/powerpc64-ps3-elf/4.5.2/../../../../powerpc64-ps3-elf/lib\libc.a(lib_a-strtoull_r.o)
 .toc           0x0000000000045818       0x30 c:/psdk3v2/ps3dev/ppu/bin/../lib/gcc/powerpc64-ps3-elf/4.5.2/../../../../powerpc64-ps3-elf/lib\libc.a(lib_a-svfiscanf.o)
 .toc           0x0000000000045848       0x60 c:/psdk3v2/ps3dev/ppu/bin/../lib/gcc/powerpc64-ps3-elf/4.5.2/../../../../powerpc64-ps3-elf/lib\libc.a(lib_a-svfprintf.o)
 .toc           0x00000000000458a8       0x80 c:/psdk3v2/ps3dev/ppu/bin/../lib/gcc/powerpc64-ps3-elf/4.5.2/../../../../powerpc64-ps3-elf/lib\libc.a(lib_a-dtoa.o)
 .toc           0x0000000000045928       0x10 c:/psdk3v2/ps3dev/ppu/bin/../lib/gcc/powerpc64-ps3-elf/4.5.2/../../../../powerpc64-ps3-elf/lib\libc.a(lib_a-fflush.o)
 .toc           0x0000000000045938       0x20 c:/psdk3v2/ps3dev/ppu/bin/../lib/gcc/powerpc64-ps3-elf/4.5.2/../../../../powerpc64-ps3-elf/lib\libc.a(lib_a-gdtoa-gethex.o)
 .toc           0x0000000000045958        0x8 c:/psdk3v2/ps3dev/ppu/bin/../lib/gcc/powerpc64-ps3-elf/4.5.2/../../../../powerpc64-ps3-elf/lib\libc.a(lib_a-gdtoa-hexnan.o)
 .toc           0x0000000000045960       0x10 c:/psdk3v2/ps3dev/ppu/bin/../lib/gcc/powerpc64-ps3-elf/4.5.2/../../../../powerpc64-ps3-elf/lib\libc.a(lib_a-lock_internal.o)
 .toc           0x0000000000045970       0x20 c:/psdk3v2/ps3dev/ppu/bin/../lib/gcc/powerpc64-ps3-elf/4.5.2/../../../../powerpc64-ps3-elf/lib\libc.a(lib_a-mprec.o)
 .toc           0x0000000000045990        0x8 c:/psdk3v2/ps3dev/ppu/bin/../lib/gcc/powerpc64-ps3-elf/4.5.2/../../../../powerpc64-ps3-elf/lib\libc.a(lib_a-reallocr.o)
 .toc           0x0000000000045998       0x30 c:/psdk3v2/ps3dev/ppu/bin/../lib/gcc/powerpc64-ps3-elf/4.5.2/../../../../powerpc64-ps3-elf/lib\libc.a(lib_a-svfiprintf.o)
 .toc           0x00000000000459c8        0x8 c:/psdk3v2/ps3dev/ppu/bin/../lib/gcc/powerpc64-ps3-elf/4.5.2/../../../../powerpc64-ps3-elf/lib\libsysbase.a(close.o)
 .toc           0x00000000000459d0        0x8 c:/psdk3v2/ps3dev/ppu/bin/../lib/gcc/powerpc64-ps3-elf/4.5.2/../../../../powerpc64-ps3-elf/lib\libsysbase.a(sbrk.o)
 .toc           0x00000000000459d8        0x8 c:/psdk3v2/ps3dev/ppu/bin/../lib/gcc/powerpc64-ps3-elf/4.5.2/../../../../powerpc64-ps3-elf/lib\libsysbase.a(_exit.o)
 .toc           0x00000000000459e0        0x8 c:/psdk3v2/ps3dev/ppu/bin/../lib/gcc/powerpc64-ps3-elf/4.5.2/../../../../powerpc64-ps3-elf/lib\libsysbase.a(lseek.o)
 .toc           0x00000000000459e8        0x8 c:/psdk3v2/ps3dev/ppu/bin/../lib/gcc/powerpc64-ps3-elf/4.5.2/../../../../powerpc64-ps3-elf/lib\libsysbase.a(read.o)
 .toc           0x00000000000459f0        0x8 c:/psdk3v2/ps3dev/ppu/bin/../lib/gcc/powerpc64-ps3-elf/4.5.2/../../../../powerpc64-ps3-elf/lib\libsysbase.a(write.o)
 .toc           0x00000000000459f8        0x8 c:/psdk3v2/ps3dev/ppu/bin/../lib/gcc/powerpc64-ps3-elf/4.5.2/../../../../powerpc64-ps3-elf/lib\libsysbase.a(lock.o)
 .toc           0x0000000000045a00        0x8 c:/psdk3v2/ps3dev/ppu/bin/../lib/gcc/powerpc64-ps3-elf/4.5.2/../../../../powerpc64-ps3-elf/lib\libsysbase.a(getpid.o)
 .toc           0x0000000000045a08        0x0 c:/PSDK3v2/ps3dev/portlibs/ppu/lib\libtiny3d.a(glue.o)
 .toc           0x0000000000045a08        0x0 c:/PSDK3v2/ps3dev/portlibs/ppu/lib\libtiny3d.a(realityVP.o)
 .toc           0x0000000000045a08        0x0 c:/PSDK3v2/ps3dev/portlibs/ppu/lib\libtiny3d.a(buffer.o)
 .got           0x0000000000045a08        0x0 c:/PSDK3v2/psl1ght/ppu/lib\libgcm_sys.a(sprx.o)
 .got           0x0000000000045a08        0x0 c:/PSDK3v2/psl1ght/ppu/lib\libio.a(sprx.o)
 .got           0x0000000000045a08        0x0 c:/PSDK3v2/psl1ght/ppu/lib\libsysutil.a(sprx.o)
 .toc           0x0000000000045a08        0x0 c:/PSDK3v2/psl1ght/ppu/lib\libsysutil.a(sysutil_wrapper.o)
 .toc           0x0000000000045a08        0x0 c:/PSDK3v2/psl1ght/ppu/lib\librt.a(exit.o)
 .toc           0x0000000000045a08        0x0 c:/PSDK3v2/psl1ght/ppu/lib\librt.a(close.o)
 .toc           0x0000000000045a08        0x0 c:/PSDK3v2/psl1ght/ppu/lib\librt.a(lseek.o)
 .toc           0x0000000000045a08        0x0 c:/PSDK3v2/psl1ght/ppu/lib\librt.a(read.o)
 .toc           0x0000000000045a08        0x0 c:/PSDK3v2/psl1ght/ppu/lib\librt.a(sleep.o)
 .toc           0x0000000000045a08        0x0 c:/PSDK3v2/psl1ght/ppu/lib\librt.a(write.o)
 .toc           0x0000000000045a08        0x0 c:/PSDK3v2/psl1ght/ppu/lib\librt.a(fstat.o)
 .toc           0x0000000000045a08        0x0 c:/PSDK3v2/psl1ght/ppu/lib\librt.a(lock.o)
 .toc           0x0000000000045a08        0x0 c:/PSDK3v2/psl1ght/ppu/lib\librt.a(dirent.o)
 .toc           0x0000000000045a08        0x0 c:/PSDK3v2/psl1ght/ppu/lib\librt.a(times.o)
 .toc           0x0000000000045a08        0x0 c:/PSDK3v2/psl1ght/ppu/lib\librt.a(lv2errno.o)
 .toc           0x0000000000045a08        0x0 c:/PSDK3v2/psl1ght/ppu/lib\librt.a(heap.o)
 .toc           0x0000000000045a08        0x0 c:/PSDK3v2/psl1ght/ppu/lib\librt.a(chmod.o)
 .toc           0x0000000000045a08        0x0 c:/PSDK3v2/psl1ght/ppu/lib\librt.a(rmdir.o)
 .toc           0x0000000000045a08        0x0 c:/PSDK3v2/psl1ght/ppu/lib\librt.a(isatty.o)
 .toc           0x0000000000045a08        0x0 c:/PSDK3v2/psl1ght/ppu/lib\librt.a(gettod.o)
 .toc           0x0000000000045a08        0x0 c:/PSDK3v2/psl1ght/ppu/lib\librt.a(settod.o)
 .got           0x0000000000045a08        0x0 c:/PSDK3v2/psl1ght/ppu/lib\liblv2.a(sprx.o)
 .got           0x0000000000045a08        0x0 c:/PSDK3v2/psl1ght/ppu/lib\libpngdec.a(sprx.o)
 .got           0x0000000000045a08        0x0 c:/PSDK3v2/psl1ght/ppu/lib\libsysmodule.a(sprx.o)
 .toc           0x0000000000045a08        0x0 c:/psdk3v2/ps3dev/ppu/bin/../lib/gcc/powerpc64-ps3-elf/4.5.2/../../../../powerpc64-ps3-elf/lib\libm.a(lib_a-sf_cos.o)
 .toc           0x0000000000045a08        0x0 c:/psdk3v2/ps3dev/ppu/bin/../lib/gcc/powerpc64-ps3-elf/4.5.2/../../../../powerpc64-ps3-elf/lib\libm.a(lib_a-sf_sin.o)
 .toc           0x0000000000045a08        0x0 c:/psdk3v2/ps3dev/ppu/bin/../lib/gcc/powerpc64-ps3-elf/4.5.2/../../../../powerpc64-ps3-elf/lib\libm.a(lib_a-s_frexp.o)
 .toc           0x0000000000045a08        0x0 c:/psdk3v2/ps3dev/ppu/bin/../lib/gcc/powerpc64-ps3-elf/4.5.2/../../../../powerpc64-ps3-elf/lib\libm.a(lib_a-s_ispos.o)
 .toc           0x0000000000045a08        0x0 c:/psdk3v2/ps3dev/ppu/bin/../lib/gcc/powerpc64-ps3-elf/4.5.2/../../../../powerpc64-ps3-elf/lib\libm.a(lib_a-s_mathcnst.o)
 .toc           0x0000000000045a08        0x0 c:/psdk3v2/ps3dev/ppu/bin/../lib/gcc/powerpc64-ps3-elf/4.5.2/../../../../powerpc64-ps3-elf/lib\libm.a(lib_a-sf_frexp.o)
 .toc           0x0000000000045a08        0x0 c:/psdk3v2/ps3dev/ppu/bin/../lib/gcc/powerpc64-ps3-elf/4.5.2/../../../../powerpc64-ps3-elf/lib\libm.a(lib_a-sf_ispos.o)
 .toc           0x0000000000045a08        0x0 c:/psdk3v2/ps3dev/ppu/bin/../lib/gcc/powerpc64-ps3-elf/4.5.2/../../../../powerpc64-ps3-elf/lib\libsysbase.a(syscalls.o)
 .toc           0x0000000000045a08        0x0 c:/psdk3v2/ps3dev/ppu/bin/../lib/gcc/powerpc64-ps3-elf/4.5.2/../../../../powerpc64-ps3-elf/lib\libc.a(lib_a-atexit.o)
 .toc           0x0000000000045a08        0x0 c:/psdk3v2/ps3dev/ppu/bin/../lib/gcc/powerpc64-ps3-elf/4.5.2/../../../../powerpc64-ps3-elf/lib\libc.a(lib_a-errno.o)
 .toc           0x0000000000045a08        0x0 c:/psdk3v2/ps3dev/ppu/bin/../lib/gcc/powerpc64-ps3-elf/4.5.2/../../../../powerpc64-ps3-elf/lib\libc.a(lib_a-impure.o)
 .toc           0x0000000000045a08        0x0 c:/psdk3v2/ps3dev/ppu/bin/../lib/gcc/powerpc64-ps3-elf/4.5.2/../../../../powerpc64-ps3-elf/lib\libc.a(lib_a-malign.o)
 .toc           0x0000000000045a08        0x0 c:/psdk3v2/ps3dev/ppu/bin/../lib/gcc/powerpc64-ps3-elf/4.5.2/../../../../powerpc64-ps3-elf/lib\libc.a(lib_a-malignr.o)
 .toc           0x0000000000045a08        0x0 c:/psdk3v2/ps3dev/ppu/bin/../lib/gcc/powerpc64-ps3-elf/4.5.2/../../../../powerpc64-ps3-elf/lib\libc.a(lib_a-malloc.o)
 .toc           0x0000000000045a08        0x0 c:/psdk3v2/ps3dev/ppu/bin/../lib/gcc/powerpc64-ps3-elf/4.5.2/../../../../powerpc64-ps3-elf/lib\libc.a(lib_a-memcpy.o)
 .toc           0x0000000000045a08        0x0 c:/psdk3v2/ps3dev/ppu/bin/../lib/gcc/powerpc64-ps3-elf/4.5.2/../../../../powerpc64-ps3-elf/lib\libc.a(lib_a-memset.o)
 .toc           0x0000000000045a08        0x0 c:/psdk3v2/ps3dev/ppu/bin/../lib/gcc/powerpc64-ps3-elf/4.5.2/../../../../powerpc64-ps3-elf/lib\libc.a(lib_a-stdio.o)
 .toc           0x0000000000045a08        0x0 c:/psdk3v2/ps3dev/ppu/bin/../lib/gcc/powerpc64-ps3-elf/4.5.2/../../../../powerpc64-ps3-elf/lib\libc.a(lib_a-strlen.o)
 .toc           0x0000000000045a08        0x0 c:/psdk3v2/ps3dev/ppu/bin/../lib/gcc/powerpc64-ps3-elf/4.5.2/../../../../powerpc64-ps3-elf/lib\libc.a(lib_a-strncpy.o)
 .toc           0x0000000000045a08        0x0 c:/psdk3v2/ps3dev/ppu/bin/../lib/gcc/powerpc64-ps3-elf/4.5.2/../../../../powerpc64-ps3-elf/lib\libc.a(lib_a-ctype_.o)
 .toc           0x0000000000045a08        0x0 c:/psdk3v2/ps3dev/ppu/bin/../lib/gcc/powerpc64-ps3-elf/4.5.2/../../../../powerpc64-ps3-elf/lib\libc.a(lib_a-fwalk.o)
 .toc           0x0000000000045a08        0x0 c:/psdk3v2/ps3dev/ppu/bin/../lib/gcc/powerpc64-ps3-elf/4.5.2/../../../../powerpc64-ps3-elf/lib\libc.a(lib_a-s_fpclassify.o)
 .toc           0x0000000000045a08        0x0 c:/psdk3v2/ps3dev/ppu/bin/../lib/gcc/powerpc64-ps3-elf/4.5.2/../../../../powerpc64-ps3-elf/lib\libc.a(lib_a-sccl.o)
 .toc           0x0000000000045a08        0x0 c:/psdk3v2/ps3dev/ppu/bin/../lib/gcc/powerpc64-ps3-elf/4.5.2/../../../../powerpc64-ps3-elf/lib\libc.a(lib_a-sprintf.o)
 .toc           0x0000000000045a08        0x0 c:/psdk3v2/ps3dev/ppu/bin/../lib/gcc/powerpc64-ps3-elf/4.5.2/../../../../powerpc64-ps3-elf/lib\libc.a(lib_a-strcmp.o)
 .toc           0x0000000000045a08        0x0 c:/psdk3v2/ps3dev/ppu/bin/../lib/gcc/powerpc64-ps3-elf/4.5.2/../../../../powerpc64-ps3-elf/lib\libc.a(lib_a-ungetc.o)
 .toc           0x0000000000045a08        0x0 c:/psdk3v2/ps3dev/ppu/bin/../lib/gcc/powerpc64-ps3-elf/4.5.2/../../../../powerpc64-ps3-elf/lib\libc.a(lib_a-fclose.o)
 .toc           0x0000000000045a08        0x0 c:/psdk3v2/ps3dev/ppu/bin/../lib/gcc/powerpc64-ps3-elf/4.5.2/../../../../powerpc64-ps3-elf/lib\libc.a(lib_a-memchr.o)
 .toc           0x0000000000045a08        0x0 c:/psdk3v2/ps3dev/ppu/bin/../lib/gcc/powerpc64-ps3-elf/4.5.2/../../../../powerpc64-ps3-elf/lib\libc.a(lib_a-strncmp.o)
 .toc           0x0000000000045a08        0x0 c:/psdk3v2/ps3dev/ppu/bin/../lib/gcc/powerpc64-ps3-elf/4.5.2/../../../../powerpc64-ps3-elf/lib\libc.a(lib_a-abort.o)
 .toc           0x0000000000045a08        0x0 c:/psdk3v2/ps3dev/ppu/bin/../lib/gcc/powerpc64-ps3-elf/4.5.2/../../../../powerpc64-ps3-elf/lib\libc.a(lib_a-callocr.o)
 .toc           0x0000000000045a08        0x0 c:/psdk3v2/ps3dev/ppu/bin/../lib/gcc/powerpc64-ps3-elf/4.5.2/../../../../powerpc64-ps3-elf/lib\libc.a(lib_a-memmove.o)
 .toc           0x0000000000045a08        0x0 c:/psdk3v2/ps3dev/ppu/bin/../lib/gcc/powerpc64-ps3-elf/4.5.2/../../../../powerpc64-ps3-elf/lib\libc.a(lib_a-signal.o)
 .toc           0x0000000000045a08        0x0 c:/psdk3v2/ps3dev/ppu/bin/../lib/gcc/powerpc64-ps3-elf/4.5.2/../../../../powerpc64-ps3-elf/lib\libsysbase.a(kill.o)

.toc.sceStub
 *(.toc.sceStub)
 *(SORT(.toc.sceStub.*))

.tdata
 *(.tdata .tdata.* .gnu.linkonce.td.*)

.tbss           0x0000000000045a08      0x780
 *(.tbss .tbss.* .gnu.linkonce.tb.*)
 .tbss.t_reent  0x0000000000045a08      0x778 c:/psdk3v2/ps3dev/ppu/bin/../lib/gcc/powerpc64-ps3-elf/4.5.2/../../../../powerpc64-ps3-elf/lib\libc.a(lib_a-getreent.o)
 .tbss.t_reentp
                0x0000000000046180        0x8 c:/psdk3v2/ps3dev/ppu/bin/../lib/gcc/powerpc64-ps3-elf/4.5.2/../../../../powerpc64-ps3-elf/lib\libc.a(lib_a-getreent.o)
 *(.tcommon)
                0x0000000010000000                . = ALIGN (0x10000000)

.rodata         0x0000000010000000    0xf73d0
 *(.rodata .rodata.* .gnu.linkonce.r.*)
 .rodata        0x0000000010000000       0x18 c:/psdk3v2/ps3dev/ppu/bin/../lib/gcc/powerpc64-ps3-elf/4.5.2/../../../../powerpc64-ps3-elf/lib/lv2-crt0.o
                0x0000000010000000                _start
 *fill*         0x0000000010000018       0x28 00
 .rodata        0x0000000010000040    0xf5e1a dorian_png.bin.o
                0x0000000010000040                dorian_png_bin
                0x00000000100f5e56                dorian_png_bin_end
                0x00000000100f5e56                dorian_png_bin_size
 *fill*         0x00000000100f5e5a        0x2 00
 .rodata.cst4   0x00000000100f5e5c       0x24 main.o
 .rodata.str1.8
                0x00000000100f5e80      0x112 c:/PSDK3v2/ps3dev/portlibs/ppu/lib\libtiny3d.a(tiny3d.o)
 *fill*         0x00000000100f5f92        0x2 00
 .rodata.cst4   0x00000000100f5f94       0x50 c:/PSDK3v2/ps3dev/portlibs/ppu/lib\libtiny3d.a(tiny3d.o)
                                         0x60 (size before relaxing)
 *fill*         0x00000000100f5fe4        0x4 00
 .rodata.fpshader_list
                0x00000000100f5fe8       0x70 c:/PSDK3v2/ps3dev/portlibs/ppu/lib\libtiny3d.a(tiny3d.o)
 .rodata        0x00000000100f6058      0xe00 c:/PSDK3v2/ps3dev/portlibs/ppu/lib\libtiny3d.a(vshader_text_normal.vcg.o)
                0x00000000100f6058                vshader_text_normal_bin
 .rodata.offset_cmds
                0x00000000100f6e58       0x14 c:/PSDK3v2/ps3dev/portlibs/ppu/lib\libtiny3d.a(commands.o)
 .rodata.dma_cmds
                0x00000000100f6e6c       0x14 c:/PSDK3v2/ps3dev/portlibs/ppu/lib\libtiny3d.a(commands.o)
 .rodata.pitch_cmds
                0x00000000100f6e80       0x14 c:/PSDK3v2/ps3dev/portlibs/ppu/lib\libtiny3d.a(commands.o)
 .rodata.cst4   0x00000000100f6e94        0xc c:/PSDK3v2/ps3dev/portlibs/ppu/lib\libtiny3d.a(matrix.o)
                                         0x14 (size before relaxing)
 .rodata.cst8   0x00000000100f6ea0        0x8 c:/PSDK3v2/ps3dev/portlibs/ppu/lib\libtiny3d.a(matrix.o)
 .rodata.matrix_ident
                0x00000000100f6ea8       0x40 c:/PSDK3v2/ps3dev/portlibs/ppu/lib\libtiny3d.a(matrix.o)
 .rodata.str1.8
                0x00000000100f6ee8        0xc c:/PSDK3v2/psl1ght/ppu/lib\librt.a(socket.o)
 .rodata.cst4   0x0000000000000000        0x4 c:/psdk3v2/ps3dev/ppu/bin/../lib/gcc/powerpc64-ps3-elf/4.5.2/../../../../powerpc64-ps3-elf/lib\libm.a(lib_a-s_sqrt.o)
 *fill*         0x00000000100f6ef4        0x4 00
 .rodata.cst8   0x00000000100f6ef8       0x18 c:/psdk3v2/ps3dev/ppu/bin/../lib/gcc/powerpc64-ps3-elf/4.5.2/../../../../powerpc64-ps3-elf/lib\libm.a(lib_a-s_sqrt.o)
                                         0x20 (size before relaxing)
 .rodata.cst4   0x00000000100f6f10       0x1c c:/psdk3v2/ps3dev/ppu/bin/../lib/gcc/powerpc64-ps3-elf/4.5.2/../../../../powerpc64-ps3-elf/lib\libm.a(lib_a-sf_sine.o)
                                         0x24 (size before relaxing)
 *fill*         0x00000000100f6f2c        0x4 00
 .rodata.cst8   0x00000000100f6f30        0x8 c:/psdk3v2/ps3dev/ppu/bin/../lib/gcc/powerpc64-ps3-elf/4.5.2/../../../../powerpc64-ps3-elf/lib\libm.a(lib_a-sf_sine.o)
 .rodata.cst4   0x0000000000000000        0x8 c:/psdk3v2/ps3dev/ppu/bin/../lib/gcc/powerpc64-ps3-elf/4.5.2/../../../../powerpc64-ps3-elf/lib\libm.a(lib_a-sf_sqrt.o)
 .rodata.cst8   0x0000000000000000       0x18 c:/psdk3v2/ps3dev/ppu/bin/../lib/gcc/powerpc64-ps3-elf/4.5.2/../../../../powerpc64-ps3-elf/lib\libm.a(lib_a-sf_sqrt.o)
 .rodata.cst4   0x00000000100f6f38       0x10 c:/psdk3v2/ps3dev/ppu/bin/../lib/gcc/powerpc64-ps3-elf/4.5.2/../../../../powerpc64-ps3-elf/lib\libm.a(lib_a-sf_tan.o)
                                         0x1c (size before relaxing)
 .rodata.cst8   0x00000000100f6f48       0x10 c:/psdk3v2/ps3dev/ppu/bin/../lib/gcc/powerpc64-ps3-elf/4.5.2/../../../../powerpc64-ps3-elf/lib\libm.a(lib_a-sf_tan.o)
 .rodata.z_notanum
                0x00000000100f6f58       0x10 c:/psdk3v2/ps3dev/ppu/bin/../lib/gcc/powerpc64-ps3-elf/4.5.2/../../../../powerpc64-ps3-elf/lib\libm.a(lib_a-s_mathcnst.o)
                0x00000000100f6f58                z_notanum
 .rodata.z_infinity_f
                0x00000000100f6f68        0x8 c:/psdk3v2/ps3dev/ppu/bin/../lib/gcc/powerpc64-ps3-elf/4.5.2/../../../../powerpc64-ps3-elf/lib\libm.a(lib_a-s_mathcnst.o)
                0x00000000100f6f68                z_infinity_f
 .rodata.z_hugeval
                0x00000000100f6f70       0x10 c:/psdk3v2/ps3dev/ppu/bin/../lib/gcc/powerpc64-ps3-elf/4.5.2/../../../../powerpc64-ps3-elf/lib\libm.a(lib_a-s_mathcnst.o)
                0x00000000100f6f70                z_hugeval
 .rodata.z_hugeval_f
                0x00000000100f6f80        0x8 c:/psdk3v2/ps3dev/ppu/bin/../lib/gcc/powerpc64-ps3-elf/4.5.2/../../../../powerpc64-ps3-elf/lib\libm.a(lib_a-s_mathcnst.o)
                0x00000000100f6f80                z_hugeval_f
 .rodata.z_infinity
                0x00000000100f6f88       0x10 c:/psdk3v2/ps3dev/ppu/bin/../lib/gcc/powerpc64-ps3-elf/4.5.2/../../../../powerpc64-ps3-elf/lib\libm.a(lib_a-s_mathcnst.o)
                0x00000000100f6f88                z_infinity
 .rodata.z_notanum_f
                0x00000000100f6f98        0x8 c:/psdk3v2/ps3dev/ppu/bin/../lib/gcc/powerpc64-ps3-elf/4.5.2/../../../../powerpc64-ps3-elf/lib\libm.a(lib_a-s_mathcnst.o)
                0x00000000100f6f98                z_notanum_f
 .rodata.cst8   0x0000000000000000        0x8 c:/psdk3v2/ps3dev/ppu/bin/../lib/gcc/powerpc64-ps3-elf/4.5.2/../../../../powerpc64-ps3-elf/lib\libm.a(lib_a-s_numtest.o)
 .rodata.cst4   0x0000000000000000        0x4 c:/psdk3v2/ps3dev/ppu/bin/../lib/gcc/powerpc64-ps3-elf/4.5.2/../../../../powerpc64-ps3-elf/lib\libm.a(lib_a-sf_fabs.o)
 .rodata.cst4   0x0000000000000000        0x4 c:/psdk3v2/ps3dev/ppu/bin/../lib/gcc/powerpc64-ps3-elf/4.5.2/../../../../powerpc64-ps3-elf/lib\libm.a(lib_a-sf_numtest.o)
 .rodata.str1.8
                0x00000000100f6fa0        0x2 c:/psdk3v2/ps3dev/ppu/bin/../lib/gcc/powerpc64-ps3-elf/4.5.2/../../../../powerpc64-ps3-elf/lib\libc.a(lib_a-getreent.o)
 .rodata.str1.8
                0x0000000000000000        0x2 c:/psdk3v2/ps3dev/ppu/bin/../lib/gcc/powerpc64-ps3-elf/4.5.2/../../../../powerpc64-ps3-elf/lib\libc.a(lib_a-impure.o)
 *fill*         0x00000000100f6fa2        0x6 00
 .rodata._global_impure_ptr
                0x00000000100f6fa8        0x8 c:/psdk3v2/ps3dev/ppu/bin/../lib/gcc/powerpc64-ps3-elf/4.5.2/../../../../powerpc64-ps3-elf/lib\libc.a(lib_a-impure.o)
                0x00000000100f6fa8                _global_impure_ptr
 .rodata.basefix.4341
                0x00000000100f6fb0       0x22 c:/psdk3v2/ps3dev/ppu/bin/../lib/gcc/powerpc64-ps3-elf/4.5.2/../../../../powerpc64-ps3-elf/lib\libc.a(lib_a-svfscanf.o)
 *fill*         0x00000000100f6fd2        0x6 00
 .rodata.str1.8
                0x00000000100f6fd8        0x5 c:/psdk3v2/ps3dev/ppu/bin/../lib/gcc/powerpc64-ps3-elf/4.5.2/../../../../powerpc64-ps3-elf/lib\libc.a(lib_a-svfscanf.o)
 *fill*         0x00000000100f6fdd        0x3 00
 .rodata._ctype_
                0x00000000100f6fe0      0x101 c:/psdk3v2/ps3dev/ppu/bin/../lib/gcc/powerpc64-ps3-elf/4.5.2/../../../../powerpc64-ps3-elf/lib\libc.a(lib_a-ctype_.o)
                0x00000000100f6fe0                _ctype_
 *fill*         0x00000000100f70e1        0x7 00
 .rodata.str1.8
                0x00000000100f70e8        0xa c:/psdk3v2/ps3dev/ppu/bin/../lib/gcc/powerpc64-ps3-elf/4.5.2/../../../../powerpc64-ps3-elf/lib\libc.a(lib_a-locale.o)
                                         0x1a (size before relaxing)
 *fill*         0x00000000100f70f2        0x2 00
 .rodata.__libc_lock_attributes
                0x00000000100f70f4       0x10 c:/psdk3v2/ps3dev/ppu/bin/../lib/gcc/powerpc64-ps3-elf/4.5.2/../../../../powerpc64-ps3-elf/lib\libc.a(lib_a-lock_recursive.o)
 .rodata.str1.8
                0x0000000000000000        0x1 c:/psdk3v2/ps3dev/ppu/bin/../lib/gcc/powerpc64-ps3-elf/4.5.2/../../../../powerpc64-ps3-elf/lib\libc.a(lib_a-mbrtowc.o)
 .rodata.cst4   0x00000000100f7104        0x4 c:/psdk3v2/ps3dev/ppu/bin/../lib/gcc/powerpc64-ps3-elf/4.5.2/../../../../powerpc64-ps3-elf/lib\libc.a(lib_a-sf_nan.o)
 .rodata.cst4   0x00000000100f7108        0xc c:/psdk3v2/ps3dev/ppu/bin/../lib/gcc/powerpc64-ps3-elf/4.5.2/../../../../powerpc64-ps3-elf/lib\libc.a(lib_a-strtod.o)
                                         0x14 (size before relaxing)
 *fill*         0x00000000100f7114        0x4 00
 .rodata.cst8   0x00000000100f7118       0x20 c:/psdk3v2/ps3dev/ppu/bin/../lib/gcc/powerpc64-ps3-elf/4.5.2/../../../../powerpc64-ps3-elf/lib\libc.a(lib_a-strtod.o)
                                         0x28 (size before relaxing)
 .rodata.str1.8
                0x00000000100f7138       0x13 c:/psdk3v2/ps3dev/ppu/bin/../lib/gcc/powerpc64-ps3-elf/4.5.2/../../../../powerpc64-ps3-elf/lib\libc.a(lib_a-strtod.o)
 *fill*         0x00000000100f714b        0x5 00
 .rodata.tinytens
                0x00000000100f7150       0x28 c:/psdk3v2/ps3dev/ppu/bin/../lib/gcc/powerpc64-ps3-elf/4.5.2/../../../../powerpc64-ps3-elf/lib\libc.a(lib_a-strtod.o)
 .rodata.basefix.3841
                0x00000000100f7178       0x22 c:/psdk3v2/ps3dev/ppu/bin/../lib/gcc/powerpc64-ps3-elf/4.5.2/../../../../powerpc64-ps3-elf/lib\libc.a(lib_a-svfiscanf.o)
 *fill*         0x00000000100f719a        0x6 00
 .rodata.zeroes.4425
                0x00000000100f71a0       0x10 c:/psdk3v2/ps3dev/ppu/bin/../lib/gcc/powerpc64-ps3-elf/4.5.2/../../../../powerpc64-ps3-elf/lib\libc.a(lib_a-svfprintf.o)
 .rodata.cst8   0x0000000000000000        0x8 c:/psdk3v2/ps3dev/ppu/bin/../lib/gcc/powerpc64-ps3-elf/4.5.2/../../../../powerpc64-ps3-elf/lib\libc.a(lib_a-svfprintf.o)
 .rodata.blanks.4424
                0x00000000100f71b0       0x10 c:/psdk3v2/ps3dev/ppu/bin/../lib/gcc/powerpc64-ps3-elf/4.5.2/../../../../powerpc64-ps3-elf/lib\libc.a(lib_a-svfprintf.o)
 .rodata.str1.8
                0x00000000100f71c0       0x5a c:/psdk3v2/ps3dev/ppu/bin/../lib/gcc/powerpc64-ps3-elf/4.5.2/../../../../powerpc64-ps3-elf/lib\libc.a(lib_a-svfprintf.o)
 *fill*         0x00000000100f721a        0x2 00
 .rodata.cst4   0x00000000100f721c        0xc c:/psdk3v2/ps3dev/ppu/bin/../lib/gcc/powerpc64-ps3-elf/4.5.2/../../../../powerpc64-ps3-elf/lib\libc.a(lib_a-dtoa.o)
                                         0x18 (size before relaxing)
 .rodata.cst8   0x00000000100f7228       0x18 c:/psdk3v2/ps3dev/ppu/bin/../lib/gcc/powerpc64-ps3-elf/4.5.2/../../../../powerpc64-ps3-elf/lib\libc.a(lib_a-dtoa.o)
                                         0x20 (size before relaxing)
 .rodata.str1.8
                0x00000000100f7240       0x14 c:/psdk3v2/ps3dev/ppu/bin/../lib/gcc/powerpc64-ps3-elf/4.5.2/../../../../powerpc64-ps3-elf/lib\libc.a(lib_a-dtoa.o)
                                         0x1a (size before relaxing)
 *fill*         0x00000000100f7254        0x4 00
 .rodata.str1.8
                0x00000000100f7258       0x20 c:/psdk3v2/ps3dev/ppu/bin/../lib/gcc/powerpc64-ps3-elf/4.5.2/../../../../powerpc64-ps3-elf/lib\libc.a(lib_a-gdtoa-gethex.o)
                                         0x1b (size before relaxing)
 .rodata.__libc_lock_attributes
                0x00000000100f7278       0x10 c:/psdk3v2/ps3dev/ppu/bin/../lib/gcc/powerpc64-ps3-elf/4.5.2/../../../../powerpc64-ps3-elf/lib\libc.a(lib_a-lock_internal.o)
 .rodata.cst4   0x0000000000000000        0x8 c:/psdk3v2/ps3dev/ppu/bin/../lib/gcc/powerpc64-ps3-elf/4.5.2/../../../../powerpc64-ps3-elf/lib\libc.a(lib_a-mprec.o)
 .rodata.p05.2968
                0x00000000100f7288        0xc c:/psdk3v2/ps3dev/ppu/bin/../lib/gcc/powerpc64-ps3-elf/4.5.2/../../../../powerpc64-ps3-elf/lib\libc.a(lib_a-mprec.o)
 *fill*         0x00000000100f7294        0x4 00
 .rodata.__mprec_bigtens
                0x00000000100f7298       0x28 c:/psdk3v2/ps3dev/ppu/bin/../lib/gcc/powerpc64-ps3-elf/4.5.2/../../../../powerpc64-ps3-elf/lib\libc.a(lib_a-mprec.o)
                0x00000000100f7298                __mprec_bigtens
 .rodata.__mprec_tinytens
                0x00000000100f72c0       0x28 c:/psdk3v2/ps3dev/ppu/bin/../lib/gcc/powerpc64-ps3-elf/4.5.2/../../../../powerpc64-ps3-elf/lib\libc.a(lib_a-mprec.o)
                0x00000000100f72c0                __mprec_tinytens
 .rodata.__mprec_tens
                0x00000000100f72e8       0xc8 c:/psdk3v2/ps3dev/ppu/bin/../lib/gcc/powerpc64-ps3-elf/4.5.2/../../../../powerpc64-ps3-elf/lib\libc.a(lib_a-mprec.o)
                0x00000000100f72e8                __mprec_tens
 .rodata.zeroes.4369
                0x00000000100f73b0       0x10 c:/psdk3v2/ps3dev/ppu/bin/../lib/gcc/powerpc64-ps3-elf/4.5.2/../../../../powerpc64-ps3-elf/lib\libc.a(lib_a-svfiprintf.o)
 .rodata.blanks.4368
                0x00000000100f73c0       0x10 c:/psdk3v2/ps3dev/ppu/bin/../lib/gcc/powerpc64-ps3-elf/4.5.2/../../../../powerpc64-ps3-elf/lib\libc.a(lib_a-svfiprintf.o)
 .rodata.str1.8
                0x0000000000000000       0x37 c:/psdk3v2/ps3dev/ppu/bin/../lib/gcc/powerpc64-ps3-elf/4.5.2/../../../../powerpc64-ps3-elf/lib\libc.a(lib_a-svfiprintf.o)

.rodata1
 *(.rodata1)

.spu_image
 *(.spu_image .spu_image.*)
                0x0000000010100000                . = ALIGN (0x10000)

.data           0x0000000010100000     0x18f8
 *(.data .data.* .gnu.linkonce.d.*)
 .data          0x0000000010100000        0x0 c:/psdk3v2/ps3dev/ppu/bin/../lib/gcc/powerpc64-ps3-elf/4.5.2/../../../../powerpc64-ps3-elf/lib/lv2-crti.o
 .data          0x0000000010100000        0x0 c:/psdk3v2/ps3dev/ppu/bin/../lib/gcc/powerpc64-ps3-elf/4.5.2/crtbegin.o
 .data.__dso_handle
                0x0000000010100000        0x8 c:/psdk3v2/ps3dev/ppu/bin/../lib/gcc/powerpc64-ps3-elf/4.5.2/crtbegin.o
                0x0000000010100000                __dso_handle
 .data          0x0000000010100008        0x0 c:/psdk3v2/ps3dev/ppu/bin/../lib/gcc/powerpc64-ps3-elf/4.5.2/../../../../powerpc64-ps3-elf/lib/lv2-crt0.o
 .data          0x0000000010100008        0x0 c:/psdk3v2/ps3dev/ppu/bin/../lib/gcc/powerpc64-ps3-elf/4.5.2/../../../../powerpc64-ps3-elf/lib/lv2-sprx.o
 .data          0x0000000010100008        0x0 dorian_png.bin.o
 .data          0x0000000010100008        0x0 main.o
 .data          0x0000000010100008        0x0 c:/PSDK3v2/ps3dev/portlibs/ppu/lib\libtiny3d.a(tiny3d.o)
 .data.nv30_fp_texture_color2_alt
                0x0000000010100008       0x7c c:/PSDK3v2/ps3dev/portlibs/ppu/lib\libtiny3d.a(tiny3d.o)
 .data.scale2D_x_viewport
                0x0000000010100084        0x4 c:/PSDK3v2/ps3dev/portlibs/ppu/lib\libtiny3d.a(tiny3d.o)
 .data.nv30_fp_yuv
                0x0000000010100088      0x11c c:/PSDK3v2/ps3dev/portlibs/ppu/lib\libtiny3d.a(tiny3d.o)
 .data.scale2D_x_surface
                0x00000000101001a4        0x4 c:/PSDK3v2/ps3dev/portlibs/ppu/lib\libtiny3d.a(tiny3d.o)
 .data.scale2D_y_surface
                0x00000000101001a8        0x4 c:/PSDK3v2/ps3dev/portlibs/ppu/lib\libtiny3d.a(tiny3d.o)
 .data.nv30_fp_yuv8
                0x00000000101001ac      0x17c c:/PSDK3v2/ps3dev/portlibs/ppu/lib\libtiny3d.a(tiny3d.o)
 .data.nv30_fp_texture_color
                0x0000000010100328       0x2c c:/PSDK3v2/ps3dev/portlibs/ppu/lib\libtiny3d.a(tiny3d.o)
 .data.nv30_fp_yuv_color8
                0x0000000010100354      0x17c c:/PSDK3v2/ps3dev/portlibs/ppu/lib\libtiny3d.a(tiny3d.o)
 .data.min_vertex
                0x00000000101004d0        0x4 c:/PSDK3v2/ps3dev/portlibs/ppu/lib\libtiny3d.a(tiny3d.o)
 .data.nv30_fp_yuv_color
                0x00000000101004d4      0x12c c:/PSDK3v2/ps3dev/portlibs/ppu/lib\libtiny3d.a(tiny3d.o)
 .data.scale3D_x_viewport
                0x0000000010100600        0x4 c:/PSDK3v2/ps3dev/portlibs/ppu/lib\libtiny3d.a(tiny3d.o)
 .data.mod_vertex
                0x0000000010100604        0x4 c:/PSDK3v2/ps3dev/portlibs/ppu/lib\libtiny3d.a(tiny3d.o)
 .data.nv30_fp_texture
                0x0000000010100608       0x1c c:/PSDK3v2/ps3dev/portlibs/ppu/lib\libtiny3d.a(tiny3d.o)
 .data.nv30_fp_color
                0x0000000010100624       0x1c c:/PSDK3v2/ps3dev/portlibs/ppu/lib\libtiny3d.a(tiny3d.o)
 .data.scale3D_y_viewport
                0x0000000010100640        0x4 c:/PSDK3v2/ps3dev/portlibs/ppu/lib\libtiny3d.a(tiny3d.o)
 .data.matrix_ident
                0x0000000010100644       0x40 c:/PSDK3v2/ps3dev/portlibs/ppu/lib\libtiny3d.a(tiny3d.o)
 .data.size_rsx_vertex
                0x0000000010100684        0x4 c:/PSDK3v2/ps3dev/portlibs/ppu/lib\libtiny3d.a(tiny3d.o)
 .data.nv30_fp_texture2_alt
                0x0000000010100688       0x6c c:/PSDK3v2/ps3dev/portlibs/ppu/lib\libtiny3d.a(tiny3d.o)
 .data.current_shader
                0x00000000101006f4        0x4 c:/PSDK3v2/ps3dev/portlibs/ppu/lib\libtiny3d.a(tiny3d.o)
 .data.nv30_fp_texture_color2
                0x00000000101006f8       0x4c c:/PSDK3v2/ps3dev/portlibs/ppu/lib\libtiny3d.a(tiny3d.o)
 .data.nv30_fp_texture2_alt2
                0x0000000010100744       0x5c c:/PSDK3v2/ps3dev/portlibs/ppu/lib\libtiny3d.a(tiny3d.o)
 .data.nv30_fp_texture_color2_alt2
                0x00000000101007a0       0x6c c:/PSDK3v2/ps3dev/portlibs/ppu/lib\libtiny3d.a(tiny3d.o)
 .data.nv30_fp_texture2
                0x000000001010080c       0x3c c:/PSDK3v2/ps3dev/portlibs/ppu/lib\libtiny3d.a(tiny3d.o)
 .data.scale2D_y_viewport
                0x0000000010100848        0x4 c:/PSDK3v2/ps3dev/portlibs/ppu/lib\libtiny3d.a(tiny3d.o)
 .data.polygon  0x000000001010084c        0x4 c:/PSDK3v2/ps3dev/portlibs/ppu/lib\libtiny3d.a(tiny3d.o)
 .data          0x0000000010100850        0x0 c:/PSDK3v2/ps3dev/portlibs/ppu/lib\libtiny3d.a(vshader_text_normal.vcg.o)
 .data          0x0000000010100850        0x0 c:/PSDK3v2/ps3dev/portlibs/ppu/lib\libtiny3d.a(commands.o)
 .data          0x0000000010100850        0x0 c:/PSDK3v2/ps3dev/portlibs/ppu/lib\libtiny3d.a(glue.o)
 .data          0x0000000010100850        0x0 c:/PSDK3v2/ps3dev/portlibs/ppu/lib\libtiny3d.a(matrix.o)
 .data          0x0000000010100850        0x0 c:/PSDK3v2/ps3dev/portlibs/ppu/lib\libtiny3d.a(mm.o)
 .data          0x0000000010100850        0x0 c:/PSDK3v2/ps3dev/portlibs/ppu/lib\libtiny3d.a(realityVP.o)
 .data          0x0000000010100850        0x0 c:/PSDK3v2/ps3dev/portlibs/ppu/lib\libtiny3d.a(rsxutil.o)
 .data          0x0000000010100850        0x0 c:/PSDK3v2/ps3dev/portlibs/ppu/lib\libtiny3d.a(buffer.o)
 .data          0x0000000010100850        0x0 c:/PSDK3v2/psl1ght/ppu/lib\libgcm_sys.a(sprx.o)
 .data          0x0000000010100850        0x0 c:/PSDK3v2/psl1ght/ppu/lib\libio.a(sprx.o)
 .data          0x0000000010100850        0x0 c:/PSDK3v2/psl1ght/ppu/lib\libsysutil.a(sprx.o)
 .data          0x0000000010100850        0x0 c:/PSDK3v2/psl1ght/ppu/lib\libsysutil.a(sysutil_wrapper.o)
 .data          0x0000000010100850        0x0 c:/PSDK3v2/psl1ght/ppu/lib\librt.a(sbrk.o)
 .data          0x0000000010100850        0x0 c:/PSDK3v2/psl1ght/ppu/lib\librt.a(exit.o)
 .data          0x0000000010100850        0x0 c:/PSDK3v2/psl1ght/ppu/lib\librt.a(close.o)
 .data          0x0000000010100850        0x0 c:/PSDK3v2/psl1ght/ppu/lib\librt.a(lseek.o)
 .data          0x0000000010100850        0x0 c:/PSDK3v2/psl1ght/ppu/lib\librt.a(read.o)
 .data          0x0000000010100850        0x0 c:/PSDK3v2/psl1ght/ppu/lib\librt.a(open.o)
 .data          0x0000000010100850        0x0 c:/PSDK3v2/psl1ght/ppu/lib\librt.a(sleep.o)
 .data          0x0000000010100850        0x0 c:/PSDK3v2/psl1ght/ppu/lib\librt.a(write.o)
 .data          0x0000000010100850        0x0 c:/PSDK3v2/psl1ght/ppu/lib\librt.a(fstat.o)
 .data          0x0000000010100850        0x0 c:/PSDK3v2/psl1ght/ppu/lib\librt.a(socket.o)
 .data          0x0000000010100850        0x0 c:/PSDK3v2/psl1ght/ppu/lib\librt.a(lock.o)
 .data          0x0000000010100850        0x0 c:/PSDK3v2/psl1ght/ppu/lib\librt.a(dirent.o)
 .data          0x0000000010100850        0x0 c:/PSDK3v2/psl1ght/ppu/lib\librt.a(mkdir.o)
 .data          0x0000000010100850        0x0 c:/PSDK3v2/psl1ght/ppu/lib\librt.a(times.o)
 .data          0x0000000010100850        0x0 c:/PSDK3v2/psl1ght/ppu/lib\librt.a(umask.o)
 .data.g_umask  0x0000000010100850        0x4 c:/PSDK3v2/psl1ght/ppu/lib\librt.a(umask.o)
                0x0000000010100850                g_umask
 .data          0x0000000010100854        0x0 c:/PSDK3v2/psl1ght/ppu/lib\librt.a(lv2errno.o)
 .data          0x0000000010100854        0x0 c:/PSDK3v2/psl1ght/ppu/lib\librt.a(heap.o)
 .data          0x0000000010100854        0x0 c:/PSDK3v2/psl1ght/ppu/lib\librt.a(chmod.o)
 .data          0x0000000010100854        0x0 c:/PSDK3v2/psl1ght/ppu/lib\librt.a(rmdir.o)
 .data          0x0000000010100854        0x0 c:/PSDK3v2/psl1ght/ppu/lib\librt.a(isatty.o)
 .data          0x0000000010100854        0x0 c:/PSDK3v2/psl1ght/ppu/lib\librt.a(gettod.o)
 .data          0x0000000010100854        0x0 c:/PSDK3v2/psl1ght/ppu/lib\librt.a(settod.o)
 .data          0x0000000010100854        0x0 c:/PSDK3v2/psl1ght/ppu/lib\liblv2.a(sprx.o)
 .data          0x0000000010100854        0x0 c:/PSDK3v2/psl1ght/ppu/lib\libpngdec.a(pngdec.o)
 .data          0x0000000010100854        0x0 c:/PSDK3v2/psl1ght/ppu/lib\libpngdec.a(sprx.o)
 .data          0x0000000010100854        0x0 c:/PSDK3v2/psl1ght/ppu/lib\libsysmodule.a(sprx.o)
 .data          0x0000000010100854        0x0 c:/psdk3v2/ps3dev/ppu/bin/../lib/gcc/powerpc64-ps3-elf/4.5.2/../../../../powerpc64-ps3-elf/lib\libm.a(lib_a-s_sqrt.o)
 .data          0x0000000010100854        0x0 c:/psdk3v2/ps3dev/ppu/bin/../lib/gcc/powerpc64-ps3-elf/4.5.2/../../../../powerpc64-ps3-elf/lib\libm.a(lib_a-sf_cos.o)
 .data          0x0000000010100854        0x0 c:/psdk3v2/ps3dev/ppu/bin/../lib/gcc/powerpc64-ps3-elf/4.5.2/../../../../powerpc64-ps3-elf/lib\libm.a(lib_a-sf_sin.o)
 .data          0x0000000010100854        0x0 c:/psdk3v2/ps3dev/ppu/bin/../lib/gcc/powerpc64-ps3-elf/4.5.2/../../../../powerpc64-ps3-elf/lib\libm.a(lib_a-sf_sine.o)
 .data          0x0000000010100854        0x0 c:/psdk3v2/ps3dev/ppu/bin/../lib/gcc/powerpc64-ps3-elf/4.5.2/../../../../powerpc64-ps3-elf/lib\libm.a(lib_a-sf_sqrt.o)
 .data          0x0000000010100854        0x0 c:/psdk3v2/ps3dev/ppu/bin/../lib/gcc/powerpc64-ps3-elf/4.5.2/../../../../powerpc64-ps3-elf/lib\libm.a(lib_a-sf_tan.o)
 .data          0x0000000010100854        0x0 c:/psdk3v2/ps3dev/ppu/bin/../lib/gcc/powerpc64-ps3-elf/4.5.2/../../../../powerpc64-ps3-elf/lib\libm.a(lib_a-s_frexp.o)
 .data          0x0000000010100854        0x0 c:/psdk3v2/ps3dev/ppu/bin/../lib/gcc/powerpc64-ps3-elf/4.5.2/../../../../powerpc64-ps3-elf/lib\libm.a(lib_a-s_ispos.o)
 .data          0x0000000010100854        0x0 c:/psdk3v2/ps3dev/ppu/bin/../lib/gcc/powerpc64-ps3-elf/4.5.2/../../../../powerpc64-ps3-elf/lib\libm.a(lib_a-s_ldexp.o)
 .data          0x0000000010100854        0x0 c:/psdk3v2/ps3dev/ppu/bin/../lib/gcc/powerpc64-ps3-elf/4.5.2/../../../../powerpc64-ps3-elf/lib\libm.a(lib_a-s_mathcnst.o)
 *fill*         0x0000000010100854        0x4 00
 .data.z_rooteps
                0x0000000010100858        0x8 c:/psdk3v2/ps3dev/ppu/bin/../lib/gcc/powerpc64-ps3-elf/4.5.2/../../../../powerpc64-ps3-elf/lib\libm.a(lib_a-s_mathcnst.o)
                0x0000000010100858                z_rooteps
 .data.z_rooteps_f
                0x0000000010100860        0x4 c:/psdk3v2/ps3dev/ppu/bin/../lib/gcc/powerpc64-ps3-elf/4.5.2/../../../../powerpc64-ps3-elf/lib\libm.a(lib_a-s_mathcnst.o)
                0x0000000010100860                z_rooteps_f
 *fill*         0x0000000010100864        0x4 00
 .data.BIGX     0x0000000010100868        0x8 c:/psdk3v2/ps3dev/ppu/bin/../lib/gcc/powerpc64-ps3-elf/4.5.2/../../../../powerpc64-ps3-elf/lib\libm.a(lib_a-s_mathcnst.o)
                0x0000000010100868                BIGX
 .data.SMALLX   0x0000000010100870        0x8 c:/psdk3v2/ps3dev/ppu/bin/../lib/gcc/powerpc64-ps3-elf/4.5.2/../../../../powerpc64-ps3-elf/lib\libm.a(lib_a-s_mathcnst.o)
                0x0000000010100870                SMALLX
 .data          0x0000000010100878        0x0 c:/psdk3v2/ps3dev/ppu/bin/../lib/gcc/powerpc64-ps3-elf/4.5.2/../../../../powerpc64-ps3-elf/lib\libm.a(lib_a-s_numtest.o)
 .data          0x0000000010100878        0x0 c:/psdk3v2/ps3dev/ppu/bin/../lib/gcc/powerpc64-ps3-elf/4.5.2/../../../../powerpc64-ps3-elf/lib\libm.a(lib_a-sf_fabs.o)
 .data          0x0000000010100878        0x0 c:/psdk3v2/ps3dev/ppu/bin/../lib/gcc/powerpc64-ps3-elf/4.5.2/../../../../powerpc64-ps3-elf/lib\libm.a(lib_a-sf_frexp.o)
 .data          0x0000000010100878        0x0 c:/psdk3v2/ps3dev/ppu/bin/../lib/gcc/powerpc64-ps3-elf/4.5.2/../../../../powerpc64-ps3-elf/lib\libm.a(lib_a-sf_ispos.o)
 .data          0x0000000010100878        0x0 c:/psdk3v2/ps3dev/ppu/bin/../lib/gcc/powerpc64-ps3-elf/4.5.2/../../../../powerpc64-ps3-elf/lib\libm.a(lib_a-sf_ldexp.o)
 .data          0x0000000010100878        0x0 c:/psdk3v2/ps3dev/ppu/bin/../lib/gcc/powerpc64-ps3-elf/4.5.2/../../../../powerpc64-ps3-elf/lib\libm.a(lib_a-sf_numtest.o)
 .data          0x0000000010100878        0x0 c:/psdk3v2/ps3dev/ppu/bin/../lib/gcc/powerpc64-ps3-elf/4.5.2/../../../../powerpc64-ps3-elf/lib\libsysbase.a(syscalls.o)
 .data          0x0000000010100878        0x0 c:/psdk3v2/ps3dev/ppu/bin/../lib/gcc/powerpc64-ps3-elf/4.5.2/../../../../powerpc64-ps3-elf/lib\libsysbase.a(sleep.o)
 .data          0x0000000010100878        0x0 c:/psdk3v2/ps3dev/ppu/bin/../lib/gcc/powerpc64-ps3-elf/4.5.2/../../../../powerpc64-ps3-elf/lib\libc.a(lib_a-atexit.o)
 .data          0x0000000010100878        0x0 c:/psdk3v2/ps3dev/ppu/bin/../lib/gcc/powerpc64-ps3-elf/4.5.2/../../../../powerpc64-ps3-elf/lib\libc.a(lib_a-errno.o)
 .data          0x0000000010100878        0x0 c:/psdk3v2/ps3dev/ppu/bin/../lib/gcc/powerpc64-ps3-elf/4.5.2/../../../../powerpc64-ps3-elf/lib\libc.a(lib_a-exit.o)
 .data          0x0000000010100878        0x0 c:/psdk3v2/ps3dev/ppu/bin/../lib/gcc/powerpc64-ps3-elf/4.5.2/../../../../powerpc64-ps3-elf/lib\libc.a(lib_a-getreent.o)
 .data          0x0000000010100878        0x0 c:/psdk3v2/ps3dev/ppu/bin/../lib/gcc/powerpc64-ps3-elf/4.5.2/../../../../powerpc64-ps3-elf/lib\libc.a(lib_a-impure.o)
 .data.impure_data
                0x0000000010100878      0x778 c:/psdk3v2/ps3dev/ppu/bin/../lib/gcc/powerpc64-ps3-elf/4.5.2/../../../../powerpc64-ps3-elf/lib\libc.a(lib_a-impure.o)
 .data._impure_ptr
                0x0000000010100ff0        0x8 c:/psdk3v2/ps3dev/ppu/bin/../lib/gcc/powerpc64-ps3-elf/4.5.2/../../../../powerpc64-ps3-elf/lib\libc.a(lib_a-impure.o)
                0x0000000010100ff0                _impure_ptr
 .data          0x0000000010100ff8        0x0 c:/psdk3v2/ps3dev/ppu/bin/../lib/gcc/powerpc64-ps3-elf/4.5.2/../../../../powerpc64-ps3-elf/lib\libc.a(lib_a-malign.o)
 .data          0x0000000010100ff8        0x0 c:/psdk3v2/ps3dev/ppu/bin/../lib/gcc/powerpc64-ps3-elf/4.5.2/../../../../powerpc64-ps3-elf/lib\libc.a(lib_a-malignr.o)
 .data          0x0000000010100ff8        0x0 c:/psdk3v2/ps3dev/ppu/bin/../lib/gcc/powerpc64-ps3-elf/4.5.2/../../../../powerpc64-ps3-elf/lib\libc.a(lib_a-malloc.o)
 .data          0x0000000010100ff8        0x0 c:/psdk3v2/ps3dev/ppu/bin/../lib/gcc/powerpc64-ps3-elf/4.5.2/../../../../powerpc64-ps3-elf/lib\libc.a(lib_a-mallocr.o)
 .data.rel.__malloc_av_
                0x0000000010100ff8      0x810 c:/psdk3v2/ps3dev/ppu/bin/../lib/gcc/powerpc64-ps3-elf/4.5.2/../../../../powerpc64-ps3-elf/lib\libc.a(lib_a-mallocr.o)
                0x0000000010100ff8                __malloc_av_
 .data.__malloc_trim_threshold
                0x0000000010101808        0x8 c:/psdk3v2/ps3dev/ppu/bin/../lib/gcc/powerpc64-ps3-elf/4.5.2/../../../../powerpc64-ps3-elf/lib\libc.a(lib_a-mallocr.o)
                0x0000000010101808                __malloc_trim_threshold
 .data.__malloc_sbrk_base
                0x0000000010101810        0x8 c:/psdk3v2/ps3dev/ppu/bin/../lib/gcc/powerpc64-ps3-elf/4.5.2/../../../../powerpc64-ps3-elf/lib\libc.a(lib_a-mallocr.o)
                0x0000000010101810                __malloc_sbrk_base
 .data          0x0000000010101818        0x0 c:/psdk3v2/ps3dev/ppu/bin/../lib/gcc/powerpc64-ps3-elf/4.5.2/../../../../powerpc64-ps3-elf/lib\libc.a(lib_a-memcpy.o)
 .data          0x0000000010101818        0x0 c:/psdk3v2/ps3dev/ppu/bin/../lib/gcc/powerpc64-ps3-elf/4.5.2/../../../../powerpc64-ps3-elf/lib\libc.a(lib_a-memset.o)
 .data          0x0000000010101818        0x0 c:/psdk3v2/ps3dev/ppu/bin/../lib/gcc/powerpc64-ps3-elf/4.5.2/../../../../powerpc64-ps3-elf/lib\libc.a(lib_a-mlock.o)
 .data          0x0000000010101818        0x0 c:/psdk3v2/ps3dev/ppu/bin/../lib/gcc/powerpc64-ps3-elf/4.5.2/../../../../powerpc64-ps3-elf/lib\libc.a(lib_a-sscanf.o)
 .data          0x0000000010101818        0x0 c:/psdk3v2/ps3dev/ppu/bin/../lib/gcc/powerpc64-ps3-elf/4.5.2/../../../../powerpc64-ps3-elf/lib\libc.a(lib_a-stdio.o)
 .data          0x0000000010101818        0x0 c:/psdk3v2/ps3dev/ppu/bin/../lib/gcc/powerpc64-ps3-elf/4.5.2/../../../../powerpc64-ps3-elf/lib\libc.a(lib_a-strcasecmp.o)
 .data          0x0000000010101818        0x0 c:/psdk3v2/ps3dev/ppu/bin/../lib/gcc/powerpc64-ps3-elf/4.5.2/../../../../powerpc64-ps3-elf/lib\libc.a(lib_a-strlen.o)
 .data          0x0000000010101818        0x0 c:/psdk3v2/ps3dev/ppu/bin/../lib/gcc/powerpc64-ps3-elf/4.5.2/../../../../powerpc64-ps3-elf/lib\libc.a(lib_a-strncpy.o)
 .data          0x0000000010101818        0x0 c:/psdk3v2/ps3dev/ppu/bin/../lib/gcc/powerpc64-ps3-elf/4.5.2/../../../../powerpc64-ps3-elf/lib\libc.a(lib_a-svfscanf.o)
 .data          0x0000000010101818        0x0 c:/psdk3v2/ps3dev/ppu/bin/../lib/gcc/powerpc64-ps3-elf/4.5.2/../../../../powerpc64-ps3-elf/lib\libc.a(lib_a-__atexit.o)
 .data          0x0000000010101818        0x0 c:/psdk3v2/ps3dev/ppu/bin/../lib/gcc/powerpc64-ps3-elf/4.5.2/../../../../powerpc64-ps3-elf/lib\libc.a(lib_a-__call_atexit.o)
 .data          0x0000000010101818        0x0 c:/psdk3v2/ps3dev/ppu/bin/../lib/gcc/powerpc64-ps3-elf/4.5.2/../../../../powerpc64-ps3-elf/lib\libc.a(lib_a-ctype_.o)
 .data.rel.__ctype_ptr__
                0x0000000010101818        0x8 c:/psdk3v2/ps3dev/ppu/bin/../lib/gcc/powerpc64-ps3-elf/4.5.2/../../../../powerpc64-ps3-elf/lib\libc.a(lib_a-ctype_.o)
                0x0000000010101818                __ctype_ptr__
 .data          0x0000000010101820        0x0 c:/psdk3v2/ps3dev/ppu/bin/../lib/gcc/powerpc64-ps3-elf/4.5.2/../../../../powerpc64-ps3-elf/lib\libc.a(lib_a-findfp.o)
 .data          0x0000000010101820        0x0 c:/psdk3v2/ps3dev/ppu/bin/../lib/gcc/powerpc64-ps3-elf/4.5.2/../../../../powerpc64-ps3-elf/lib\libc.a(lib_a-freer.o)
 .data          0x0000000010101820        0x0 c:/psdk3v2/ps3dev/ppu/bin/../lib/gcc/powerpc64-ps3-elf/4.5.2/../../../../powerpc64-ps3-elf/lib\libc.a(lib_a-fwalk.o)
 .data          0x0000000010101820        0x0 c:/psdk3v2/ps3dev/ppu/bin/../lib/gcc/powerpc64-ps3-elf/4.5.2/../../../../powerpc64-ps3-elf/lib\libc.a(lib_a-iswspace.o)
 .data          0x0000000010101820        0x0 c:/psdk3v2/ps3dev/ppu/bin/../lib/gcc/powerpc64-ps3-elf/4.5.2/../../../../powerpc64-ps3-elf/lib\libc.a(lib_a-locale.o)
 .data.lc_message_charset
                0x0000000010101820       0x20 c:/psdk3v2/ps3dev/ppu/bin/../lib/gcc/powerpc64-ps3-elf/4.5.2/../../../../powerpc64-ps3-elf/lib\libc.a(lib_a-locale.o)
 .data.lconv    0x0000000010101840       0x60 c:/psdk3v2/ps3dev/ppu/bin/../lib/gcc/powerpc64-ps3-elf/4.5.2/../../../../powerpc64-ps3-elf/lib\libc.a(lib_a-locale.o)
 .data.lc_ctype_charset
                0x00000000101018a0       0x20 c:/psdk3v2/ps3dev/ppu/bin/../lib/gcc/powerpc64-ps3-elf/4.5.2/../../../../powerpc64-ps3-elf/lib\libc.a(lib_a-locale.o)
 .data.__mb_cur_max
                0x00000000101018c0        0x4 c:/psdk3v2/ps3dev/ppu/bin/../lib/gcc/powerpc64-ps3-elf/4.5.2/../../../../powerpc64-ps3-elf/lib\libc.a(lib_a-locale.o)
                0x00000000101018c0                __mb_cur_max
 .data          0x00000000101018c4        0x0 c:/psdk3v2/ps3dev/ppu/bin/../lib/gcc/powerpc64-ps3-elf/4.5.2/../../../../powerpc64-ps3-elf/lib\libc.a(lib_a-lock_recursive.o)
 .data          0x00000000101018c4        0x0 c:/psdk3v2/ps3dev/ppu/bin/../lib/gcc/powerpc64-ps3-elf/4.5.2/../../../../powerpc64-ps3-elf/lib\libc.a(lib_a-mbrtowc.o)
 .data          0x00000000101018c4        0x0 c:/psdk3v2/ps3dev/ppu/bin/../lib/gcc/powerpc64-ps3-elf/4.5.2/../../../../powerpc64-ps3-elf/lib\libc.a(lib_a-mbtowc_r.o)
 *fill*         0x00000000101018c4        0x4 00
 .data.rel.__mbtowc
                0x00000000101018c8        0x8 c:/psdk3v2/ps3dev/ppu/bin/../lib/gcc/powerpc64-ps3-elf/4.5.2/../../../../powerpc64-ps3-elf/lib\libc.a(lib_a-mbtowc_r.o)
                0x00000000101018c8                __mbtowc
 .data          0x00000000101018d0        0x0 c:/psdk3v2/ps3dev/ppu/bin/../lib/gcc/powerpc64-ps3-elf/4.5.2/../../../../powerpc64-ps3-elf/lib\libc.a(lib_a-s_fpclassify.o)
 .data          0x00000000101018d0        0x0 c:/psdk3v2/ps3dev/ppu/bin/../lib/gcc/powerpc64-ps3-elf/4.5.2/../../../../powerpc64-ps3-elf/lib\libc.a(lib_a-sccl.o)
 .data          0x00000000101018d0        0x0 c:/psdk3v2/ps3dev/ppu/bin/../lib/gcc/powerpc64-ps3-elf/4.5.2/../../../../powerpc64-ps3-elf/lib\libc.a(lib_a-sf_nan.o)
 .data          0x00000000101018d0        0x0 c:/psdk3v2/ps3dev/ppu/bin/../lib/gcc/powerpc64-ps3-elf/4.5.2/../../../../powerpc64-ps3-elf/lib\libc.a(lib_a-sprintf.o)
 .data          0x00000000101018d0        0x0 c:/psdk3v2/ps3dev/ppu/bin/../lib/gcc/powerpc64-ps3-elf/4.5.2/../../../../powerpc64-ps3-elf/lib\libc.a(lib_a-strcmp.o)
 .data          0x00000000101018d0        0x0 c:/psdk3v2/ps3dev/ppu/bin/../lib/gcc/powerpc64-ps3-elf/4.5.2/../../../../powerpc64-ps3-elf/lib\libc.a(lib_a-strtod.o)
 .data.fpi.2928
                0x00000000101018d0       0x14 c:/psdk3v2/ps3dev/ppu/bin/../lib/gcc/powerpc64-ps3-elf/4.5.2/../../../../powerpc64-ps3-elf/lib\libc.a(lib_a-strtod.o)
 .data.fpinan.2964
                0x00000000101018e4       0x14 c:/psdk3v2/ps3dev/ppu/bin/../lib/gcc/powerpc64-ps3-elf/4.5.2/../../../../powerpc64-ps3-elf/lib\libc.a(lib_a-strtod.o)
 .data          0x00000000101018f8        0x0 c:/psdk3v2/ps3dev/ppu/bin/../lib/gcc/powerpc64-ps3-elf/4.5.2/../../../../powerpc64-ps3-elf/lib\libc.a(lib_a-strtol.o)
 .data          0x00000000101018f8        0x0 c:/psdk3v2/ps3dev/ppu/bin/../lib/gcc/powerpc64-ps3-elf/4.5.2/../../../../powerpc64-ps3-elf/lib\libc.a(lib_a-strtoll_r.o)
 .data          0x00000000101018f8        0x0 c:/psdk3v2/ps3dev/ppu/bin/../lib/gcc/powerpc64-ps3-elf/4.5.2/../../../../powerpc64-ps3-elf/lib\libc.a(lib_a-strtoul.o)
 .data          0x00000000101018f8        0x0 c:/psdk3v2/ps3dev/ppu/bin/../lib/gcc/powerpc64-ps3-elf/4.5.2/../../../../powerpc64-ps3-elf/lib\libc.a(lib_a-strtoull_r.o)
 .data          0x00000000101018f8        0x0 c:/psdk3v2/ps3dev/ppu/bin/../lib/gcc/powerpc64-ps3-elf/4.5.2/../../../../powerpc64-ps3-elf/lib\libc.a(lib_a-svfiscanf.o)
 .data          0x00000000101018f8        0x0 c:/psdk3v2/ps3dev/ppu/bin/../lib/gcc/powerpc64-ps3-elf/4.5.2/../../../../powerpc64-ps3-elf/lib\libc.a(lib_a-svfprintf.o)
 .data          0x00000000101018f8        0x0 c:/psdk3v2/ps3dev/ppu/bin/../lib/gcc/powerpc64-ps3-elf/4.5.2/../../../../powerpc64-ps3-elf/lib\libc.a(lib_a-ungetc.o)
 .data          0x00000000101018f8        0x0 c:/psdk3v2/ps3dev/ppu/bin/../lib/gcc/powerpc64-ps3-elf/4.5.2/../../../../powerpc64-ps3-elf/lib\libc.a(lib_a-dtoa.o)
 .data          0x00000000101018f8        0x0 c:/psdk3v2/ps3dev/ppu/bin/../lib/gcc/powerpc64-ps3-elf/4.5.2/../../../../powerpc64-ps3-elf/lib\libc.a(lib_a-fclose.o)
 .data          0x00000000101018f8        0x0 c:/psdk3v2/ps3dev/ppu/bin/../lib/gcc/powerpc64-ps3-elf/4.5.2/../../../../powerpc64-ps3-elf/lib\libc.a(lib_a-fflush.o)
 .data          0x00000000101018f8        0x0 c:/psdk3v2/ps3dev/ppu/bin/../lib/gcc/powerpc64-ps3-elf/4.5.2/../../../../powerpc64-ps3-elf/lib\libc.a(lib_a-gdtoa-gethex.o)
 .data          0x00000000101018f8        0x0 c:/psdk3v2/ps3dev/ppu/bin/../lib/gcc/powerpc64-ps3-elf/4.5.2/../../../../powerpc64-ps3-elf/lib\libc.a(lib_a-gdtoa-hexnan.o)
 .data          0x00000000101018f8        0x0 c:/psdk3v2/ps3dev/ppu/bin/../lib/gcc/powerpc64-ps3-elf/4.5.2/../../../../powerpc64-ps3-elf/lib\libc.a(lib_a-lock_internal.o)
 .data          0x00000000101018f8        0x0 c:/psdk3v2/ps3dev/ppu/bin/../lib/gcc/powerpc64-ps3-elf/4.5.2/../../../../powerpc64-ps3-elf/lib\libc.a(lib_a-memchr.o)
 .data          0x00000000101018f8        0x0 c:/psdk3v2/ps3dev/ppu/bin/../lib/gcc/powerpc64-ps3-elf/4.5.2/../../../../powerpc64-ps3-elf/lib\libc.a(lib_a-mprec.o)
 .data          0x00000000101018f8        0x0 c:/psdk3v2/ps3dev/ppu/bin/../lib/gcc/powerpc64-ps3-elf/4.5.2/../../../../powerpc64-ps3-elf/lib\libc.a(lib_a-reallocr.o)
 .data          0x00000000101018f8        0x0 c:/psdk3v2/ps3dev/ppu/bin/../lib/gcc/powerpc64-ps3-elf/4.5.2/../../../../powerpc64-ps3-elf/lib\libc.a(lib_a-strncmp.o)
 .data          0x00000000101018f8        0x0 c:/psdk3v2/ps3dev/ppu/bin/../lib/gcc/powerpc64-ps3-elf/4.5.2/../../../../powerpc64-ps3-elf/lib\libc.a(lib_a-svfiprintf.o)
 .data          0x00000000101018f8        0x0 c:/psdk3v2/ps3dev/ppu/bin/../lib/gcc/powerpc64-ps3-elf/4.5.2/../../../../powerpc64-ps3-elf/lib\libc.a(lib_a-abort.o)
 .data          0x00000000101018f8        0x0 c:/psdk3v2/ps3dev/ppu/bin/../lib/gcc/powerpc64-ps3-elf/4.5.2/../../../../powerpc64-ps3-elf/lib\libc.a(lib_a-callocr.o)
 .data          0x00000000101018f8        0x0 c:/psdk3v2/ps3dev/ppu/bin/../lib/gcc/powerpc64-ps3-elf/4.5.2/../../../../powerpc64-ps3-elf/lib\libc.a(lib_a-memmove.o)
 .data          0x00000000101018f8        0x0 c:/psdk3v2/ps3dev/ppu/bin/../lib/gcc/powerpc64-ps3-elf/4.5.2/../../../../powerpc64-ps3-elf/lib\libc.a(lib_a-signal.o)
 .data          0x00000000101018f8        0x0 c:/psdk3v2/ps3dev/ppu/bin/../lib/gcc/powerpc64-ps3-elf/4.5.2/../../../../powerpc64-ps3-elf/lib\libsysbase.a(close.o)
 .data          0x00000000101018f8        0x0 c:/psdk3v2/ps3dev/ppu/bin/../lib/gcc/powerpc64-ps3-elf/4.5.2/../../../../powerpc64-ps3-elf/lib\libsysbase.a(sbrk.o)
 .data          0x00000000101018f8        0x0 c:/psdk3v2/ps3dev/ppu/bin/../lib/gcc/powerpc64-ps3-elf/4.5.2/../../../../powerpc64-ps3-elf/lib\libsysbase.a(_exit.o)
 .data          0x00000000101018f8        0x0 c:/psdk3v2/ps3dev/ppu/bin/../lib/gcc/powerpc64-ps3-elf/4.5.2/../../../../powerpc64-ps3-elf/lib\libsysbase.a(lseek.o)
 .data          0x00000000101018f8        0x0 c:/psdk3v2/ps3dev/ppu/bin/../lib/gcc/powerpc64-ps3-elf/4.5.2/../../../../powerpc64-ps3-elf/lib\libsysbase.a(read.o)
 .data          0x00000000101018f8        0x0 c:/psdk3v2/ps3dev/ppu/bin/../lib/gcc/powerpc64-ps3-elf/4.5.2/../../../../powerpc64-ps3-elf/lib\libsysbase.a(write.o)
 .data          0x00000000101018f8        0x0 c:/psdk3v2/ps3dev/ppu/bin/../lib/gcc/powerpc64-ps3-elf/4.5.2/../../../../powerpc64-ps3-elf/lib\libsysbase.a(lock.o)
 .data          0x00000000101018f8        0x0 c:/psdk3v2/ps3dev/ppu/bin/../lib/gcc/powerpc64-ps3-elf/4.5.2/../../../../powerpc64-ps3-elf/lib\libsysbase.a(getpid.o)
 .data          0x00000000101018f8        0x0 c:/psdk3v2/ps3dev/ppu/bin/../lib/gcc/powerpc64-ps3-elf/4.5.2/../../../../powerpc64-ps3-elf/lib\libsysbase.a(kill.o)
 .data          0x00000000101018f8        0x0 c:/psdk3v2/ps3dev/ppu/bin/../lib/gcc/powerpc64-ps3-elf/4.5.2/crtend.o
 .data          0x00000000101018f8        0x0 c:/psdk3v2/ps3dev/ppu/bin/../lib/gcc/powerpc64-ps3-elf/4.5.2/../../../../powerpc64-ps3-elf/lib/lv2-crtn.o
 *(.gnu.linkonce.d.*personality*)

.data1
 *(.data1)

.sdata
 *(.sdata .sdata.* .gnu.linkonce.s.*)
                0x00000000101018f8                _edata = .
                0x00000000101018f8                PROVIDE (edata, .)
                0x00000000101018f8                __bss_start = .

.tocbss
 *(.tocbss)

.sbss           0x00000000101018f8        0x0
                0x00000000101018f8                PROVIDE (__sbss_start, .)
                0x00000000101018f8                PROVIDE (___sbss_start, .)
 *(.dynsbss)
 *(.sbss .sbss.* .gnu.linkonce.sb.*)
 *(.scommon)
                0x00000000101018f8                PROVIDE (__sbss_end, .)
                0x00000000101018f8                PROVIDE (___sbss_end, .)

.plt
 *(.plt)

.bss            0x0000000010101900     0x2e68
 *(.dynbss)
 *(.bss .bss.* .gnu.linkonce.b.*)
 .bss           0x0000000010101900        0x0 c:/psdk3v2/ps3dev/ppu/bin/../lib/gcc/powerpc64-ps3-elf/4.5.2/../../../../powerpc64-ps3-elf/lib/lv2-crti.o
 .bss           0x0000000010101900        0x0 c:/psdk3v2/ps3dev/ppu/bin/../lib/gcc/powerpc64-ps3-elf/4.5.2/crtbegin.o
 .bss.completed.4302
                0x0000000010101900        0x1 c:/psdk3v2/ps3dev/ppu/bin/../lib/gcc/powerpc64-ps3-elf/4.5.2/crtbegin.o
 *fill*         0x0000000010101901        0x7 00
 .bss.dtor_idx.4304
                0x0000000010101908        0x8 c:/psdk3v2/ps3dev/ppu/bin/../lib/gcc/powerpc64-ps3-elf/4.5.2/crtbegin.o
 .bss.object.4314
                0x0000000010101910       0x30 c:/psdk3v2/ps3dev/ppu/bin/../lib/gcc/powerpc64-ps3-elf/4.5.2/crtbegin.o
 .bss           0x0000000010101940        0x8 c:/psdk3v2/ps3dev/ppu/bin/../lib/gcc/powerpc64-ps3-elf/4.5.2/../../../../powerpc64-ps3-elf/lib/lv2-crt0.o
                0x0000000010101940                __libc_stack_end
 .bss           0x0000000010101948        0x0 c:/psdk3v2/ps3dev/ppu/bin/../lib/gcc/powerpc64-ps3-elf/4.5.2/../../../../powerpc64-ps3-elf/lib/lv2-sprx.o
 .bss           0x0000000010101948        0x0 dorian_png.bin.o
 .bss           0x0000000010101948        0x0 main.o
 .bss           0x0000000010101948        0x0 c:/PSDK3v2/ps3dev/portlibs/ppu/lib\libtiny3d.a(tiny3d.o)
 .bss.data_shader
                0x0000000010101948      0x708 c:/PSDK3v2/ps3dev/portlibs/ppu/lib\libtiny3d.a(tiny3d.o)
 .bss.tiny3d_menu_open
                0x0000000010102050        0x4 c:/PSDK3v2/ps3dev/portlibs/ppu/lib\libtiny3d.a(tiny3d.o)
 *fill*         0x0000000010102054        0x4 00
 .bss.CtrlReg   0x0000000010102058        0x8 c:/PSDK3v2/ps3dev/portlibs/ppu/lib\libtiny3d.a(tiny3d.o)
 .bss.grab_list
                0x0000000010102060        0x4 c:/PSDK3v2/ps3dev/portlibs/ppu/lib\libtiny3d.a(tiny3d.o)
 .bss.tinyerror_incallback
                0x0000000010102064        0x4 c:/PSDK3v2/ps3dev/portlibs/ppu/lib\libtiny3d.a(tiny3d.o)
                0x0000000010102064                tinyerror_incallback
 .bss.off_head_vertex
                0x0000000010102068        0x4 c:/PSDK3v2/ps3dev/portlibs/ppu/lib\libtiny3d.a(tiny3d.o)
 .bss.y_viewport_2D
                0x000000001010206c        0x4 c:/PSDK3v2/ps3dev/portlibs/ppu/lib\libtiny3d.a(tiny3d.o)
 .bss.pos_rsx_vertex
                0x0000000010102070        0x4 c:/PSDK3v2/ps3dev/portlibs/ppu/lib\libtiny3d.a(tiny3d.o)
 .bss.set_apply_matrix
                0x0000000010102074        0x4 c:/PSDK3v2/ps3dev/portlibs/ppu/lib\libtiny3d.a(tiny3d.o)
 .bss.tiny3d_drawing_status
                0x0000000010102078        0x4 c:/PSDK3v2/ps3dev/portlibs/ppu/lib\libtiny3d.a(tiny3d.o)
 .bss.y_viewport_3D
                0x000000001010207c        0x4 c:/PSDK3v2/ps3dev/portlibs/ppu/lib\libtiny3d.a(tiny3d.o)
 .bss.enable_yuv
                0x0000000010102080        0x4 c:/PSDK3v2/ps3dev/portlibs/ppu/lib\libtiny3d.a(tiny3d.o)
 .bss.user_viewport
                0x0000000010102084        0x4 c:/PSDK3v2/ps3dev/portlibs/ppu/lib\libtiny3d.a(tiny3d.o)
 .bss.material  0x0000000010102088       0x40 c:/PSDK3v2/ps3dev/portlibs/ppu/lib\libtiny3d.a(tiny3d.o)
 .bss.select_fp
                0x00000000101020c8        0x4 c:/PSDK3v2/ps3dev/portlibs/ppu/lib\libtiny3d.a(tiny3d.o)
 *fill*         0x00000000101020cc        0x4 00
 .bss.last_list
                0x00000000101020d0        0x8 c:/PSDK3v2/ps3dev/portlibs/ppu/lib\libtiny3d.a(tiny3d.o)
 .bss.tinycallback_flag
                0x00000000101020d8        0x4 c:/PSDK3v2/ps3dev/portlibs/ppu/lib\libtiny3d.a(tiny3d.o)
                0x00000000101020d8                tinycallback_flag
 .bss.project_mat
                0x00000000101020dc       0x40 c:/PSDK3v2/ps3dev/portlibs/ppu/lib\libtiny3d.a(tiny3d.o)
 *fill*         0x000000001010211c        0x4 00
 .bss.curr_list
                0x0000000010102120        0x8 c:/PSDK3v2/ps3dev/portlibs/ppu/lib\libtiny3d.a(tiny3d.o)
 .bss.apply_matrix
                0x0000000010102128       0x40 c:/PSDK3v2/ps3dev/portlibs/ppu/lib\libtiny3d.a(tiny3d.o)
 .bss.model_view
                0x0000000010102168       0x40 c:/PSDK3v2/ps3dev/portlibs/ppu/lib\libtiny3d.a(tiny3d.o)
 .bss.tiny_3d_alarm
                0x00000000101021a8        0x4 c:/PSDK3v2/ps3dev/portlibs/ppu/lib\libtiny3d.a(tiny3d.o)
 .bss.off_vtx.5075
                0x00000000101021ac        0x4 c:/PSDK3v2/ps3dev/portlibs/ppu/lib\libtiny3d.a(tiny3d.o)
 .bss.x_viewport_3D
                0x00000000101021b0        0x4 c:/PSDK3v2/ps3dev/portlibs/ppu/lib\libtiny3d.a(tiny3d.o)
 .bss.render_target
                0x00000000101021b4       0x10 c:/PSDK3v2/ps3dev/portlibs/ppu/lib\libtiny3d.a(tiny3d.o)
 .bss.n_vertex  0x00000000101021c4        0x4 c:/PSDK3v2/ps3dev/portlibs/ppu/lib\libtiny3d.a(tiny3d.o)
 .bss.light     0x00000000101021c8       0xa0 c:/PSDK3v2/ps3dev/portlibs/ppu/lib\libtiny3d.a(tiny3d.o)
 .bss.Video_currentBuffer
                0x0000000010102268        0x4 c:/PSDK3v2/ps3dev/portlibs/ppu/lib\libtiny3d.a(tiny3d.o)
                0x0000000010102268                Video_currentBuffer
 .bss.inited    0x000000001010226c        0x4 c:/PSDK3v2/ps3dev/portlibs/ppu/lib\libtiny3d.a(tiny3d.o)
 .bss.off_start_vertex
                0x0000000010102270        0x4 c:/PSDK3v2/ps3dev/portlibs/ppu/lib\libtiny3d.a(tiny3d.o)
 *fill*         0x0000000010102274        0x4 00
 .bss.rsx_vertex
                0x0000000010102278        0x8 c:/PSDK3v2/ps3dev/portlibs/ppu/lib\libtiny3d.a(tiny3d.o)
 .bss.flag_vertex
                0x0000000010102280        0x4 c:/PSDK3v2/ps3dev/portlibs/ppu/lib\libtiny3d.a(tiny3d.o)
 *fill*         0x0000000010102284        0x4 00
 .bss.list_base
                0x0000000010102288        0x8 c:/PSDK3v2/ps3dev/portlibs/ppu/lib\libtiny3d.a(tiny3d.o)
 .bss.use_2d    0x0000000010102290        0x4 c:/PSDK3v2/ps3dev/portlibs/ppu/lib\libtiny3d.a(tiny3d.o)
 .bss.x_viewport_2D
                0x0000000010102294        0x4 c:/PSDK3v2/ps3dev/portlibs/ppu/lib\libtiny3d.a(tiny3d.o)
 .bss.curr_list_index
                0x0000000010102298        0x4 c:/PSDK3v2/ps3dev/portlibs/ppu/lib\libtiny3d.a(tiny3d.o)
 .bss.vertex_data
                0x000000001010229c       0x40 c:/PSDK3v2/ps3dev/portlibs/ppu/lib\libtiny3d.a(tiny3d.o)
 .bss           0x00000000101022dc        0x0 c:/PSDK3v2/ps3dev/portlibs/ppu/lib\libtiny3d.a(vshader_text_normal.vcg.o)
 .bss           0x00000000101022dc        0x0 c:/PSDK3v2/ps3dev/portlibs/ppu/lib\libtiny3d.a(commands.o)
 .bss           0x00000000101022dc        0x0 c:/PSDK3v2/ps3dev/portlibs/ppu/lib\libtiny3d.a(glue.o)
 .bss           0x00000000101022dc        0x0 c:/PSDK3v2/ps3dev/portlibs/ppu/lib\libtiny3d.a(matrix.o)
 .bss           0x00000000101022dc        0x0 c:/PSDK3v2/ps3dev/portlibs/ppu/lib\libtiny3d.a(mm.o)
 .bss.initialized
                0x00000000101022dc        0x1 c:/PSDK3v2/ps3dev/portlibs/ppu/lib\libtiny3d.a(mm.o)
 .bss           0x00000000101022dd        0x0 c:/PSDK3v2/ps3dev/portlibs/ppu/lib\libtiny3d.a(realityVP.o)
 .bss           0x00000000101022dd        0x0 c:/PSDK3v2/ps3dev/portlibs/ppu/lib\libtiny3d.a(rsxutil.o)
 *fill*         0x00000000101022dd        0x3 00
 .bss.depth_buffer
                0x00000000101022e0        0x8 c:/PSDK3v2/ps3dev/portlibs/ppu/lib\libtiny3d.a(rsxutil.o)
 .bss.depth_offset
                0x00000000101022e8        0x4 c:/PSDK3v2/ps3dev/portlibs/ppu/lib\libtiny3d.a(rsxutil.o)
 *fill*         0x00000000101022ec        0x4 00
 .bss.tiny_host_addr
                0x00000000101022f0        0x8 c:/PSDK3v2/ps3dev/portlibs/ppu/lib\libtiny3d.a(rsxutil.o)
                0x00000000101022f0                tiny_host_addr
 .bss.zformat   0x00000000101022f8        0x4 c:/PSDK3v2/ps3dev/portlibs/ppu/lib\libtiny3d.a(rsxutil.o)
 .bss.offset    0x00000000101022fc        0x8 c:/PSDK3v2/ps3dev/portlibs/ppu/lib\libtiny3d.a(rsxutil.o)
 .bss.depth_pitch
                0x0000000010102304        0x4 c:/PSDK3v2/ps3dev/portlibs/ppu/lib\libtiny3d.a(rsxutil.o)
 .bss           0x0000000010102308        0x0 c:/PSDK3v2/ps3dev/portlibs/ppu/lib\libtiny3d.a(buffer.o)
 .bss           0x0000000010102308        0x0 c:/PSDK3v2/psl1ght/ppu/lib\libgcm_sys.a(sprx.o)
 .bss           0x0000000010102308        0x0 c:/PSDK3v2/psl1ght/ppu/lib\libio.a(sprx.o)
 .bss           0x0000000010102308        0x0 c:/PSDK3v2/psl1ght/ppu/lib\libsysutil.a(sprx.o)
 .bss           0x0000000010102308        0x0 c:/PSDK3v2/psl1ght/ppu/lib\libsysutil.a(sysutil_wrapper.o)
 .bss           0x0000000010102308        0x0 c:/PSDK3v2/psl1ght/ppu/lib\librt.a(sbrk.o)
 .bss.__sbrk_baseaddr
                0x0000000010102308        0x4 c:/PSDK3v2/psl1ght/ppu/lib\librt.a(sbrk.o)
 *fill*         0x000000001010230c        0x4 00
 .bss.__sbrk_curr_regionentry
                0x0000000010102310        0x8 c:/PSDK3v2/psl1ght/ppu/lib\librt.a(sbrk.o)
 *fill*         0x0000000010102318       0x28 00
 .bss.__region_list_entries
                0x0000000010102340     0x2020 c:/PSDK3v2/psl1ght/ppu/lib\librt.a(sbrk.o)
 .bss.__sbrk_spinlock
                0x0000000010104360        0x4 c:/PSDK3v2/psl1ght/ppu/lib\librt.a(sbrk.o)
 *fill*         0x0000000010104364        0x4 00
 .bss.__region_heap
                0x0000000010104368       0x48 c:/PSDK3v2/psl1ght/ppu/lib\librt.a(sbrk.o)
 .bss           0x00000000101043b0        0x0 c:/PSDK3v2/psl1ght/ppu/lib\librt.a(exit.o)
 .bss           0x00000000101043b0        0x0 c:/PSDK3v2/psl1ght/ppu/lib\librt.a(close.o)
 .bss           0x00000000101043b0        0x0 c:/PSDK3v2/psl1ght/ppu/lib\librt.a(lseek.o)
 .bss           0x00000000101043b0        0x0 c:/PSDK3v2/psl1ght/ppu/lib\librt.a(read.o)
 .bss           0x00000000101043b0        0x0 c:/PSDK3v2/psl1ght/ppu/lib\librt.a(open.o)
 .bss           0x00000000101043b0        0x0 c:/PSDK3v2/psl1ght/ppu/lib\librt.a(sleep.o)
 .bss           0x00000000101043b0        0x0 c:/PSDK3v2/psl1ght/ppu/lib\librt.a(write.o)
 .bss           0x00000000101043b0        0x0 c:/PSDK3v2/psl1ght/ppu/lib\librt.a(fstat.o)
 .bss           0x00000000101043b0        0x0 c:/PSDK3v2/psl1ght/ppu/lib\librt.a(socket.o)
 .bss           0x00000000101043b0        0x0 c:/PSDK3v2/psl1ght/ppu/lib\librt.a(lock.o)
 .bss           0x00000000101043b0        0x0 c:/PSDK3v2/psl1ght/ppu/lib\librt.a(dirent.o)
 .bss           0x00000000101043b0        0x0 c:/PSDK3v2/psl1ght/ppu/lib\librt.a(mkdir.o)
 .bss           0x00000000101043b0        0x0 c:/PSDK3v2/psl1ght/ppu/lib\librt.a(times.o)
 .bss           0x00000000101043b0        0x0 c:/PSDK3v2/psl1ght/ppu/lib\librt.a(umask.o)
 .bss           0x00000000101043b0        0x0 c:/PSDK3v2/psl1ght/ppu/lib\librt.a(lv2errno.o)
 .bss           0x00000000101043b0        0x0 c:/PSDK3v2/psl1ght/ppu/lib\librt.a(heap.o)
 .bss           0x00000000101043b0        0x0 c:/PSDK3v2/psl1ght/ppu/lib\librt.a(chmod.o)
 .bss           0x00000000101043b0        0x0 c:/PSDK3v2/psl1ght/ppu/lib\librt.a(rmdir.o)
 .bss           0x00000000101043b0        0x0 c:/PSDK3v2/psl1ght/ppu/lib\librt.a(isatty.o)
 .bss           0x00000000101043b0        0x0 c:/PSDK3v2/psl1ght/ppu/lib\librt.a(gettod.o)
 .bss           0x00000000101043b0        0x0 c:/PSDK3v2/psl1ght/ppu/lib\librt.a(settod.o)
 .bss           0x00000000101043b0        0x0 c:/PSDK3v2/psl1ght/ppu/lib\liblv2.a(sprx.o)
 .bss           0x00000000101043b0        0x0 c:/PSDK3v2/psl1ght/ppu/lib\libpngdec.a(pngdec.o)
 .bss           0x00000000101043b0        0x0 c:/PSDK3v2/psl1ght/ppu/lib\libpngdec.a(sprx.o)
 .bss           0x00000000101043b0        0x0 c:/PSDK3v2/psl1ght/ppu/lib\libsysmodule.a(sprx.o)
 .bss           0x00000000101043b0        0x0 c:/psdk3v2/ps3dev/ppu/bin/../lib/gcc/powerpc64-ps3-elf/4.5.2/../../../../powerpc64-ps3-elf/lib\libm.a(lib_a-s_sqrt.o)
 .bss           0x00000000101043b0        0x0 c:/psdk3v2/ps3dev/ppu/bin/../lib/gcc/powerpc64-ps3-elf/4.5.2/../../../../powerpc64-ps3-elf/lib\libm.a(lib_a-sf_cos.o)
 .bss           0x00000000101043b0        0x0 c:/psdk3v2/ps3dev/ppu/bin/../lib/gcc/powerpc64-ps3-elf/4.5.2/../../../../powerpc64-ps3-elf/lib\libm.a(lib_a-sf_sin.o)
 .bss           0x00000000101043b0        0x0 c:/psdk3v2/ps3dev/ppu/bin/../lib/gcc/powerpc64-ps3-elf/4.5.2/../../../../powerpc64-ps3-elf/lib\libm.a(lib_a-sf_sine.o)
 .bss           0x00000000101043b0        0x0 c:/psdk3v2/ps3dev/ppu/bin/../lib/gcc/powerpc64-ps3-elf/4.5.2/../../../../powerpc64-ps3-elf/lib\libm.a(lib_a-sf_sqrt.o)
 .bss           0x00000000101043b0        0x0 c:/psdk3v2/ps3dev/ppu/bin/../lib/gcc/powerpc64-ps3-elf/4.5.2/../../../../powerpc64-ps3-elf/lib\libm.a(lib_a-sf_tan.o)
 .bss           0x00000000101043b0        0x0 c:/psdk3v2/ps3dev/ppu/bin/../lib/gcc/powerpc64-ps3-elf/4.5.2/../../../../powerpc64-ps3-elf/lib\libm.a(lib_a-s_frexp.o)
 .bss           0x00000000101043b0        0x0 c:/psdk3v2/ps3dev/ppu/bin/../lib/gcc/powerpc64-ps3-elf/4.5.2/../../../../powerpc64-ps3-elf/lib\libm.a(lib_a-s_ispos.o)
 .bss           0x00000000101043b0        0x0 c:/psdk3v2/ps3dev/ppu/bin/../lib/gcc/powerpc64-ps3-elf/4.5.2/../../../../powerpc64-ps3-elf/lib\libm.a(lib_a-s_ldexp.o)
 .bss           0x00000000101043b0        0x0 c:/psdk3v2/ps3dev/ppu/bin/../lib/gcc/powerpc64-ps3-elf/4.5.2/../../../../powerpc64-ps3-elf/lib\libm.a(lib_a-s_mathcnst.o)
 .bss           0x00000000101043b0        0x0 c:/psdk3v2/ps3dev/ppu/bin/../lib/gcc/powerpc64-ps3-elf/4.5.2/../../../../powerpc64-ps3-elf/lib\libm.a(lib_a-s_numtest.o)
 .bss           0x00000000101043b0        0x0 c:/psdk3v2/ps3dev/ppu/bin/../lib/gcc/powerpc64-ps3-elf/4.5.2/../../../../powerpc64-ps3-elf/lib\libm.a(lib_a-sf_fabs.o)
 .bss           0x00000000101043b0        0x0 c:/psdk3v2/ps3dev/ppu/bin/../lib/gcc/powerpc64-ps3-elf/4.5.2/../../../../powerpc64-ps3-elf/lib\libm.a(lib_a-sf_frexp.o)
 .bss           0x00000000101043b0        0x0 c:/psdk3v2/ps3dev/ppu/bin/../lib/gcc/powerpc64-ps3-elf/4.5.2/../../../../powerpc64-ps3-elf/lib\libm.a(lib_a-sf_ispos.o)
 .bss           0x00000000101043b0        0x0 c:/psdk3v2/ps3dev/ppu/bin/../lib/gcc/powerpc64-ps3-elf/4.5.2/../../../../powerpc64-ps3-elf/lib\libm.a(lib_a-sf_ldexp.o)
 .bss           0x00000000101043b0        0x0 c:/psdk3v2/ps3dev/ppu/bin/../lib/gcc/powerpc64-ps3-elf/4.5.2/../../../../powerpc64-ps3-elf/lib\libm.a(lib_a-sf_numtest.o)
 .bss           0x00000000101043b0        0x0 c:/psdk3v2/ps3dev/ppu/bin/../lib/gcc/powerpc64-ps3-elf/4.5.2/../../../../powerpc64-ps3-elf/lib\libsysbase.a(syscalls.o)
 .bss.__syscalls
                0x00000000101043b0      0x170 c:/psdk3v2/ps3dev/ppu/bin/../lib/gcc/powerpc64-ps3-elf/4.5.2/../../../../powerpc64-ps3-elf/lib\libsysbase.a(syscalls.o)
                0x00000000101043b0                __syscalls
 .bss           0x0000000010104520        0x0 c:/psdk3v2/ps3dev/ppu/bin/../lib/gcc/powerpc64-ps3-elf/4.5.2/../../../../powerpc64-ps3-elf/lib\libsysbase.a(sleep.o)
 .bss           0x0000000010104520        0x0 c:/psdk3v2/ps3dev/ppu/bin/../lib/gcc/powerpc64-ps3-elf/4.5.2/../../../../powerpc64-ps3-elf/lib\libc.a(lib_a-atexit.o)
 .bss           0x0000000010104520        0x0 c:/psdk3v2/ps3dev/ppu/bin/../lib/gcc/powerpc64-ps3-elf/4.5.2/../../../../powerpc64-ps3-elf/lib\libc.a(lib_a-errno.o)
 .bss           0x0000000010104520        0x0 c:/psdk3v2/ps3dev/ppu/bin/../lib/gcc/powerpc64-ps3-elf/4.5.2/../../../../powerpc64-ps3-elf/lib\libc.a(lib_a-exit.o)
 .bss           0x0000000010104520        0x0 c:/psdk3v2/ps3dev/ppu/bin/../lib/gcc/powerpc64-ps3-elf/4.5.2/../../../../powerpc64-ps3-elf/lib\libc.a(lib_a-getreent.o)
 .bss           0x0000000010104520        0x0 c:/psdk3v2/ps3dev/ppu/bin/../lib/gcc/powerpc64-ps3-elf/4.5.2/../../../../powerpc64-ps3-elf/lib\libc.a(lib_a-impure.o)
 .bss           0x0000000010104520        0x0 c:/psdk3v2/ps3dev/ppu/bin/../lib/gcc/powerpc64-ps3-elf/4.5.2/../../../../powerpc64-ps3-elf/lib\libc.a(lib_a-malign.o)
 .bss           0x0000000010104520        0x0 c:/psdk3v2/ps3dev/ppu/bin/../lib/gcc/powerpc64-ps3-elf/4.5.2/../../../../powerpc64-ps3-elf/lib\libc.a(lib_a-malignr.o)
 .bss           0x0000000010104520        0x0 c:/psdk3v2/ps3dev/ppu/bin/../lib/gcc/powerpc64-ps3-elf/4.5.2/../../../../powerpc64-ps3-elf/lib\libc.a(lib_a-malloc.o)
 .bss           0x0000000010104520        0x0 c:/psdk3v2/ps3dev/ppu/bin/../lib/gcc/powerpc64-ps3-elf/4.5.2/../../../../powerpc64-ps3-elf/lib\libc.a(lib_a-mallocr.o)
 .bss.__malloc_max_total_mem
                0x0000000010104520        0x8 c:/psdk3v2/ps3dev/ppu/bin/../lib/gcc/powerpc64-ps3-elf/4.5.2/../../../../powerpc64-ps3-elf/lib\libc.a(lib_a-mallocr.o)
                0x0000000010104520                __malloc_max_total_mem
 .bss.__malloc_max_sbrked_mem
                0x0000000010104528        0x8 c:/psdk3v2/ps3dev/ppu/bin/../lib/gcc/powerpc64-ps3-elf/4.5.2/../../../../powerpc64-ps3-elf/lib\libc.a(lib_a-mallocr.o)
                0x0000000010104528                __malloc_max_sbrked_mem
 .bss.__malloc_top_pad
                0x0000000010104530        0x8 c:/psdk3v2/ps3dev/ppu/bin/../lib/gcc/powerpc64-ps3-elf/4.5.2/../../../../powerpc64-ps3-elf/lib\libc.a(lib_a-mallocr.o)
                0x0000000010104530                __malloc_top_pad
 .bss.__malloc_current_mallinfo
                0x0000000010104538       0x28 c:/psdk3v2/ps3dev/ppu/bin/../lib/gcc/powerpc64-ps3-elf/4.5.2/../../../../powerpc64-ps3-elf/lib\libc.a(lib_a-mallocr.o)
                0x0000000010104538                __malloc_current_mallinfo
 .bss           0x0000000010104560        0x0 c:/psdk3v2/ps3dev/ppu/bin/../lib/gcc/powerpc64-ps3-elf/4.5.2/../../../../powerpc64-ps3-elf/lib\libc.a(lib_a-memcpy.o)
 .bss           0x0000000010104560        0x0 c:/psdk3v2/ps3dev/ppu/bin/../lib/gcc/powerpc64-ps3-elf/4.5.2/../../../../powerpc64-ps3-elf/lib\libc.a(lib_a-memset.o)
 .bss           0x0000000010104560        0x0 c:/psdk3v2/ps3dev/ppu/bin/../lib/gcc/powerpc64-ps3-elf/4.5.2/../../../../powerpc64-ps3-elf/lib\libc.a(lib_a-mlock.o)
 .bss.__malloc_lock_object
                0x0000000010104560       0x18 c:/psdk3v2/ps3dev/ppu/bin/../lib/gcc/powerpc64-ps3-elf/4.5.2/../../../../powerpc64-ps3-elf/lib\libc.a(lib_a-mlock.o)
 .bss           0x0000000010104578        0x0 c:/psdk3v2/ps3dev/ppu/bin/../lib/gcc/powerpc64-ps3-elf/4.5.2/../../../../powerpc64-ps3-elf/lib\libc.a(lib_a-sscanf.o)
 .bss           0x0000000010104578        0x0 c:/psdk3v2/ps3dev/ppu/bin/../lib/gcc/powerpc64-ps3-elf/4.5.2/../../../../powerpc64-ps3-elf/lib\libc.a(lib_a-stdio.o)
 .bss           0x0000000010104578        0x0 c:/psdk3v2/ps3dev/ppu/bin/../lib/gcc/powerpc64-ps3-elf/4.5.2/../../../../powerpc64-ps3-elf/lib\libc.a(lib_a-strcasecmp.o)
 .bss           0x0000000010104578        0x0 c:/psdk3v2/ps3dev/ppu/bin/../lib/gcc/powerpc64-ps3-elf/4.5.2/../../../../powerpc64-ps3-elf/lib\libc.a(lib_a-strlen.o)
 .bss           0x0000000010104578        0x0 c:/psdk3v2/ps3dev/ppu/bin/../lib/gcc/powerpc64-ps3-elf/4.5.2/../../../../powerpc64-ps3-elf/lib\libc.a(lib_a-strncpy.o)
 .bss           0x0000000010104578        0x0 c:/psdk3v2/ps3dev/ppu/bin/../lib/gcc/powerpc64-ps3-elf/4.5.2/../../../../powerpc64-ps3-elf/lib\libc.a(lib_a-svfscanf.o)
 .bss           0x0000000010104578        0x0 c:/psdk3v2/ps3dev/ppu/bin/../lib/gcc/powerpc64-ps3-elf/4.5.2/../../../../powerpc64-ps3-elf/lib\libc.a(lib_a-__atexit.o)
 .bss.__atexit_lock
                0x0000000010104578       0x18 c:/psdk3v2/ps3dev/ppu/bin/../lib/gcc/powerpc64-ps3-elf/4.5.2/../../../../powerpc64-ps3-elf/lib\libc.a(lib_a-__atexit.o)
                0x0000000010104578                __atexit_lock
 .bss           0x0000000010104590        0x0 c:/psdk3v2/ps3dev/ppu/bin/../lib/gcc/powerpc64-ps3-elf/4.5.2/../../../../powerpc64-ps3-elf/lib\libc.a(lib_a-__call_atexit.o)
 .bss           0x0000000010104590        0x0 c:/psdk3v2/ps3dev/ppu/bin/../lib/gcc/powerpc64-ps3-elf/4.5.2/../../../../powerpc64-ps3-elf/lib\libc.a(lib_a-ctype_.o)
 .bss           0x0000000010104590        0x0 c:/psdk3v2/ps3dev/ppu/bin/../lib/gcc/powerpc64-ps3-elf/4.5.2/../../../../powerpc64-ps3-elf/lib\libc.a(lib_a-findfp.o)
 .bss.__sfp_lock
                0x0000000010104590       0x18 c:/psdk3v2/ps3dev/ppu/bin/../lib/gcc/powerpc64-ps3-elf/4.5.2/../../../../powerpc64-ps3-elf/lib\libc.a(lib_a-findfp.o)
 .bss.__sinit_lock
                0x00000000101045a8       0x18 c:/psdk3v2/ps3dev/ppu/bin/../lib/gcc/powerpc64-ps3-elf/4.5.2/../../../../powerpc64-ps3-elf/lib\libc.a(lib_a-findfp.o)
 .bss           0x00000000101045c0        0x0 c:/psdk3v2/ps3dev/ppu/bin/../lib/gcc/powerpc64-ps3-elf/4.5.2/../../../../powerpc64-ps3-elf/lib\libc.a(lib_a-freer.o)
 .bss           0x00000000101045c0        0x0 c:/psdk3v2/ps3dev/ppu/bin/../lib/gcc/powerpc64-ps3-elf/4.5.2/../../../../powerpc64-ps3-elf/lib\libc.a(lib_a-fwalk.o)
 .bss           0x00000000101045c0        0x0 c:/psdk3v2/ps3dev/ppu/bin/../lib/gcc/powerpc64-ps3-elf/4.5.2/../../../../powerpc64-ps3-elf/lib\libc.a(lib_a-iswspace.o)
 .bss           0x00000000101045c0        0x0 c:/psdk3v2/ps3dev/ppu/bin/../lib/gcc/powerpc64-ps3-elf/4.5.2/../../../../powerpc64-ps3-elf/lib\libc.a(lib_a-locale.o)
 .bss._PathLocale
                0x00000000101045c0        0x8 c:/psdk3v2/ps3dev/ppu/bin/../lib/gcc/powerpc64-ps3-elf/4.5.2/../../../../powerpc64-ps3-elf/lib\libc.a(lib_a-locale.o)
                0x00000000101045c0                _PathLocale
 .bss.__nlocale_changed
                0x00000000101045c8        0x4 c:/psdk3v2/ps3dev/ppu/bin/../lib/gcc/powerpc64-ps3-elf/4.5.2/../../../../powerpc64-ps3-elf/lib\libc.a(lib_a-locale.o)
                0x00000000101045c8                __nlocale_changed
 .bss.__mlocale_changed
                0x00000000101045cc        0x4 c:/psdk3v2/ps3dev/ppu/bin/../lib/gcc/powerpc64-ps3-elf/4.5.2/../../../../powerpc64-ps3-elf/lib\libc.a(lib_a-locale.o)
                0x00000000101045cc                __mlocale_changed
 .bss           0x00000000101045d0        0x0 c:/psdk3v2/ps3dev/ppu/bin/../lib/gcc/powerpc64-ps3-elf/4.5.2/../../../../powerpc64-ps3-elf/lib\libc.a(lib_a-lock_recursive.o)
 .bss           0x00000000101045d0        0x0 c:/psdk3v2/ps3dev/ppu/bin/../lib/gcc/powerpc64-ps3-elf/4.5.2/../../../../powerpc64-ps3-elf/lib\libc.a(lib_a-mbrtowc.o)
 .bss           0x00000000101045d0        0x0 c:/psdk3v2/ps3dev/ppu/bin/../lib/gcc/powerpc64-ps3-elf/4.5.2/../../../../powerpc64-ps3-elf/lib\libc.a(lib_a-mbtowc_r.o)
 .bss           0x00000000101045d0        0x0 c:/psdk3v2/ps3dev/ppu/bin/../lib/gcc/powerpc64-ps3-elf/4.5.2/../../../../powerpc64-ps3-elf/lib\libc.a(lib_a-s_fpclassify.o)
 .bss           0x00000000101045d0        0x0 c:/psdk3v2/ps3dev/ppu/bin/../lib/gcc/powerpc64-ps3-elf/4.5.2/../../../../powerpc64-ps3-elf/lib\libc.a(lib_a-sccl.o)
 .bss           0x00000000101045d0        0x0 c:/psdk3v2/ps3dev/ppu/bin/../lib/gcc/powerpc64-ps3-elf/4.5.2/../../../../powerpc64-ps3-elf/lib\libc.a(lib_a-sf_nan.o)
 .bss           0x00000000101045d0        0x0 c:/psdk3v2/ps3dev/ppu/bin/../lib/gcc/powerpc64-ps3-elf/4.5.2/../../../../powerpc64-ps3-elf/lib\libc.a(lib_a-sprintf.o)
 .bss           0x00000000101045d0        0x0 c:/psdk3v2/ps3dev/ppu/bin/../lib/gcc/powerpc64-ps3-elf/4.5.2/../../../../powerpc64-ps3-elf/lib\libc.a(lib_a-strcmp.o)
 .bss           0x00000000101045d0        0x0 c:/psdk3v2/ps3dev/ppu/bin/../lib/gcc/powerpc64-ps3-elf/4.5.2/../../../../powerpc64-ps3-elf/lib\libc.a(lib_a-strtod.o)
 .bss           0x00000000101045d0        0x0 c:/psdk3v2/ps3dev/ppu/bin/../lib/gcc/powerpc64-ps3-elf/4.5.2/../../../../powerpc64-ps3-elf/lib\libc.a(lib_a-strtol.o)
 .bss           0x00000000101045d0        0x0 c:/psdk3v2/ps3dev/ppu/bin/../lib/gcc/powerpc64-ps3-elf/4.5.2/../../../../powerpc64-ps3-elf/lib\libc.a(lib_a-strtoll_r.o)
 .bss           0x00000000101045d0        0x0 c:/psdk3v2/ps3dev/ppu/bin/../lib/gcc/powerpc64-ps3-elf/4.5.2/../../../../powerpc64-ps3-elf/lib\libc.a(lib_a-strtoul.o)
 .bss           0x00000000101045d0        0x0 c:/psdk3v2/ps3dev/ppu/bin/../lib/gcc/powerpc64-ps3-elf/4.5.2/../../../../powerpc64-ps3-elf/lib\libc.a(lib_a-strtoull_r.o)
 .bss           0x00000000101045d0        0x0 c:/psdk3v2/ps3dev/ppu/bin/../lib/gcc/powerpc64-ps3-elf/4.5.2/../../../../powerpc64-ps3-elf/lib\libc.a(lib_a-svfiscanf.o)
 .bss           0x00000000101045d0        0x0 c:/psdk3v2/ps3dev/ppu/bin/../lib/gcc/powerpc64-ps3-elf/4.5.2/../../../../powerpc64-ps3-elf/lib\libc.a(lib_a-svfprintf.o)
 .bss           0x00000000101045d0        0x0 c:/psdk3v2/ps3dev/ppu/bin/../lib/gcc/powerpc64-ps3-elf/4.5.2/../../../../powerpc64-ps3-elf/lib\libc.a(lib_a-ungetc.o)
 .bss           0x00000000101045d0        0x0 c:/psdk3v2/ps3dev/ppu/bin/../lib/gcc/powerpc64-ps3-elf/4.5.2/../../../../powerpc64-ps3-elf/lib\libc.a(lib_a-dtoa.o)
 .bss           0x00000000101045d0        0x0 c:/psdk3v2/ps3dev/ppu/bin/../lib/gcc/powerpc64-ps3-elf/4.5.2/../../../../powerpc64-ps3-elf/lib\libc.a(lib_a-fclose.o)
 .bss           0x00000000101045d0        0x0 c:/psdk3v2/ps3dev/ppu/bin/../lib/gcc/powerpc64-ps3-elf/4.5.2/../../../../powerpc64-ps3-elf/lib\libc.a(lib_a-fflush.o)
 .bss           0x00000000101045d0        0x0 c:/psdk3v2/ps3dev/ppu/bin/../lib/gcc/powerpc64-ps3-elf/4.5.2/../../../../powerpc64-ps3-elf/lib\libc.a(lib_a-gdtoa-gethex.o)
 .bss           0x00000000101045d0        0x0 c:/psdk3v2/ps3dev/ppu/bin/../lib/gcc/powerpc64-ps3-elf/4.5.2/../../../../powerpc64-ps3-elf/lib\libc.a(lib_a-gdtoa-hexnan.o)
 .bss           0x00000000101045d0        0x0 c:/psdk3v2/ps3dev/ppu/bin/../lib/gcc/powerpc64-ps3-elf/4.5.2/../../../../powerpc64-ps3-elf/lib\libc.a(lib_a-lock_internal.o)
 .bss.metaLock  0x00000000101045d0       0x18 c:/psdk3v2/ps3dev/ppu/bin/../lib/gcc/powerpc64-ps3-elf/4.5.2/../../../../powerpc64-ps3-elf/lib\libc.a(lib_a-lock_internal.o)
 .bss           0x00000000101045e8        0x0 c:/psdk3v2/ps3dev/ppu/bin/../lib/gcc/powerpc64-ps3-elf/4.5.2/../../../../powerpc64-ps3-elf/lib\libc.a(lib_a-memchr.o)
 .bss           0x00000000101045e8        0x0 c:/psdk3v2/ps3dev/ppu/bin/../lib/gcc/powerpc64-ps3-elf/4.5.2/../../../../powerpc64-ps3-elf/lib\libc.a(lib_a-mprec.o)
 .bss           0x00000000101045e8        0x0 c:/psdk3v2/ps3dev/ppu/bin/../lib/gcc/powerpc64-ps3-elf/4.5.2/../../../../powerpc64-ps3-elf/lib\libc.a(lib_a-reallocr.o)
 .bss           0x00000000101045e8        0x0 c:/psdk3v2/ps3dev/ppu/bin/../lib/gcc/powerpc64-ps3-elf/4.5.2/../../../../powerpc64-ps3-elf/lib\libc.a(lib_a-strncmp.o)
 .bss           0x00000000101045e8        0x0 c:/psdk3v2/ps3dev/ppu/bin/../lib/gcc/powerpc64-ps3-elf/4.5.2/../../../../powerpc64-ps3-elf/lib\libc.a(lib_a-svfiprintf.o)
 .bss           0x00000000101045e8        0x0 c:/psdk3v2/ps3dev/ppu/bin/../lib/gcc/powerpc64-ps3-elf/4.5.2/../../../../powerpc64-ps3-elf/lib\libc.a(lib_a-abort.o)
 .bss           0x00000000101045e8        0x0 c:/psdk3v2/ps3dev/ppu/bin/../lib/gcc/powerpc64-ps3-elf/4.5.2/../../../../powerpc64-ps3-elf/lib\libc.a(lib_a-callocr.o)
 .bss           0x00000000101045e8        0x0 c:/psdk3v2/ps3dev/ppu/bin/../lib/gcc/powerpc64-ps3-elf/4.5.2/../../../../powerpc64-ps3-elf/lib\libc.a(lib_a-memmove.o)
 .bss           0x00000000101045e8        0x0 c:/psdk3v2/ps3dev/ppu/bin/../lib/gcc/powerpc64-ps3-elf/4.5.2/../../../../powerpc64-ps3-elf/lib\libc.a(lib_a-signal.o)
 .bss           0x00000000101045e8        0x0 c:/psdk3v2/ps3dev/ppu/bin/../lib/gcc/powerpc64-ps3-elf/4.5.2/../../../../powerpc64-ps3-elf/lib\libsysbase.a(close.o)
 .bss           0x00000000101045e8        0x0 c:/psdk3v2/ps3dev/ppu/bin/../lib/gcc/powerpc64-ps3-elf/4.5.2/../../../../powerpc64-ps3-elf/lib\libsysbase.a(sbrk.o)
 .bss           0x00000000101045e8        0x0 c:/psdk3v2/ps3dev/ppu/bin/../lib/gcc/powerpc64-ps3-elf/4.5.2/../../../../powerpc64-ps3-elf/lib\libsysbase.a(_exit.o)
 .bss           0x00000000101045e8        0x0 c:/psdk3v2/ps3dev/ppu/bin/../lib/gcc/powerpc64-ps3-elf/4.5.2/../../../../powerpc64-ps3-elf/lib\libsysbase.a(lseek.o)
 .bss           0x00000000101045e8        0x0 c:/psdk3v2/ps3dev/ppu/bin/../lib/gcc/powerpc64-ps3-elf/4.5.2/../../../../powerpc64-ps3-elf/lib\libsysbase.a(read.o)
 .bss           0x00000000101045e8        0x0 c:/psdk3v2/ps3dev/ppu/bin/../lib/gcc/powerpc64-ps3-elf/4.5.2/../../../../powerpc64-ps3-elf/lib\libsysbase.a(write.o)
 .bss           0x00000000101045e8        0x0 c:/psdk3v2/ps3dev/ppu/bin/../lib/gcc/powerpc64-ps3-elf/4.5.2/../../../../powerpc64-ps3-elf/lib\libsysbase.a(lock.o)
 .bss           0x00000000101045e8        0x0 c:/psdk3v2/ps3dev/ppu/bin/../lib/gcc/powerpc64-ps3-elf/4.5.2/../../../../powerpc64-ps3-elf/lib\libsysbase.a(getpid.o)
 .bss           0x00000000101045e8        0x0 c:/psdk3v2/ps3dev/ppu/bin/../lib/gcc/powerpc64-ps3-elf/4.5.2/../../../../powerpc64-ps3-elf/lib\libsysbase.a(kill.o)
 .bss           0x00000000101045e8        0x0 c:/psdk3v2/ps3dev/ppu/bin/../lib/gcc/powerpc64-ps3-elf/4.5.2/crtend.o
 .bss           0x00000000101045e8        0x0 c:/psdk3v2/ps3dev/ppu/bin/../lib/gcc/powerpc64-ps3-elf/4.5.2/../../../../powerpc64-ps3-elf/lib/lv2-crtn.o
 *(COMMON)
 COMMON         0x00000000101045e8       0x34 main.o
                0x00000000101045e8                item
                0x0000000010104600                dorianTexture
                0x0000000010104618                dorianTexture_offset
 *fill*         0x000000001010461c        0x4 00
 COMMON         0x0000000010104620       0x20 c:/PSDK3v2/ps3dev/portlibs/ppu/lib\libtiny3d.a(mm.o)
                0x0000000010104620                heap_pointer
                0x0000000010104628                config
 COMMON         0x0000000010104640       0x24 c:/PSDK3v2/ps3dev/portlibs/ppu/lib\libtiny3d.a(rsxutil.o)
                0x0000000010104640                Video_buffer
                0x0000000010104650                Video_aspect
                0x0000000010104654                Video_pitch
                0x0000000010104658                context
                0x0000000010104660                Video_Resolution
 *fill*         0x0000000010104664        0x4 00
 COMMON         0x0000000010104668      0x100 c:/psdk3v2/ps3dev/ppu/bin/../lib/gcc/powerpc64-ps3-elf/4.5.2/../../../../powerpc64-ps3-elf/lib\libc.a(lib_a-gdtoa-gethex.o)
                0x0000000010104668                __hexdig
                0x0000000010104768                . = ALIGN (0x8)

.iplt           0x0000000010104768        0x0
 .iplt          0x0000000000000000        0x0 linker stubs
                0x0000000020000000                . = ALIGN (0x10000000)

.rsx_image
 *(.rsx_*)
                0x0000000020000000                _end = .
                0x0000000020000000                __end = .
                0x0000000020000000                PROVIDE (end, .)
                0x0000000020000000                . = ALIGN (0x8)

.stab
 *(.stab)

.stabstr
 *(.stabstr)

.stab.excl
 *(.stab.excl)

.stab.exclstr
 *(.stab.exclstr)

.stab.index
 *(.stab.index)

.stab.indexstr
 *(.stab.indexstr)

.comment        0x0000000000000000       0x11
 *(.comment)
 .comment       0x0000000000000000       0x11 c:/psdk3v2/ps3dev/ppu/bin/../lib/gcc/powerpc64-ps3-elf/4.5.2/crtbegin.o
                                         0x12 (size before relaxing)
 .comment       0x0000000000000000       0x12 c:/psdk3v2/ps3dev/ppu/bin/../lib/gcc/powerpc64-ps3-elf/4.5.2/../../../../powerpc64-ps3-elf/lib/lv2-crt0.o
 .comment       0x0000000000000000       0x12 main.o
 .comment       0x0000000000000000       0x12 c:/PSDK3v2/ps3dev/portlibs/ppu/lib\libtiny3d.a(tiny3d.o)
 .comment       0x0000000000000000       0x12 c:/PSDK3v2/ps3dev/portlibs/ppu/lib\libtiny3d.a(commands.o)
 .comment       0x0000000000000000       0x12 c:/PSDK3v2/ps3dev/portlibs/ppu/lib\libtiny3d.a(glue.o)
 .comment       0x0000000000000000       0x12 c:/PSDK3v2/ps3dev/portlibs/ppu/lib\libtiny3d.a(matrix.o)
 .comment       0x0000000000000000       0x12 c:/PSDK3v2/ps3dev/portlibs/ppu/lib\libtiny3d.a(mm.o)
 .comment       0x0000000000000000       0x12 c:/PSDK3v2/ps3dev/portlibs/ppu/lib\libtiny3d.a(realityVP.o)
 .comment       0x0000000000000000       0x12 c:/PSDK3v2/ps3dev/portlibs/ppu/lib\libtiny3d.a(rsxutil.o)
 .comment       0x0000000000000000       0x12 c:/PSDK3v2/ps3dev/portlibs/ppu/lib\libtiny3d.a(buffer.o)
 .comment       0x0000000000000000       0x12 c:/PSDK3v2/psl1ght/ppu/lib\libgcm_sys.a(sprx.o)
 .comment       0x0000000000000000       0x12 c:/PSDK3v2/psl1ght/ppu/lib\libio.a(sprx.o)
 .comment       0x0000000000000000       0x12 c:/PSDK3v2/psl1ght/ppu/lib\libsysutil.a(sprx.o)
 .comment       0x0000000000000000       0x12 c:/PSDK3v2/psl1ght/ppu/lib\libsysutil.a(sysutil_wrapper.o)
 .comment       0x0000000000000000       0x12 c:/PSDK3v2/psl1ght/ppu/lib\librt.a(sbrk.o)
 .comment       0x0000000000000000       0x12 c:/PSDK3v2/psl1ght/ppu/lib\librt.a(exit.o)
 .comment       0x0000000000000000       0x12 c:/PSDK3v2/psl1ght/ppu/lib\librt.a(close.o)
 .comment       0x0000000000000000       0x12 c:/PSDK3v2/psl1ght/ppu/lib\librt.a(lseek.o)
 .comment       0x0000000000000000       0x12 c:/PSDK3v2/psl1ght/ppu/lib\librt.a(read.o)
 .comment       0x0000000000000000       0x12 c:/PSDK3v2/psl1ght/ppu/lib\librt.a(open.o)
 .comment       0x0000000000000000       0x12 c:/PSDK3v2/psl1ght/ppu/lib\librt.a(sleep.o)
 .comment       0x0000000000000000       0x12 c:/PSDK3v2/psl1ght/ppu/lib\librt.a(write.o)
 .comment       0x0000000000000000       0x12 c:/PSDK3v2/psl1ght/ppu/lib\librt.a(fstat.o)
 .comment       0x0000000000000000       0x12 c:/PSDK3v2/psl1ght/ppu/lib\librt.a(socket.o)
 .comment       0x0000000000000000       0x12 c:/PSDK3v2/psl1ght/ppu/lib\librt.a(lock.o)
 .comment       0x0000000000000000       0x12 c:/PSDK3v2/psl1ght/ppu/lib\librt.a(dirent.o)
 .comment       0x0000000000000000       0x12 c:/PSDK3v2/psl1ght/ppu/lib\librt.a(mkdir.o)
 .comment       0x0000000000000000       0x12 c:/PSDK3v2/psl1ght/ppu/lib\librt.a(times.o)
 .comment       0x0000000000000000       0x12 c:/PSDK3v2/psl1ght/ppu/lib\librt.a(umask.o)
 .comment       0x0000000000000000       0x12 c:/PSDK3v2/psl1ght/ppu/lib\librt.a(lv2errno.o)
 .comment       0x0000000000000000       0x12 c:/PSDK3v2/psl1ght/ppu/lib\librt.a(heap.o)
 .comment       0x0000000000000000       0x12 c:/PSDK3v2/psl1ght/ppu/lib\librt.a(chmod.o)
 .comment       0x0000000000000000       0x12 c:/PSDK3v2/psl1ght/ppu/lib\librt.a(rmdir.o)
 .comment       0x0000000000000000       0x12 c:/PSDK3v2/psl1ght/ppu/lib\librt.a(isatty.o)
 .comment       0x0000000000000000       0x12 c:/PSDK3v2/psl1ght/ppu/lib\librt.a(gettod.o)
 .comment       0x0000000000000000       0x12 c:/PSDK3v2/psl1ght/ppu/lib\librt.a(settod.o)
 .comment       0x0000000000000000       0x12 c:/PSDK3v2/psl1ght/ppu/lib\liblv2.a(sprx.o)
 .comment       0x0000000000000000       0x12 c:/PSDK3v2/psl1ght/ppu/lib\libpngdec.a(pngdec.o)
 .comment       0x0000000000000000       0x12 c:/PSDK3v2/psl1ght/ppu/lib\libpngdec.a(sprx.o)
 .comment       0x0000000000000000       0x12 c:/PSDK3v2/psl1ght/ppu/lib\libsysmodule.a(sprx.o)
 .comment       0x0000000000000000       0x12 c:/psdk3v2/ps3dev/ppu/bin/../lib/gcc/powerpc64-ps3-elf/4.5.2/../../../../powerpc64-ps3-elf/lib\libm.a(lib_a-s_sqrt.o)
 .comment       0x0000000000000000       0x12 c:/psdk3v2/ps3dev/ppu/bin/../lib/gcc/powerpc64-ps3-elf/4.5.2/../../../../powerpc64-ps3-elf/lib\libm.a(lib_a-sf_cos.o)
 .comment       0x0000000000000000       0x12 c:/psdk3v2/ps3dev/ppu/bin/../lib/gcc/powerpc64-ps3-elf/4.5.2/../../../../powerpc64-ps3-elf/lib\libm.a(lib_a-sf_sin.o)
 .comment       0x0000000000000000       0x12 c:/psdk3v2/ps3dev/ppu/bin/../lib/gcc/powerpc64-ps3-elf/4.5.2/../../../../powerpc64-ps3-elf/lib\libm.a(lib_a-sf_sine.o)
 .comment       0x0000000000000000       0x12 c:/psdk3v2/ps3dev/ppu/bin/../lib/gcc/powerpc64-ps3-elf/4.5.2/../../../../powerpc64-ps3-elf/lib\libm.a(lib_a-sf_sqrt.o)
 .comment       0x0000000000000000       0x12 c:/psdk3v2/ps3dev/ppu/bin/../lib/gcc/powerpc64-ps3-elf/4.5.2/../../../../powerpc64-ps3-elf/lib\libm.a(lib_a-sf_tan.o)
 .comment       0x0000000000000000       0x12 c:/psdk3v2/ps3dev/ppu/bin/../lib/gcc/powerpc64-ps3-elf/4.5.2/../../../../powerpc64-ps3-elf/lib\libm.a(lib_a-s_frexp.o)
 .comment       0x0000000000000000       0x12 c:/psdk3v2/ps3dev/ppu/bin/../lib/gcc/powerpc64-ps3-elf/4.5.2/../../../../powerpc64-ps3-elf/lib\libm.a(lib_a-s_ispos.o)
 .comment       0x0000000000000000       0x12 c:/psdk3v2/ps3dev/ppu/bin/../lib/gcc/powerpc64-ps3-elf/4.5.2/../../../../powerpc64-ps3-elf/lib\libm.a(lib_a-s_ldexp.o)
 .comment       0x0000000000000000       0x12 c:/psdk3v2/ps3dev/ppu/bin/../lib/gcc/powerpc64-ps3-elf/4.5.2/../../../../powerpc64-ps3-elf/lib\libm.a(lib_a-s_mathcnst.o)
 .comment       0x0000000000000000       0x12 c:/psdk3v2/ps3dev/ppu/bin/../lib/gcc/powerpc64-ps3-elf/4.5.2/../../../../powerpc64-ps3-elf/lib\libm.a(lib_a-s_numtest.o)
 .comment       0x0000000000000000       0x12 c:/psdk3v2/ps3dev/ppu/bin/../lib/gcc/powerpc64-ps3-elf/4.5.2/../../../../powerpc64-ps3-elf/lib\libm.a(lib_a-sf_fabs.o)
 .comment       0x0000000000000000       0x12 c:/psdk3v2/ps3dev/ppu/bin/../lib/gcc/powerpc64-ps3-elf/4.5.2/../../../../powerpc64-ps3-elf/lib\libm.a(lib_a-sf_frexp.o)
 .comment       0x0000000000000000       0x12 c:/psdk3v2/ps3dev/ppu/bin/../lib/gcc/powerpc64-ps3-elf/4.5.2/../../../../powerpc64-ps3-elf/lib\libm.a(lib_a-sf_ispos.o)
 .comment       0x0000000000000000       0x12 c:/psdk3v2/ps3dev/ppu/bin/../lib/gcc/powerpc64-ps3-elf/4.5.2/../../../../powerpc64-ps3-elf/lib\libm.a(lib_a-sf_ldexp.o)
 .comment       0x0000000000000000       0x12 c:/psdk3v2/ps3dev/ppu/bin/../lib/gcc/powerpc64-ps3-elf/4.5.2/../../../../powerpc64-ps3-elf/lib\libm.a(lib_a-sf_numtest.o)
 .comment       0x0000000000000000       0x12 c:/psdk3v2/ps3dev/ppu/bin/../lib/gcc/powerpc64-ps3-elf/4.5.2/../../../../powerpc64-ps3-elf/lib\libsysbase.a(syscalls.o)
 .comment       0x0000000000000000       0x12 c:/psdk3v2/ps3dev/ppu/bin/../lib/gcc/powerpc64-ps3-elf/4.5.2/../../../../powerpc64-ps3-elf/lib\libsysbase.a(sleep.o)
 .comment       0x0000000000000000       0x12 c:/psdk3v2/ps3dev/ppu/bin/../lib/gcc/powerpc64-ps3-elf/4.5.2/../../../../powerpc64-ps3-elf/lib\libc.a(lib_a-atexit.o)
 .comment       0x0000000000000000       0x12 c:/psdk3v2/ps3dev/ppu/bin/../lib/gcc/powerpc64-ps3-elf/4.5.2/../../../../powerpc64-ps3-elf/lib\libc.a(lib_a-errno.o)
 .comment       0x0000000000000000       0x12 c:/psdk3v2/ps3dev/ppu/bin/../lib/gcc/powerpc64-ps3-elf/4.5.2/../../../../powerpc64-ps3-elf/lib\libc.a(lib_a-exit.o)
 .comment       0x0000000000000000       0x12 c:/psdk3v2/ps3dev/ppu/bin/../lib/gcc/powerpc64-ps3-elf/4.5.2/../../../../powerpc64-ps3-elf/lib\libc.a(lib_a-getreent.o)
 .comment       0x0000000000000000       0x12 c:/psdk3v2/ps3dev/ppu/bin/../lib/gcc/powerpc64-ps3-elf/4.5.2/../../../../powerpc64-ps3-elf/lib\libc.a(lib_a-impure.o)
 .comment       0x0000000000000000       0x12 c:/psdk3v2/ps3dev/ppu/bin/../lib/gcc/powerpc64-ps3-elf/4.5.2/../../../../powerpc64-ps3-elf/lib\libc.a(lib_a-malign.o)
 .comment       0x0000000000000000       0x12 c:/psdk3v2/ps3dev/ppu/bin/../lib/gcc/powerpc64-ps3-elf/4.5.2/../../../../powerpc64-ps3-elf/lib\libc.a(lib_a-malignr.o)
 .comment       0x0000000000000000       0x12 c:/psdk3v2/ps3dev/ppu/bin/../lib/gcc/powerpc64-ps3-elf/4.5.2/../../../../powerpc64-ps3-elf/lib\libc.a(lib_a-malloc.o)
 .comment       0x0000000000000000       0x12 c:/psdk3v2/ps3dev/ppu/bin/../lib/gcc/powerpc64-ps3-elf/4.5.2/../../../../powerpc64-ps3-elf/lib\libc.a(lib_a-mallocr.o)
 .comment       0x0000000000000000       0x12 c:/psdk3v2/ps3dev/ppu/bin/../lib/gcc/powerpc64-ps3-elf/4.5.2/../../../../powerpc64-ps3-elf/lib\libc.a(lib_a-memcpy.o)
 .comment       0x0000000000000000       0x12 c:/psdk3v2/ps3dev/ppu/bin/../lib/gcc/powerpc64-ps3-elf/4.5.2/../../../../powerpc64-ps3-elf/lib\libc.a(lib_a-memset.o)
 .comment       0x0000000000000000       0x12 c:/psdk3v2/ps3dev/ppu/bin/../lib/gcc/powerpc64-ps3-elf/4.5.2/../../../../powerpc64-ps3-elf/lib\libc.a(lib_a-mlock.o)
 .comment       0x0000000000000000       0x12 c:/psdk3v2/ps3dev/ppu/bin/../lib/gcc/powerpc64-ps3-elf/4.5.2/../../../../powerpc64-ps3-elf/lib\libc.a(lib_a-sscanf.o)
 .comment       0x0000000000000000       0x12 c:/psdk3v2/ps3dev/ppu/bin/../lib/gcc/powerpc64-ps3-elf/4.5.2/../../../../powerpc64-ps3-elf/lib\libc.a(lib_a-stdio.o)
 .comment       0x0000000000000000       0x12 c:/psdk3v2/ps3dev/ppu/bin/../lib/gcc/powerpc64-ps3-elf/4.5.2/../../../../powerpc64-ps3-elf/lib\libc.a(lib_a-strcasecmp.o)
 .comment       0x0000000000000000       0x12 c:/psdk3v2/ps3dev/ppu/bin/../lib/gcc/powerpc64-ps3-elf/4.5.2/../../../../powerpc64-ps3-elf/lib\libc.a(lib_a-strlen.o)
 .comment       0x0000000000000000       0x12 c:/psdk3v2/ps3dev/ppu/bin/../lib/gcc/powerpc64-ps3-elf/4.5.2/../../../../powerpc64-ps3-elf/lib\libc.a(lib_a-strncpy.o)
 .comment       0x0000000000000000       0x12 c:/psdk3v2/ps3dev/ppu/bin/../lib/gcc/powerpc64-ps3-elf/4.5.2/../../../../powerpc64-ps3-elf/lib\libc.a(lib_a-svfscanf.o)
 .comment       0x0000000000000000       0x12 c:/psdk3v2/ps3dev/ppu/bin/../lib/gcc/powerpc64-ps3-elf/4.5.2/../../../../powerpc64-ps3-elf/lib\libc.a(lib_a-__atexit.o)
 .comment       0x0000000000000000       0x12 c:/psdk3v2/ps3dev/ppu/bin/../lib/gcc/powerpc64-ps3-elf/4.5.2/../../../../powerpc64-ps3-elf/lib\libc.a(lib_a-__call_atexit.o)
 .comment       0x0000000000000000       0x12 c:/psdk3v2/ps3dev/ppu/bin/../lib/gcc/powerpc64-ps3-elf/4.5.2/../../../../powerpc64-ps3-elf/lib\libc.a(lib_a-ctype_.o)
 .comment       0x0000000000000000       0x12 c:/psdk3v2/ps3dev/ppu/bin/../lib/gcc/powerpc64-ps3-elf/4.5.2/../../../../powerpc64-ps3-elf/lib\libc.a(lib_a-findfp.o)
 .comment       0x0000000000000000       0x12 c:/psdk3v2/ps3dev/ppu/bin/../lib/gcc/powerpc64-ps3-elf/4.5.2/../../../../powerpc64-ps3-elf/lib\libc.a(lib_a-freer.o)
 .comment       0x0000000000000000       0x12 c:/psdk3v2/ps3dev/ppu/bin/../lib/gcc/powerpc64-ps3-elf/4.5.2/../../../../powerpc64-ps3-elf/lib\libc.a(lib_a-fwalk.o)
 .comment       0x0000000000000000       0x12 c:/psdk3v2/ps3dev/ppu/bin/../lib/gcc/powerpc64-ps3-elf/4.5.2/../../../../powerpc64-ps3-elf/lib\libc.a(lib_a-iswspace.o)
 .comment       0x0000000000000000       0x12 c:/psdk3v2/ps3dev/ppu/bin/../lib/gcc/powerpc64-ps3-elf/4.5.2/../../../../powerpc64-ps3-elf/lib\libc.a(lib_a-locale.o)
 .comment       0x0000000000000000       0x12 c:/psdk3v2/ps3dev/ppu/bin/../lib/gcc/powerpc64-ps3-elf/4.5.2/../../../../powerpc64-ps3-elf/lib\libc.a(lib_a-lock_recursive.o)
 .comment       0x0000000000000000       0x12 c:/psdk3v2/ps3dev/ppu/bin/../lib/gcc/powerpc64-ps3-elf/4.5.2/../../../../powerpc64-ps3-elf/lib\libc.a(lib_a-mbrtowc.o)
 .comment       0x0000000000000000       0x12 c:/psdk3v2/ps3dev/ppu/bin/../lib/gcc/powerpc64-ps3-elf/4.5.2/../../../../powerpc64-ps3-elf/lib\libc.a(lib_a-mbtowc_r.o)
 .comment       0x0000000000000000       0x12 c:/psdk3v2/ps3dev/ppu/bin/../lib/gcc/powerpc64-ps3-elf/4.5.2/../../../../powerpc64-ps3-elf/lib\libc.a(lib_a-s_fpclassify.o)
 .comment       0x0000000000000000       0x12 c:/psdk3v2/ps3dev/ppu/bin/../lib/gcc/powerpc64-ps3-elf/4.5.2/../../../../powerpc64-ps3-elf/lib\libc.a(lib_a-sccl.o)
 .comment       0x0000000000000000       0x12 c:/psdk3v2/ps3dev/ppu/bin/../lib/gcc/powerpc64-ps3-elf/4.5.2/../../../../powerpc64-ps3-elf/lib\libc.a(lib_a-sf_nan.o)
 .comment       0x0000000000000000       0x12 c:/psdk3v2/ps3dev/ppu/bin/../lib/gcc/powerpc64-ps3-elf/4.5.2/../../../../powerpc64-ps3-elf/lib\libc.a(lib_a-sprintf.o)
 .comment       0x0000000000000000       0x12 c:/psdk3v2/ps3dev/ppu/bin/../lib/gcc/powerpc64-ps3-elf/4.5.2/../../../../powerpc64-ps3-elf/lib\libc.a(lib_a-strcmp.o)
 .comment       0x0000000000000000       0x12 c:/psdk3v2/ps3dev/ppu/bin/../lib/gcc/powerpc64-ps3-elf/4.5.2/../../../../powerpc64-ps3-elf/lib\libc.a(lib_a-strtod.o)
 .comment       0x0000000000000000       0x12 c:/psdk3v2/ps3dev/ppu/bin/../lib/gcc/powerpc64-ps3-elf/4.5.2/../../../../powerpc64-ps3-elf/lib\libc.a(lib_a-strtol.o)
 .comment       0x0000000000000000       0x12 c:/psdk3v2/ps3dev/ppu/bin/../lib/gcc/powerpc64-ps3-elf/4.5.2/../../../../powerpc64-ps3-elf/lib\libc.a(lib_a-strtoll_r.o)
 .comment       0x0000000000000000       0x12 c:/psdk3v2/ps3dev/ppu/bin/../lib/gcc/powerpc64-ps3-elf/4.5.2/../../../../powerpc64-ps3-elf/lib\libc.a(lib_a-strtoul.o)
 .comment       0x0000000000000000       0x12 c:/psdk3v2/ps3dev/ppu/bin/../lib/gcc/powerpc64-ps3-elf/4.5.2/../../../../powerpc64-ps3-elf/lib\libc.a(lib_a-strtoull_r.o)
 .comment       0x0000000000000000       0x12 c:/psdk3v2/ps3dev/ppu/bin/../lib/gcc/powerpc64-ps3-elf/4.5.2/../../../../powerpc64-ps3-elf/lib\libc.a(lib_a-svfiscanf.o)
 .comment       0x0000000000000000       0x12 c:/psdk3v2/ps3dev/ppu/bin/../lib/gcc/powerpc64-ps3-elf/4.5.2/../../../../powerpc64-ps3-elf/lib\libc.a(lib_a-svfprintf.o)
 .comment       0x0000000000000000       0x12 c:/psdk3v2/ps3dev/ppu/bin/../lib/gcc/powerpc64-ps3-elf/4.5.2/../../../../powerpc64-ps3-elf/lib\libc.a(lib_a-ungetc.o)
 .comment       0x0000000000000000       0x12 c:/psdk3v2/ps3dev/ppu/bin/../lib/gcc/powerpc64-ps3-elf/4.5.2/../../../../powerpc64-ps3-elf/lib\libc.a(lib_a-dtoa.o)
 .comment       0x0000000000000000       0x12 c:/psdk3v2/ps3dev/ppu/bin/../lib/gcc/powerpc64-ps3-elf/4.5.2/../../../../powerpc64-ps3-elf/lib\libc.a(lib_a-fclose.o)
 .comment       0x0000000000000000       0x12 c:/psdk3v2/ps3dev/ppu/bin/../lib/gcc/powerpc64-ps3-elf/4.5.2/../../../../powerpc64-ps3-elf/lib\libc.a(lib_a-fflush.o)
 .comment       0x0000000000000000       0x12 c:/psdk3v2/ps3dev/ppu/bin/../lib/gcc/powerpc64-ps3-elf/4.5.2/../../../../powerpc64-ps3-elf/lib\libc.a(lib_a-gdtoa-gethex.o)
 .comment       0x0000000000000000       0x12 c:/psdk3v2/ps3dev/ppu/bin/../lib/gcc/powerpc64-ps3-elf/4.5.2/../../../../powerpc64-ps3-elf/lib\libc.a(lib_a-gdtoa-hexnan.o)
 .comment       0x0000000000000000       0x12 c:/psdk3v2/ps3dev/ppu/bin/../lib/gcc/powerpc64-ps3-elf/4.5.2/../../../../powerpc64-ps3-elf/lib\libc.a(lib_a-lock_internal.o)
 .comment       0x0000000000000000       0x12 c:/psdk3v2/ps3dev/ppu/bin/../lib/gcc/powerpc64-ps3-elf/4.5.2/../../../../powerpc64-ps3-elf/lib\libc.a(lib_a-memchr.o)
 .comment       0x0000000000000000       0x12 c:/psdk3v2/ps3dev/ppu/bin/../lib/gcc/powerpc64-ps3-elf/4.5.2/../../../../powerpc64-ps3-elf/lib\libc.a(lib_a-mprec.o)
 .comment       0x0000000000000000       0x12 c:/psdk3v2/ps3dev/ppu/bin/../lib/gcc/powerpc64-ps3-elf/4.5.2/../../../../powerpc64-ps3-elf/lib\libc.a(lib_a-reallocr.o)
 .comment       0x0000000000000000       0x12 c:/psdk3v2/ps3dev/ppu/bin/../lib/gcc/powerpc64-ps3-elf/4.5.2/../../../../powerpc64-ps3-elf/lib\libc.a(lib_a-strncmp.o)
 .comment       0x0000000000000000       0x12 c:/psdk3v2/ps3dev/ppu/bin/../lib/gcc/powerpc64-ps3-elf/4.5.2/../../../../powerpc64-ps3-elf/lib\libc.a(lib_a-svfiprintf.o)
 .comment       0x0000000000000000       0x12 c:/psdk3v2/ps3dev/ppu/bin/../lib/gcc/powerpc64-ps3-elf/4.5.2/../../../../powerpc64-ps3-elf/lib\libc.a(lib_a-abort.o)
 .comment       0x0000000000000000       0x12 c:/psdk3v2/ps3dev/ppu/bin/../lib/gcc/powerpc64-ps3-elf/4.5.2/../../../../powerpc64-ps3-elf/lib\libc.a(lib_a-callocr.o)
 .comment       0x0000000000000000       0x12 c:/psdk3v2/ps3dev/ppu/bin/../lib/gcc/powerpc64-ps3-elf/4.5.2/../../../../powerpc64-ps3-elf/lib\libc.a(lib_a-memmove.o)
 .comment       0x0000000000000000       0x12 c:/psdk3v2/ps3dev/ppu/bin/../lib/gcc/powerpc64-ps3-elf/4.5.2/../../../../powerpc64-ps3-elf/lib\libc.a(lib_a-signal.o)
 .comment       0x0000000000000000       0x12 c:/psdk3v2/ps3dev/ppu/bin/../lib/gcc/powerpc64-ps3-elf/4.5.2/../../../../powerpc64-ps3-elf/lib\libsysbase.a(close.o)
 .comment       0x0000000000000000       0x12 c:/psdk3v2/ps3dev/ppu/bin/../lib/gcc/powerpc64-ps3-elf/4.5.2/../../../../powerpc64-ps3-elf/lib\libsysbase.a(sbrk.o)
 .comment       0x0000000000000000       0x12 c:/psdk3v2/ps3dev/ppu/bin/../lib/gcc/powerpc64-ps3-elf/4.5.2/../../../../powerpc64-ps3-elf/lib\libsysbase.a(_exit.o)
 .comment       0x0000000000000000       0x12 c:/psdk3v2/ps3dev/ppu/bin/../lib/gcc/powerpc64-ps3-elf/4.5.2/../../../../powerpc64-ps3-elf/lib\libsysbase.a(lseek.o)
 .comment       0x0000000000000000       0x12 c:/psdk3v2/ps3dev/ppu/bin/../lib/gcc/powerpc64-ps3-elf/4.5.2/../../../../powerpc64-ps3-elf/lib\libsysbase.a(read.o)
 .comment       0x0000000000000000       0x12 c:/psdk3v2/ps3dev/ppu/bin/../lib/gcc/powerpc64-ps3-elf/4.5.2/../../../../powerpc64-ps3-elf/lib\libsysbase.a(write.o)
 .comment       0x0000000000000000       0x12 c:/psdk3v2/ps3dev/ppu/bin/../lib/gcc/powerpc64-ps3-elf/4.5.2/../../../../powerpc64-ps3-elf/lib\libsysbase.a(lock.o)
 .comment       0x0000000000000000       0x12 c:/psdk3v2/ps3dev/ppu/bin/../lib/gcc/powerpc64-ps3-elf/4.5.2/../../../../powerpc64-ps3-elf/lib\libsysbase.a(getpid.o)
 .comment       0x0000000000000000       0x12 c:/psdk3v2/ps3dev/ppu/bin/../lib/gcc/powerpc64-ps3-elf/4.5.2/../../../../powerpc64-ps3-elf/lib\libsysbase.a(kill.o)
 .comment       0x0000000000000000       0x12 c:/psdk3v2/ps3dev/ppu/bin/../lib/gcc/powerpc64-ps3-elf/4.5.2/crtend.o

.debug
 *(.debug)

.line
 *(.line)

.debug_srcinfo
 *(.debug_srcinfo)

.debug_sfnames
 *(.debug_sfnames)

.debug_aranges  0x0000000000000000     0x1420
 *(.debug_aranges)
 .debug_aranges
                0x0000000000000000       0x30 c:/psdk3v2/ps3dev/ppu/bin/../lib/gcc/powerpc64-ps3-elf/4.5.2/../../../../powerpc64-ps3-elf/lib\libm.a(lib_a-s_sqrt.o)
 .debug_aranges
                0x0000000000000030       0x30 c:/psdk3v2/ps3dev/ppu/bin/../lib/gcc/powerpc64-ps3-elf/4.5.2/../../../../powerpc64-ps3-elf/lib\libm.a(lib_a-sf_cos.o)
 .debug_aranges
                0x0000000000000060       0x30 c:/psdk3v2/ps3dev/ppu/bin/../lib/gcc/powerpc64-ps3-elf/4.5.2/../../../../powerpc64-ps3-elf/lib\libm.a(lib_a-sf_sin.o)
 .debug_aranges
                0x0000000000000090       0x30 c:/psdk3v2/ps3dev/ppu/bin/../lib/gcc/powerpc64-ps3-elf/4.5.2/../../../../powerpc64-ps3-elf/lib\libm.a(lib_a-sf_sine.o)
 .debug_aranges
                0x00000000000000c0       0x30 c:/psdk3v2/ps3dev/ppu/bin/../lib/gcc/powerpc64-ps3-elf/4.5.2/../../../../powerpc64-ps3-elf/lib\libm.a(lib_a-sf_sqrt.o)
 .debug_aranges
                0x00000000000000f0       0x30 c:/psdk3v2/ps3dev/ppu/bin/../lib/gcc/powerpc64-ps3-elf/4.5.2/../../../../powerpc64-ps3-elf/lib\libm.a(lib_a-sf_tan.o)
 .debug_aranges
                0x0000000000000120       0x30 c:/psdk3v2/ps3dev/ppu/bin/../lib/gcc/powerpc64-ps3-elf/4.5.2/../../../../powerpc64-ps3-elf/lib\libm.a(lib_a-s_frexp.o)
 .debug_aranges
                0x0000000000000150       0x30 c:/psdk3v2/ps3dev/ppu/bin/../lib/gcc/powerpc64-ps3-elf/4.5.2/../../../../powerpc64-ps3-elf/lib\libm.a(lib_a-s_ispos.o)
 .debug_aranges
                0x0000000000000180       0x30 c:/psdk3v2/ps3dev/ppu/bin/../lib/gcc/powerpc64-ps3-elf/4.5.2/../../../../powerpc64-ps3-elf/lib\libm.a(lib_a-s_ldexp.o)
 .debug_aranges
                0x00000000000001b0       0x30 c:/psdk3v2/ps3dev/ppu/bin/../lib/gcc/powerpc64-ps3-elf/4.5.2/../../../../powerpc64-ps3-elf/lib\libm.a(lib_a-s_numtest.o)
 .debug_aranges
                0x00000000000001e0       0x30 c:/psdk3v2/ps3dev/ppu/bin/../lib/gcc/powerpc64-ps3-elf/4.5.2/../../../../powerpc64-ps3-elf/lib\libm.a(lib_a-sf_fabs.o)
 .debug_aranges
                0x0000000000000210       0x30 c:/psdk3v2/ps3dev/ppu/bin/../lib/gcc/powerpc64-ps3-elf/4.5.2/../../../../powerpc64-ps3-elf/lib\libm.a(lib_a-sf_frexp.o)
 .debug_aranges
                0x0000000000000240       0x30 c:/psdk3v2/ps3dev/ppu/bin/../lib/gcc/powerpc64-ps3-elf/4.5.2/../../../../powerpc64-ps3-elf/lib\libm.a(lib_a-sf_ispos.o)
 .debug_aranges
                0x0000000000000270       0x30 c:/psdk3v2/ps3dev/ppu/bin/../lib/gcc/powerpc64-ps3-elf/4.5.2/../../../../powerpc64-ps3-elf/lib\libm.a(lib_a-sf_ldexp.o)
 .debug_aranges
                0x00000000000002a0       0x30 c:/psdk3v2/ps3dev/ppu/bin/../lib/gcc/powerpc64-ps3-elf/4.5.2/../../../../powerpc64-ps3-elf/lib\libm.a(lib_a-sf_numtest.o)
 .debug_aranges
                0x00000000000002d0       0x40 c:/psdk3v2/ps3dev/ppu/bin/../lib/gcc/powerpc64-ps3-elf/4.5.2/../../../../powerpc64-ps3-elf/lib\libsysbase.a(sleep.o)
 .debug_aranges
                0x0000000000000310       0x30 c:/psdk3v2/ps3dev/ppu/bin/../lib/gcc/powerpc64-ps3-elf/4.5.2/../../../../powerpc64-ps3-elf/lib\libc.a(lib_a-atexit.o)
 .debug_aranges
                0x0000000000000340       0x30 c:/psdk3v2/ps3dev/ppu/bin/../lib/gcc/powerpc64-ps3-elf/4.5.2/../../../../powerpc64-ps3-elf/lib\libc.a(lib_a-errno.o)
 .debug_aranges
                0x0000000000000370       0x30 c:/psdk3v2/ps3dev/ppu/bin/../lib/gcc/powerpc64-ps3-elf/4.5.2/../../../../powerpc64-ps3-elf/lib\libc.a(lib_a-exit.o)
 .debug_aranges
                0x00000000000003a0       0x30 c:/psdk3v2/ps3dev/ppu/bin/../lib/gcc/powerpc64-ps3-elf/4.5.2/../../../../powerpc64-ps3-elf/lib\libc.a(lib_a-getreent.o)
 .debug_aranges
                0x00000000000003d0       0x30 c:/psdk3v2/ps3dev/ppu/bin/../lib/gcc/powerpc64-ps3-elf/4.5.2/../../../../powerpc64-ps3-elf/lib\libc.a(lib_a-malign.o)
 .debug_aranges
                0x0000000000000400       0x30 c:/psdk3v2/ps3dev/ppu/bin/../lib/gcc/powerpc64-ps3-elf/4.5.2/../../../../powerpc64-ps3-elf/lib\libc.a(lib_a-malignr.o)
 .debug_aranges
                0x0000000000000430       0x40 c:/psdk3v2/ps3dev/ppu/bin/../lib/gcc/powerpc64-ps3-elf/4.5.2/../../../../powerpc64-ps3-elf/lib\libc.a(lib_a-malloc.o)
 .debug_aranges
                0x0000000000000470       0x30 c:/psdk3v2/ps3dev/ppu/bin/../lib/gcc/powerpc64-ps3-elf/4.5.2/../../../../powerpc64-ps3-elf/lib\libc.a(lib_a-mallocr.o)
 .debug_aranges
                0x00000000000004a0       0x30 c:/psdk3v2/ps3dev/ppu/bin/../lib/gcc/powerpc64-ps3-elf/4.5.2/../../../../powerpc64-ps3-elf/lib\libc.a(lib_a-memcpy.o)
 .debug_aranges
                0x00000000000004d0       0x30 c:/psdk3v2/ps3dev/ppu/bin/../lib/gcc/powerpc64-ps3-elf/4.5.2/../../../../powerpc64-ps3-elf/lib\libc.a(lib_a-memset.o)
 .debug_aranges
                0x0000000000000500       0x40 c:/psdk3v2/ps3dev/ppu/bin/../lib/gcc/powerpc64-ps3-elf/4.5.2/../../../../powerpc64-ps3-elf/lib\libc.a(lib_a-mlock.o)
 .debug_aranges
                0x0000000000000540       0x40 c:/psdk3v2/ps3dev/ppu/bin/../lib/gcc/powerpc64-ps3-elf/4.5.2/../../../../powerpc64-ps3-elf/lib\libc.a(lib_a-sscanf.o)
 .debug_aranges
                0x0000000000000580       0x70 c:/psdk3v2/ps3dev/ppu/bin/../lib/gcc/powerpc64-ps3-elf/4.5.2/../../../../powerpc64-ps3-elf/lib\libc.a(lib_a-stdio.o)
 .debug_aranges
                0x00000000000005f0       0x30 c:/psdk3v2/ps3dev/ppu/bin/../lib/gcc/powerpc64-ps3-elf/4.5.2/../../../../powerpc64-ps3-elf/lib\libc.a(lib_a-strcasecmp.o)
 .debug_aranges
                0x0000000000000620       0x30 c:/psdk3v2/ps3dev/ppu/bin/../lib/gcc/powerpc64-ps3-elf/4.5.2/../../../../powerpc64-ps3-elf/lib\libc.a(lib_a-strlen.o)
 .debug_aranges
                0x0000000000000650       0x30 c:/psdk3v2/ps3dev/ppu/bin/../lib/gcc/powerpc64-ps3-elf/4.5.2/../../../../powerpc64-ps3-elf/lib\libc.a(lib_a-strncpy.o)
 .debug_aranges
                0x0000000000000680       0x30 c:/psdk3v2/ps3dev/ppu/bin/../lib/gcc/powerpc64-ps3-elf/4.5.2/../../../../powerpc64-ps3-elf/lib\libc.a(lib_a-svfscanf.o)
 .debug_aranges
                0x00000000000006b0       0x30 c:/psdk3v2/ps3dev/ppu/bin/../lib/gcc/powerpc64-ps3-elf/4.5.2/../../../../powerpc64-ps3-elf/lib\libc.a(lib_a-__atexit.o)
 .debug_aranges
                0x00000000000006e0       0x30 c:/psdk3v2/ps3dev/ppu/bin/../lib/gcc/powerpc64-ps3-elf/4.5.2/../../../../powerpc64-ps3-elf/lib\libc.a(lib_a-__call_atexit.o)
 .debug_aranges
                0x0000000000000710       0xf0 c:/psdk3v2/ps3dev/ppu/bin/../lib/gcc/powerpc64-ps3-elf/4.5.2/../../../../powerpc64-ps3-elf/lib\libc.a(lib_a-findfp.o)
 .debug_aranges
                0x0000000000000800       0x40 c:/psdk3v2/ps3dev/ppu/bin/../lib/gcc/powerpc64-ps3-elf/4.5.2/../../../../powerpc64-ps3-elf/lib\libc.a(lib_a-freer.o)
 .debug_aranges
                0x0000000000000840       0x40 c:/psdk3v2/ps3dev/ppu/bin/../lib/gcc/powerpc64-ps3-elf/4.5.2/../../../../powerpc64-ps3-elf/lib\libc.a(lib_a-fwalk.o)
 .debug_aranges
                0x0000000000000880       0x30 c:/psdk3v2/ps3dev/ppu/bin/../lib/gcc/powerpc64-ps3-elf/4.5.2/../../../../powerpc64-ps3-elf/lib\libc.a(lib_a-iswspace.o)
 .debug_aranges
                0x00000000000008b0       0xa0 c:/psdk3v2/ps3dev/ppu/bin/../lib/gcc/powerpc64-ps3-elf/4.5.2/../../../../powerpc64-ps3-elf/lib\libc.a(lib_a-locale.o)
 .debug_aranges
                0x0000000000000950       0x70 c:/psdk3v2/ps3dev/ppu/bin/../lib/gcc/powerpc64-ps3-elf/4.5.2/../../../../powerpc64-ps3-elf/lib\libc.a(lib_a-lock_recursive.o)
 .debug_aranges
                0x00000000000009c0       0x40 c:/psdk3v2/ps3dev/ppu/bin/../lib/gcc/powerpc64-ps3-elf/4.5.2/../../../../powerpc64-ps3-elf/lib\libc.a(lib_a-mbrtowc.o)
 .debug_aranges
                0x0000000000000a00       0x40 c:/psdk3v2/ps3dev/ppu/bin/../lib/gcc/powerpc64-ps3-elf/4.5.2/../../../../powerpc64-ps3-elf/lib\libc.a(lib_a-mbtowc_r.o)
 .debug_aranges
                0x0000000000000a40       0x30 c:/psdk3v2/ps3dev/ppu/bin/../lib/gcc/powerpc64-ps3-elf/4.5.2/../../../../powerpc64-ps3-elf/lib\libc.a(lib_a-s_fpclassify.o)
 .debug_aranges
                0x0000000000000a70       0x30 c:/psdk3v2/ps3dev/ppu/bin/../lib/gcc/powerpc64-ps3-elf/4.5.2/../../../../powerpc64-ps3-elf/lib\libc.a(lib_a-sccl.o)
 .debug_aranges
                0x0000000000000aa0       0x30 c:/psdk3v2/ps3dev/ppu/bin/../lib/gcc/powerpc64-ps3-elf/4.5.2/../../../../powerpc64-ps3-elf/lib\libc.a(lib_a-sf_nan.o)
 .debug_aranges
                0x0000000000000ad0       0x40 c:/psdk3v2/ps3dev/ppu/bin/../lib/gcc/powerpc64-ps3-elf/4.5.2/../../../../powerpc64-ps3-elf/lib\libc.a(lib_a-sprintf.o)
 .debug_aranges
                0x0000000000000b10       0x30 c:/psdk3v2/ps3dev/ppu/bin/../lib/gcc/powerpc64-ps3-elf/4.5.2/../../../../powerpc64-ps3-elf/lib\libc.a(lib_a-strcmp.o)
 .debug_aranges
                0x0000000000000b40       0x60 c:/psdk3v2/ps3dev/ppu/bin/../lib/gcc/powerpc64-ps3-elf/4.5.2/../../../../powerpc64-ps3-elf/lib\libc.a(lib_a-strtod.o)
 .debug_aranges
                0x0000000000000ba0       0x40 c:/psdk3v2/ps3dev/ppu/bin/../lib/gcc/powerpc64-ps3-elf/4.5.2/../../../../powerpc64-ps3-elf/lib\libc.a(lib_a-strtol.o)
 .debug_aranges
                0x0000000000000be0       0x30 c:/psdk3v2/ps3dev/ppu/bin/../lib/gcc/powerpc64-ps3-elf/4.5.2/../../../../powerpc64-ps3-elf/lib\libc.a(lib_a-strtoll_r.o)
 .debug_aranges
                0x0000000000000c10       0x40 c:/psdk3v2/ps3dev/ppu/bin/../lib/gcc/powerpc64-ps3-elf/4.5.2/../../../../powerpc64-ps3-elf/lib\libc.a(lib_a-strtoul.o)
 .debug_aranges
                0x0000000000000c50       0x30 c:/psdk3v2/ps3dev/ppu/bin/../lib/gcc/powerpc64-ps3-elf/4.5.2/../../../../powerpc64-ps3-elf/lib\libc.a(lib_a-strtoull_r.o)
 .debug_aranges
                0x0000000000000c80       0x60 c:/psdk3v2/ps3dev/ppu/bin/../lib/gcc/powerpc64-ps3-elf/4.5.2/../../../../powerpc64-ps3-elf/lib\libc.a(lib_a-svfiscanf.o)
 .debug_aranges
                0x0000000000000ce0       0x30 c:/psdk3v2/ps3dev/ppu/bin/../lib/gcc/powerpc64-ps3-elf/4.5.2/../../../../powerpc64-ps3-elf/lib\libc.a(lib_a-svfprintf.o)
 .debug_aranges
                0x0000000000000d10       0x50 c:/psdk3v2/ps3dev/ppu/bin/../lib/gcc/powerpc64-ps3-elf/4.5.2/../../../../powerpc64-ps3-elf/lib\libc.a(lib_a-ungetc.o)
 .debug_aranges
                0x0000000000000d60       0x40 c:/psdk3v2/ps3dev/ppu/bin/../lib/gcc/powerpc64-ps3-elf/4.5.2/../../../../powerpc64-ps3-elf/lib\libc.a(lib_a-dtoa.o)
 .debug_aranges
                0x0000000000000da0       0x40 c:/psdk3v2/ps3dev/ppu/bin/../lib/gcc/powerpc64-ps3-elf/4.5.2/../../../../powerpc64-ps3-elf/lib\libc.a(lib_a-fclose.o)
 .debug_aranges
                0x0000000000000de0       0x40 c:/psdk3v2/ps3dev/ppu/bin/../lib/gcc/powerpc64-ps3-elf/4.5.2/../../../../powerpc64-ps3-elf/lib\libc.a(lib_a-fflush.o)
 .debug_aranges
                0x0000000000000e20       0x50 c:/psdk3v2/ps3dev/ppu/bin/../lib/gcc/powerpc64-ps3-elf/4.5.2/../../../../powerpc64-ps3-elf/lib\libc.a(lib_a-gdtoa-gethex.o)
 .debug_aranges
                0x0000000000000e70       0x30 c:/psdk3v2/ps3dev/ppu/bin/../lib/gcc/powerpc64-ps3-elf/4.5.2/../../../../powerpc64-ps3-elf/lib\libc.a(lib_a-gdtoa-hexnan.o)
 .debug_aranges
                0x0000000000000ea0       0x40 c:/psdk3v2/ps3dev/ppu/bin/../lib/gcc/powerpc64-ps3-elf/4.5.2/../../../../powerpc64-ps3-elf/lib\libc.a(lib_a-lock_internal.o)
 .debug_aranges
                0x0000000000000ee0       0x30 c:/psdk3v2/ps3dev/ppu/bin/../lib/gcc/powerpc64-ps3-elf/4.5.2/../../../../powerpc64-ps3-elf/lib\libc.a(lib_a-memchr.o)
 .debug_aranges
                0x0000000000000f10      0x150 c:/psdk3v2/ps3dev/ppu/bin/../lib/gcc/powerpc64-ps3-elf/4.5.2/../../../../powerpc64-ps3-elf/lib\libc.a(lib_a-mprec.o)
 .debug_aranges
                0x0000000000001060       0x30 c:/psdk3v2/ps3dev/ppu/bin/../lib/gcc/powerpc64-ps3-elf/4.5.2/../../../../powerpc64-ps3-elf/lib\libc.a(lib_a-reallocr.o)
 .debug_aranges
                0x0000000000001090       0x30 c:/psdk3v2/ps3dev/ppu/bin/../lib/gcc/powerpc64-ps3-elf/4.5.2/../../../../powerpc64-ps3-elf/lib\libc.a(lib_a-strncmp.o)
 .debug_aranges
                0x00000000000010c0       0x40 c:/psdk3v2/ps3dev/ppu/bin/../lib/gcc/powerpc64-ps3-elf/4.5.2/../../../../powerpc64-ps3-elf/lib\libc.a(lib_a-svfiprintf.o)
 .debug_aranges
                0x0000000000001100       0x30 c:/psdk3v2/ps3dev/ppu/bin/../lib/gcc/powerpc64-ps3-elf/4.5.2/../../../../powerpc64-ps3-elf/lib\libc.a(lib_a-abort.o)
 .debug_aranges
                0x0000000000001130       0x30 c:/psdk3v2/ps3dev/ppu/bin/../lib/gcc/powerpc64-ps3-elf/4.5.2/../../../../powerpc64-ps3-elf/lib\libc.a(lib_a-callocr.o)
 .debug_aranges
                0x0000000000001160       0x30 c:/psdk3v2/ps3dev/ppu/bin/../lib/gcc/powerpc64-ps3-elf/4.5.2/../../../../powerpc64-ps3-elf/lib\libc.a(lib_a-memmove.o)
 .debug_aranges
                0x0000000000001190       0xa0 c:/psdk3v2/ps3dev/ppu/bin/../lib/gcc/powerpc64-ps3-elf/4.5.2/../../../../powerpc64-ps3-elf/lib\libc.a(lib_a-signal.o)
 .debug_aranges
                0x0000000000001230       0x30 c:/psdk3v2/ps3dev/ppu/bin/../lib/gcc/powerpc64-ps3-elf/4.5.2/../../../../powerpc64-ps3-elf/lib\libsysbase.a(close.o)
 .debug_aranges
                0x0000000000001260       0x30 c:/psdk3v2/ps3dev/ppu/bin/../lib/gcc/powerpc64-ps3-elf/4.5.2/../../../../powerpc64-ps3-elf/lib\libsysbase.a(sbrk.o)
 .debug_aranges
                0x0000000000001290       0x30 c:/psdk3v2/ps3dev/ppu/bin/../lib/gcc/powerpc64-ps3-elf/4.5.2/../../../../powerpc64-ps3-elf/lib\libsysbase.a(_exit.o)
 .debug_aranges
                0x00000000000012c0       0x30 c:/psdk3v2/ps3dev/ppu/bin/../lib/gcc/powerpc64-ps3-elf/4.5.2/../../../../powerpc64-ps3-elf/lib\libsysbase.a(lseek.o)
 .debug_aranges
                0x00000000000012f0       0x30 c:/psdk3v2/ps3dev/ppu/bin/../lib/gcc/powerpc64-ps3-elf/4.5.2/../../../../powerpc64-ps3-elf/lib\libsysbase.a(read.o)
 .debug_aranges
                0x0000000000001320       0x30 c:/psdk3v2/ps3dev/ppu/bin/../lib/gcc/powerpc64-ps3-elf/4.5.2/../../../../powerpc64-ps3-elf/lib\libsysbase.a(write.o)
 .debug_aranges
                0x0000000000001350       0x70 c:/psdk3v2/ps3dev/ppu/bin/../lib/gcc/powerpc64-ps3-elf/4.5.2/../../../../powerpc64-ps3-elf/lib\libsysbase.a(lock.o)
 .debug_aranges
                0x00000000000013c0       0x30 c:/psdk3v2/ps3dev/ppu/bin/../lib/gcc/powerpc64-ps3-elf/4.5.2/../../../../powerpc64-ps3-elf/lib\libsysbase.a(getpid.o)
 .debug_aranges
                0x00000000000013f0       0x30 c:/psdk3v2/ps3dev/ppu/bin/../lib/gcc/powerpc64-ps3-elf/4.5.2/../../../../powerpc64-ps3-elf/lib\libsysbase.a(kill.o)

.debug_pubnames
                0x0000000000000000     0x113c
 *(.debug_pubnames)
 .debug_pubnames
                0x0000000000000000       0x1b c:/psdk3v2/ps3dev/ppu/bin/../lib/gcc/powerpc64-ps3-elf/4.5.2/../../../../powerpc64-ps3-elf/lib\libm.a(lib_a-s_sqrt.o)
 .debug_pubnames
                0x000000000000001b       0x1b c:/psdk3v2/ps3dev/ppu/bin/../lib/gcc/powerpc64-ps3-elf/4.5.2/../../../../powerpc64-ps3-elf/lib\libm.a(lib_a-sf_cos.o)
 .debug_pubnames
                0x0000000000000036       0x1b c:/psdk3v2/ps3dev/ppu/bin/../lib/gcc/powerpc64-ps3-elf/4.5.2/../../../../powerpc64-ps3-elf/lib\libm.a(lib_a-sf_sin.o)
 .debug_pubnames
                0x0000000000000051       0x1c c:/psdk3v2/ps3dev/ppu/bin/../lib/gcc/powerpc64-ps3-elf/4.5.2/../../../../powerpc64-ps3-elf/lib\libm.a(lib_a-sf_sine.o)
 .debug_pubnames
                0x000000000000006d       0x1c c:/psdk3v2/ps3dev/ppu/bin/../lib/gcc/powerpc64-ps3-elf/4.5.2/../../../../powerpc64-ps3-elf/lib\libm.a(lib_a-sf_sqrt.o)
 .debug_pubnames
                0x0000000000000089       0x1b c:/psdk3v2/ps3dev/ppu/bin/../lib/gcc/powerpc64-ps3-elf/4.5.2/../../../../powerpc64-ps3-elf/lib\libm.a(lib_a-sf_tan.o)
 .debug_pubnames
                0x00000000000000a4       0x1c c:/psdk3v2/ps3dev/ppu/bin/../lib/gcc/powerpc64-ps3-elf/4.5.2/../../../../powerpc64-ps3-elf/lib\libm.a(lib_a-s_frexp.o)
 .debug_pubnames
                0x00000000000000c0       0x1c c:/psdk3v2/ps3dev/ppu/bin/../lib/gcc/powerpc64-ps3-elf/4.5.2/../../../../powerpc64-ps3-elf/lib\libm.a(lib_a-s_ispos.o)
 .debug_pubnames
                0x00000000000000dc       0x1c c:/psdk3v2/ps3dev/ppu/bin/../lib/gcc/powerpc64-ps3-elf/4.5.2/../../../../powerpc64-ps3-elf/lib\libm.a(lib_a-s_ldexp.o)
 .debug_pubnames
                0x00000000000000f8       0xa0 c:/psdk3v2/ps3dev/ppu/bin/../lib/gcc/powerpc64-ps3-elf/4.5.2/../../../../powerpc64-ps3-elf/lib\libm.a(lib_a-s_mathcnst.o)
 .debug_pubnames
                0x0000000000000198       0x1e c:/psdk3v2/ps3dev/ppu/bin/../lib/gcc/powerpc64-ps3-elf/4.5.2/../../../../powerpc64-ps3-elf/lib\libm.a(lib_a-s_numtest.o)
 .debug_pubnames
                0x00000000000001b6       0x1c c:/psdk3v2/ps3dev/ppu/bin/../lib/gcc/powerpc64-ps3-elf/4.5.2/../../../../powerpc64-ps3-elf/lib\libm.a(lib_a-sf_fabs.o)
 .debug_pubnames
                0x00000000000001d2       0x1d c:/psdk3v2/ps3dev/ppu/bin/../lib/gcc/powerpc64-ps3-elf/4.5.2/../../../../powerpc64-ps3-elf/lib\libm.a(lib_a-sf_frexp.o)
 .debug_pubnames
                0x00000000000001ef       0x1d c:/psdk3v2/ps3dev/ppu/bin/../lib/gcc/powerpc64-ps3-elf/4.5.2/../../../../powerpc64-ps3-elf/lib\libm.a(lib_a-sf_ispos.o)
 .debug_pubnames
                0x000000000000020c       0x1d c:/psdk3v2/ps3dev/ppu/bin/../lib/gcc/powerpc64-ps3-elf/4.5.2/../../../../powerpc64-ps3-elf/lib\libm.a(lib_a-sf_ldexp.o)
 .debug_pubnames
                0x0000000000000229       0x1f c:/psdk3v2/ps3dev/ppu/bin/../lib/gcc/powerpc64-ps3-elf/4.5.2/../../../../powerpc64-ps3-elf/lib\libm.a(lib_a-sf_numtest.o)
 .debug_pubnames
                0x0000000000000248       0x21 c:/psdk3v2/ps3dev/ppu/bin/../lib/gcc/powerpc64-ps3-elf/4.5.2/../../../../powerpc64-ps3-elf/lib\libsysbase.a(syscalls.o)
 .debug_pubnames
                0x0000000000000269       0x27 c:/psdk3v2/ps3dev/ppu/bin/../lib/gcc/powerpc64-ps3-elf/4.5.2/../../../../powerpc64-ps3-elf/lib\libsysbase.a(sleep.o)
 .debug_pubnames
                0x0000000000000290       0x1d c:/psdk3v2/ps3dev/ppu/bin/../lib/gcc/powerpc64-ps3-elf/4.5.2/../../../../powerpc64-ps3-elf/lib\libc.a(lib_a-atexit.o)
 .debug_pubnames
                0x00000000000002ad       0x1e c:/psdk3v2/ps3dev/ppu/bin/../lib/gcc/powerpc64-ps3-elf/4.5.2/../../../../powerpc64-ps3-elf/lib\libc.a(lib_a-errno.o)
 .debug_pubnames
                0x00000000000002cb       0x1b c:/psdk3v2/ps3dev/ppu/bin/../lib/gcc/powerpc64-ps3-elf/4.5.2/../../../../powerpc64-ps3-elf/lib\libc.a(lib_a-exit.o)
 .debug_pubnames
                0x00000000000002e6       0x21 c:/psdk3v2/ps3dev/ppu/bin/../lib/gcc/powerpc64-ps3-elf/4.5.2/../../../../powerpc64-ps3-elf/lib\libc.a(lib_a-getreent.o)
 .debug_pubnames
                0x0000000000000307       0x39 c:/psdk3v2/ps3dev/ppu/bin/../lib/gcc/powerpc64-ps3-elf/4.5.2/../../../../powerpc64-ps3-elf/lib\libc.a(lib_a-impure.o)
 .debug_pubnames
                0x0000000000000340       0x1f c:/psdk3v2/ps3dev/ppu/bin/../lib/gcc/powerpc64-ps3-elf/4.5.2/../../../../powerpc64-ps3-elf/lib\libc.a(lib_a-malign.o)
 .debug_pubnames
                0x000000000000035f       0x22 c:/psdk3v2/ps3dev/ppu/bin/../lib/gcc/powerpc64-ps3-elf/4.5.2/../../../../powerpc64-ps3-elf/lib\libc.a(lib_a-malignr.o)
 .debug_pubnames
                0x0000000000000381       0x26 c:/psdk3v2/ps3dev/ppu/bin/../lib/gcc/powerpc64-ps3-elf/4.5.2/../../../../powerpc64-ps3-elf/lib\libc.a(lib_a-malloc.o)
 .debug_pubnames
                0x00000000000003a7       0xce c:/psdk3v2/ps3dev/ppu/bin/../lib/gcc/powerpc64-ps3-elf/4.5.2/../../../../powerpc64-ps3-elf/lib\libc.a(lib_a-mallocr.o)
 .debug_pubnames
                0x0000000000000475       0x1d c:/psdk3v2/ps3dev/ppu/bin/../lib/gcc/powerpc64-ps3-elf/4.5.2/../../../../powerpc64-ps3-elf/lib\libc.a(lib_a-memcpy.o)
 .debug_pubnames
                0x0000000000000492       0x1d c:/psdk3v2/ps3dev/ppu/bin/../lib/gcc/powerpc64-ps3-elf/4.5.2/../../../../powerpc64-ps3-elf/lib\libc.a(lib_a-memset.o)
 .debug_pubnames
                0x00000000000004af       0x38 c:/psdk3v2/ps3dev/ppu/bin/../lib/gcc/powerpc64-ps3-elf/4.5.2/../../../../powerpc64-ps3-elf/lib\libc.a(lib_a-mlock.o)
 .debug_pubnames
                0x00000000000004e7       0x2b c:/psdk3v2/ps3dev/ppu/bin/../lib/gcc/powerpc64-ps3-elf/4.5.2/../../../../powerpc64-ps3-elf/lib\libc.a(lib_a-sscanf.o)
 .debug_pubnames
                0x0000000000000512       0x53 c:/psdk3v2/ps3dev/ppu/bin/../lib/gcc/powerpc64-ps3-elf/4.5.2/../../../../powerpc64-ps3-elf/lib\libc.a(lib_a-stdio.o)
 .debug_pubnames
                0x0000000000000565       0x21 c:/psdk3v2/ps3dev/ppu/bin/../lib/gcc/powerpc64-ps3-elf/4.5.2/../../../../powerpc64-ps3-elf/lib\libc.a(lib_a-strcasecmp.o)
 .debug_pubnames
                0x0000000000000586       0x1d c:/psdk3v2/ps3dev/ppu/bin/../lib/gcc/powerpc64-ps3-elf/4.5.2/../../../../powerpc64-ps3-elf/lib\libc.a(lib_a-strlen.o)
 .debug_pubnames
                0x00000000000005a3       0x1e c:/psdk3v2/ps3dev/ppu/bin/../lib/gcc/powerpc64-ps3-elf/4.5.2/../../../../powerpc64-ps3-elf/lib\libc.a(lib_a-strncpy.o)
 .debug_pubnames
                0x00000000000005c1       0x24 c:/psdk3v2/ps3dev/ppu/bin/../lib/gcc/powerpc64-ps3-elf/4.5.2/../../../../powerpc64-ps3-elf/lib\libc.a(lib_a-svfscanf.o)
 .debug_pubnames
                0x00000000000005e5       0x3c c:/psdk3v2/ps3dev/ppu/bin/../lib/gcc/powerpc64-ps3-elf/4.5.2/../../../../powerpc64-ps3-elf/lib\libc.a(lib_a-__atexit.o)
 .debug_pubnames
                0x0000000000000621       0x27 c:/psdk3v2/ps3dev/ppu/bin/../lib/gcc/powerpc64-ps3-elf/4.5.2/../../../../powerpc64-ps3-elf/lib\libc.a(lib_a-__call_atexit.o)
 .debug_pubnames
                0x0000000000000648       0x30 c:/psdk3v2/ps3dev/ppu/bin/../lib/gcc/powerpc64-ps3-elf/4.5.2/../../../../powerpc64-ps3-elf/lib\libc.a(lib_a-ctype_.o)
 .debug_pubnames
                0x0000000000000678       0xdb c:/psdk3v2/ps3dev/ppu/bin/../lib/gcc/powerpc64-ps3-elf/4.5.2/../../../../powerpc64-ps3-elf/lib\libc.a(lib_a-findfp.o)
 .debug_pubnames
                0x0000000000000753       0x31 c:/psdk3v2/ps3dev/ppu/bin/../lib/gcc/powerpc64-ps3-elf/4.5.2/../../../../powerpc64-ps3-elf/lib\libc.a(lib_a-freer.o)
 .debug_pubnames
                0x0000000000000784       0x2e c:/psdk3v2/ps3dev/ppu/bin/../lib/gcc/powerpc64-ps3-elf/4.5.2/../../../../powerpc64-ps3-elf/lib\libc.a(lib_a-fwalk.o)
 .debug_pubnames
                0x00000000000007b2       0x1f c:/psdk3v2/ps3dev/ppu/bin/../lib/gcc/powerpc64-ps3-elf/4.5.2/../../../../powerpc64-ps3-elf/lib\libc.a(lib_a-iswspace.o)
 .debug_pubnames
                0x00000000000007d1       0xfa c:/psdk3v2/ps3dev/ppu/bin/../lib/gcc/powerpc64-ps3-elf/4.5.2/../../../../powerpc64-ps3-elf/lib\libc.a(lib_a-locale.o)
 .debug_pubnames
                0x00000000000008cb       0xbb c:/psdk3v2/ps3dev/ppu/bin/../lib/gcc/powerpc64-ps3-elf/4.5.2/../../../../powerpc64-ps3-elf/lib\libc.a(lib_a-lock_recursive.o)
 .debug_pubnames
                0x0000000000000986       0x2d c:/psdk3v2/ps3dev/ppu/bin/../lib/gcc/powerpc64-ps3-elf/4.5.2/../../../../powerpc64-ps3-elf/lib\libc.a(lib_a-mbrtowc.o)
 .debug_pubnames
                0x00000000000009b3       0x40 c:/psdk3v2/ps3dev/ppu/bin/../lib/gcc/powerpc64-ps3-elf/4.5.2/../../../../powerpc64-ps3-elf/lib\libc.a(lib_a-mbtowc_r.o)
 .debug_pubnames
                0x00000000000009f3       0x24 c:/psdk3v2/ps3dev/ppu/bin/../lib/gcc/powerpc64-ps3-elf/4.5.2/../../../../powerpc64-ps3-elf/lib\libc.a(lib_a-s_fpclassify.o)
 .debug_pubnames
                0x0000000000000a17       0x1d c:/psdk3v2/ps3dev/ppu/bin/../lib/gcc/powerpc64-ps3-elf/4.5.2/../../../../powerpc64-ps3-elf/lib\libc.a(lib_a-sccl.o)
 .debug_pubnames
                0x0000000000000a34       0x1b c:/psdk3v2/ps3dev/ppu/bin/../lib/gcc/powerpc64-ps3-elf/4.5.2/../../../../powerpc64-ps3-elf/lib\libc.a(lib_a-sf_nan.o)
 .debug_pubnames
                0x0000000000000a4f       0x2d c:/psdk3v2/ps3dev/ppu/bin/../lib/gcc/powerpc64-ps3-elf/4.5.2/../../../../powerpc64-ps3-elf/lib\libc.a(lib_a-sprintf.o)
 .debug_pubnames
                0x0000000000000a7c       0x1d c:/psdk3v2/ps3dev/ppu/bin/../lib/gcc/powerpc64-ps3-elf/4.5.2/../../../../powerpc64-ps3-elf/lib\libc.a(lib_a-strcmp.o)
 .debug_pubnames
                0x0000000000000a99       0x36 c:/psdk3v2/ps3dev/ppu/bin/../lib/gcc/powerpc64-ps3-elf/4.5.2/../../../../powerpc64-ps3-elf/lib\libc.a(lib_a-strtod.o)
 .debug_pubnames
                0x0000000000000acf       0x2b c:/psdk3v2/ps3dev/ppu/bin/../lib/gcc/powerpc64-ps3-elf/4.5.2/../../../../powerpc64-ps3-elf/lib\libc.a(lib_a-strtol.o)
 .debug_pubnames
                0x0000000000000afa       0x21 c:/psdk3v2/ps3dev/ppu/bin/../lib/gcc/powerpc64-ps3-elf/4.5.2/../../../../powerpc64-ps3-elf/lib\libc.a(lib_a-strtoll_r.o)
 .debug_pubnames
                0x0000000000000b1b       0x2d c:/psdk3v2/ps3dev/ppu/bin/../lib/gcc/powerpc64-ps3-elf/4.5.2/../../../../powerpc64-ps3-elf/lib\libc.a(lib_a-strtoul.o)
 .debug_pubnames
                0x0000000000000b48       0x22 c:/psdk3v2/ps3dev/ppu/bin/../lib/gcc/powerpc64-ps3-elf/4.5.2/../../../../powerpc64-ps3-elf/lib\libc.a(lib_a-strtoull_r.o)
 .debug_pubnames
                0x0000000000000b6a       0x53 c:/psdk3v2/ps3dev/ppu/bin/../lib/gcc/powerpc64-ps3-elf/4.5.2/../../../../powerpc64-ps3-elf/lib\libc.a(lib_a-svfiscanf.o)
 .debug_pubnames
                0x0000000000000bbd       0x23 c:/psdk3v2/ps3dev/ppu/bin/../lib/gcc/powerpc64-ps3-elf/4.5.2/../../../../powerpc64-ps3-elf/lib\libc.a(lib_a-svfprintf.o)
 .debug_pubnames
                0x0000000000000be0       0x39 c:/psdk3v2/ps3dev/ppu/bin/../lib/gcc/powerpc64-ps3-elf/4.5.2/../../../../powerpc64-ps3-elf/lib\libc.a(lib_a-ungetc.o)
 .debug_pubnames
                0x0000000000000c19       0x1e c:/psdk3v2/ps3dev/ppu/bin/../lib/gcc/powerpc64-ps3-elf/4.5.2/../../../../powerpc64-ps3-elf/lib\libc.a(lib_a-dtoa.o)
 .debug_pubnames
                0x0000000000000c37       0x2b c:/psdk3v2/ps3dev/ppu/bin/../lib/gcc/powerpc64-ps3-elf/4.5.2/../../../../powerpc64-ps3-elf/lib\libc.a(lib_a-fclose.o)
 .debug_pubnames
                0x0000000000000c62       0x2b c:/psdk3v2/ps3dev/ppu/bin/../lib/gcc/powerpc64-ps3-elf/4.5.2/../../../../powerpc64-ps3-elf/lib\libc.a(lib_a-fflush.o)
 .debug_pubnames
                0x0000000000000c8d       0x3e c:/psdk3v2/ps3dev/ppu/bin/../lib/gcc/powerpc64-ps3-elf/4.5.2/../../../../powerpc64-ps3-elf/lib\libc.a(lib_a-gdtoa-gethex.o)
 .debug_pubnames
                0x0000000000000ccb       0x1f c:/psdk3v2/ps3dev/ppu/bin/../lib/gcc/powerpc64-ps3-elf/4.5.2/../../../../powerpc64-ps3-elf/lib\libc.a(lib_a-gdtoa-hexnan.o)
 .debug_pubnames
                0x0000000000000cea       0x30 c:/psdk3v2/ps3dev/ppu/bin/../lib/gcc/powerpc64-ps3-elf/4.5.2/../../../../powerpc64-ps3-elf/lib\libc.a(lib_a-lock_internal.o)
 .debug_pubnames
                0x0000000000000d1a       0x1d c:/psdk3v2/ps3dev/ppu/bin/../lib/gcc/powerpc64-ps3-elf/4.5.2/../../../../powerpc64-ps3-elf/lib\libc.a(lib_a-memchr.o)
 .debug_pubnames
                0x0000000000000d37      0x13a c:/psdk3v2/ps3dev/ppu/bin/../lib/gcc/powerpc64-ps3-elf/4.5.2/../../../../powerpc64-ps3-elf/lib\libc.a(lib_a-mprec.o)
 .debug_pubnames
                0x0000000000000e71       0x21 c:/psdk3v2/ps3dev/ppu/bin/../lib/gcc/powerpc64-ps3-elf/4.5.2/../../../../powerpc64-ps3-elf/lib\libc.a(lib_a-reallocr.o)
 .debug_pubnames
                0x0000000000000e92       0x1e c:/psdk3v2/ps3dev/ppu/bin/../lib/gcc/powerpc64-ps3-elf/4.5.2/../../../../powerpc64-ps3-elf/lib\libc.a(lib_a-strncmp.o)
 .debug_pubnames
                0x0000000000000eb0       0x34 c:/psdk3v2/ps3dev/ppu/bin/../lib/gcc/powerpc64-ps3-elf/4.5.2/../../../../powerpc64-ps3-elf/lib\libc.a(lib_a-svfiprintf.o)
 .debug_pubnames
                0x0000000000000ee4       0x1c c:/psdk3v2/ps3dev/ppu/bin/../lib/gcc/powerpc64-ps3-elf/4.5.2/../../../../powerpc64-ps3-elf/lib\libc.a(lib_a-abort.o)
 .debug_pubnames
                0x0000000000000f00       0x20 c:/psdk3v2/ps3dev/ppu/bin/../lib/gcc/powerpc64-ps3-elf/4.5.2/../../../../powerpc64-ps3-elf/lib\libc.a(lib_a-callocr.o)
 .debug_pubnames
                0x0000000000000f20       0x1e c:/psdk3v2/ps3dev/ppu/bin/../lib/gcc/powerpc64-ps3-elf/4.5.2/../../../../powerpc64-ps3-elf/lib\libc.a(lib_a-memmove.o)
 .debug_pubnames
                0x0000000000000f3e       0x86 c:/psdk3v2/ps3dev/ppu/bin/../lib/gcc/powerpc64-ps3-elf/4.5.2/../../../../powerpc64-ps3-elf/lib\libc.a(lib_a-signal.o)
 .debug_pubnames
                0x0000000000000fc4       0x1f c:/psdk3v2/ps3dev/ppu/bin/../lib/gcc/powerpc64-ps3-elf/4.5.2/../../../../powerpc64-ps3-elf/lib\libsysbase.a(close.o)
 .debug_pubnames
                0x0000000000000fe3       0x1e c:/psdk3v2/ps3dev/ppu/bin/../lib/gcc/powerpc64-ps3-elf/4.5.2/../../../../powerpc64-ps3-elf/lib\libsysbase.a(sbrk.o)
 .debug_pubnames
                0x0000000000001001       0x1c c:/psdk3v2/ps3dev/ppu/bin/../lib/gcc/powerpc64-ps3-elf/4.5.2/../../../../powerpc64-ps3-elf/lib\libsysbase.a(_exit.o)
 .debug_pubnames
                0x000000000000101d       0x1f c:/psdk3v2/ps3dev/ppu/bin/../lib/gcc/powerpc64-ps3-elf/4.5.2/../../../../powerpc64-ps3-elf/lib\libsysbase.a(lseek.o)
 .debug_pubnames
                0x000000000000103c       0x1e c:/psdk3v2/ps3dev/ppu/bin/../lib/gcc/powerpc64-ps3-elf/4.5.2/../../../../powerpc64-ps3-elf/lib\libsysbase.a(read.o)
 .debug_pubnames
                0x000000000000105a       0x1f c:/psdk3v2/ps3dev/ppu/bin/../lib/gcc/powerpc64-ps3-elf/4.5.2/../../../../powerpc64-ps3-elf/lib\libsysbase.a(write.o)
 .debug_pubnames
                0x0000000000001079       0x85 c:/psdk3v2/ps3dev/ppu/bin/../lib/gcc/powerpc64-ps3-elf/4.5.2/../../../../powerpc64-ps3-elf/lib\libsysbase.a(lock.o)
 .debug_pubnames
                0x00000000000010fe       0x20 c:/psdk3v2/ps3dev/ppu/bin/../lib/gcc/powerpc64-ps3-elf/4.5.2/../../../../powerpc64-ps3-elf/lib\libsysbase.a(getpid.o)
 .debug_pubnames
                0x000000000000111e       0x1e c:/psdk3v2/ps3dev/ppu/bin/../lib/gcc/powerpc64-ps3-elf/4.5.2/../../../../powerpc64-ps3-elf/lib\libsysbase.a(kill.o)

.debug_info     0x0000000000000000    0x2c4be
 *(.debug_info .gnu.linkonce.wi.*)
 .debug_info    0x0000000000000000      0x181 c:/psdk3v2/ps3dev/ppu/bin/../lib/gcc/powerpc64-ps3-elf/4.5.2/../../../../powerpc64-ps3-elf/lib\libm.a(lib_a-s_sqrt.o)
 .debug_info    0x0000000000000181       0xc4 c:/psdk3v2/ps3dev/ppu/bin/../lib/gcc/powerpc64-ps3-elf/4.5.2/../../../../powerpc64-ps3-elf/lib\libm.a(lib_a-sf_cos.o)
 .debug_info    0x0000000000000245       0xc4 c:/psdk3v2/ps3dev/ppu/bin/../lib/gcc/powerpc64-ps3-elf/4.5.2/../../../../powerpc64-ps3-elf/lib\libm.a(lib_a-sf_sin.o)
 .debug_info    0x0000000000000309      0x1dd c:/psdk3v2/ps3dev/ppu/bin/../lib/gcc/powerpc64-ps3-elf/4.5.2/../../../../powerpc64-ps3-elf/lib\libm.a(lib_a-sf_sine.o)
 .debug_info    0x00000000000004e6      0x172 c:/psdk3v2/ps3dev/ppu/bin/../lib/gcc/powerpc64-ps3-elf/4.5.2/../../../../powerpc64-ps3-elf/lib\libm.a(lib_a-sf_sqrt.o)
 .debug_info    0x0000000000000658      0x1d4 c:/psdk3v2/ps3dev/ppu/bin/../lib/gcc/powerpc64-ps3-elf/4.5.2/../../../../powerpc64-ps3-elf/lib\libm.a(lib_a-sf_tan.o)
 .debug_info    0x000000000000082c      0x1bf c:/psdk3v2/ps3dev/ppu/bin/../lib/gcc/powerpc64-ps3-elf/4.5.2/../../../../powerpc64-ps3-elf/lib\libm.a(lib_a-s_frexp.o)
 .debug_info    0x00000000000009eb      0x148 c:/psdk3v2/ps3dev/ppu/bin/../lib/gcc/powerpc64-ps3-elf/4.5.2/../../../../powerpc64-ps3-elf/lib\libm.a(lib_a-s_ispos.o)
 .debug_info    0x0000000000000b33      0x1c9 c:/psdk3v2/ps3dev/ppu/bin/../lib/gcc/powerpc64-ps3-elf/4.5.2/../../../../powerpc64-ps3-elf/lib\libm.a(lib_a-s_ldexp.o)
 .debug_info    0x0000000000000cfc      0x1bc c:/psdk3v2/ps3dev/ppu/bin/../lib/gcc/powerpc64-ps3-elf/4.5.2/../../../../powerpc64-ps3-elf/lib\libm.a(lib_a-s_mathcnst.o)
 .debug_info    0x0000000000000eb8      0x161 c:/psdk3v2/ps3dev/ppu/bin/../lib/gcc/powerpc64-ps3-elf/4.5.2/../../../../powerpc64-ps3-elf/lib\libm.a(lib_a-s_numtest.o)
 .debug_info    0x0000000000001019       0xc4 c:/psdk3v2/ps3dev/ppu/bin/../lib/gcc/powerpc64-ps3-elf/4.5.2/../../../../powerpc64-ps3-elf/lib\libm.a(lib_a-sf_fabs.o)
 .debug_info    0x00000000000010dd      0x163 c:/psdk3v2/ps3dev/ppu/bin/../lib/gcc/powerpc64-ps3-elf/4.5.2/../../../../powerpc64-ps3-elf/lib\libm.a(lib_a-sf_frexp.o)
 .debug_info    0x0000000000001240       0xd9 c:/psdk3v2/ps3dev/ppu/bin/../lib/gcc/powerpc64-ps3-elf/4.5.2/../../../../powerpc64-ps3-elf/lib\libm.a(lib_a-sf_ispos.o)
 .debug_info    0x0000000000001319      0x18d c:/psdk3v2/ps3dev/ppu/bin/../lib/gcc/powerpc64-ps3-elf/4.5.2/../../../../powerpc64-ps3-elf/lib\libm.a(lib_a-sf_ldexp.o)
 .debug_info    0x00000000000014a6       0xe4 c:/psdk3v2/ps3dev/ppu/bin/../lib/gcc/powerpc64-ps3-elf/4.5.2/../../../../powerpc64-ps3-elf/lib\libm.a(lib_a-sf_numtest.o)
 .debug_info    0x000000000000158a     0x1535 c:/psdk3v2/ps3dev/ppu/bin/../lib/gcc/powerpc64-ps3-elf/4.5.2/../../../../powerpc64-ps3-elf/lib\libsysbase.a(syscalls.o)
 .debug_info    0x0000000000002abf     0x15c1 c:/psdk3v2/ps3dev/ppu/bin/../lib/gcc/powerpc64-ps3-elf/4.5.2/../../../../powerpc64-ps3-elf/lib\libsysbase.a(sleep.o)
 .debug_info    0x0000000000004080       0xd6 c:/psdk3v2/ps3dev/ppu/bin/../lib/gcc/powerpc64-ps3-elf/4.5.2/../../../../powerpc64-ps3-elf/lib\libc.a(lib_a-atexit.o)
 .debug_info    0x0000000000004156       0xa6 c:/psdk3v2/ps3dev/ppu/bin/../lib/gcc/powerpc64-ps3-elf/4.5.2/../../../../powerpc64-ps3-elf/lib\libc.a(lib_a-errno.o)
 .debug_info    0x00000000000041fc      0xa09 c:/psdk3v2/ps3dev/ppu/bin/../lib/gcc/powerpc64-ps3-elf/4.5.2/../../../../powerpc64-ps3-elf/lib\libc.a(lib_a-exit.o)
 .debug_info    0x0000000000004c05      0xa2c c:/psdk3v2/ps3dev/ppu/bin/../lib/gcc/powerpc64-ps3-elf/4.5.2/../../../../powerpc64-ps3-elf/lib\libc.a(lib_a-getreent.o)
 .debug_info    0x0000000000005631      0x9fb c:/psdk3v2/ps3dev/ppu/bin/../lib/gcc/powerpc64-ps3-elf/4.5.2/../../../../powerpc64-ps3-elf/lib\libc.a(lib_a-impure.o)
 .debug_info    0x000000000000602c       0xcc c:/psdk3v2/ps3dev/ppu/bin/../lib/gcc/powerpc64-ps3-elf/4.5.2/../../../../powerpc64-ps3-elf/lib\libc.a(lib_a-malign.o)
 .debug_info    0x00000000000060f8      0xafa c:/psdk3v2/ps3dev/ppu/bin/../lib/gcc/powerpc64-ps3-elf/4.5.2/../../../../powerpc64-ps3-elf/lib\libc.a(lib_a-malignr.o)
 .debug_info    0x0000000000006bf2       0xee c:/psdk3v2/ps3dev/ppu/bin/../lib/gcc/powerpc64-ps3-elf/4.5.2/../../../../powerpc64-ps3-elf/lib\libc.a(lib_a-malloc.o)
 .debug_info    0x0000000000006ce0      0xe20 c:/psdk3v2/ps3dev/ppu/bin/../lib/gcc/powerpc64-ps3-elf/4.5.2/../../../../powerpc64-ps3-elf/lib\libc.a(lib_a-mallocr.o)
 .debug_info    0x0000000000007b00      0x141 c:/psdk3v2/ps3dev/ppu/bin/../lib/gcc/powerpc64-ps3-elf/4.5.2/../../../../powerpc64-ps3-elf/lib\libc.a(lib_a-memcpy.o)
 .debug_info    0x0000000000007c41      0x129 c:/psdk3v2/ps3dev/ppu/bin/../lib/gcc/powerpc64-ps3-elf/4.5.2/../../../../powerpc64-ps3-elf/lib\libc.a(lib_a-memset.o)
 .debug_info    0x0000000000007d6a      0xa2c c:/psdk3v2/ps3dev/ppu/bin/../lib/gcc/powerpc64-ps3-elf/4.5.2/../../../../powerpc64-ps3-elf/lib\libc.a(lib_a-mlock.o)
 .debug_info    0x0000000000008796      0xad1 c:/psdk3v2/ps3dev/ppu/bin/../lib/gcc/powerpc64-ps3-elf/4.5.2/../../../../powerpc64-ps3-elf/lib\libc.a(lib_a-sscanf.o)
 .debug_info    0x0000000000009267      0xbeb c:/psdk3v2/ps3dev/ppu/bin/../lib/gcc/powerpc64-ps3-elf/4.5.2/../../../../powerpc64-ps3-elf/lib\libc.a(lib_a-stdio.o)
 .debug_info    0x0000000000009e52      0x188 c:/psdk3v2/ps3dev/ppu/bin/../lib/gcc/powerpc64-ps3-elf/4.5.2/../../../../powerpc64-ps3-elf/lib\libc.a(lib_a-strcasecmp.o)
 .debug_info    0x0000000000009fda       0xed c:/psdk3v2/ps3dev/ppu/bin/../lib/gcc/powerpc64-ps3-elf/4.5.2/../../../../powerpc64-ps3-elf/lib\libc.a(lib_a-strlen.o)
 .debug_info    0x000000000000a0c7      0x138 c:/psdk3v2/ps3dev/ppu/bin/../lib/gcc/powerpc64-ps3-elf/4.5.2/../../../../powerpc64-ps3-elf/lib\libc.a(lib_a-strncpy.o)
 .debug_info    0x000000000000a1ff      0xed2 c:/psdk3v2/ps3dev/ppu/bin/../lib/gcc/powerpc64-ps3-elf/4.5.2/../../../../powerpc64-ps3-elf/lib\libc.a(lib_a-svfscanf.o)
 .debug_info    0x000000000000b0d1      0xa9b c:/psdk3v2/ps3dev/ppu/bin/../lib/gcc/powerpc64-ps3-elf/4.5.2/../../../../powerpc64-ps3-elf/lib\libc.a(lib_a-__atexit.o)
 .debug_info    0x000000000000bb6c      0xaa9 c:/psdk3v2/ps3dev/ppu/bin/../lib/gcc/powerpc64-ps3-elf/4.5.2/../../../../powerpc64-ps3-elf/lib\libc.a(lib_a-__call_atexit.o)
 .debug_info    0x000000000000c615       0x9b c:/psdk3v2/ps3dev/ppu/bin/../lib/gcc/powerpc64-ps3-elf/4.5.2/../../../../powerpc64-ps3-elf/lib\libc.a(lib_a-ctype_.o)
 .debug_info    0x000000000000c6b0      0xde2 c:/psdk3v2/ps3dev/ppu/bin/../lib/gcc/powerpc64-ps3-elf/4.5.2/../../../../powerpc64-ps3-elf/lib\libc.a(lib_a-findfp.o)
 .debug_info    0x000000000000d492      0xcdd c:/psdk3v2/ps3dev/ppu/bin/../lib/gcc/powerpc64-ps3-elf/4.5.2/../../../../powerpc64-ps3-elf/lib\libc.a(lib_a-freer.o)
 .debug_info    0x000000000000e16f      0xbd9 c:/psdk3v2/ps3dev/ppu/bin/../lib/gcc/powerpc64-ps3-elf/4.5.2/../../../../powerpc64-ps3-elf/lib\libc.a(lib_a-fwalk.o)
 .debug_info    0x000000000000ed48       0xe2 c:/psdk3v2/ps3dev/ppu/bin/../lib/gcc/powerpc64-ps3-elf/4.5.2/../../../../powerpc64-ps3-elf/lib\libc.a(lib_a-iswspace.o)
 .debug_info    0x000000000000ee2a      0xd65 c:/psdk3v2/ps3dev/ppu/bin/../lib/gcc/powerpc64-ps3-elf/4.5.2/../../../../powerpc64-ps3-elf/lib\libc.a(lib_a-locale.o)
 .debug_info    0x000000000000fb8f      0x26e c:/psdk3v2/ps3dev/ppu/bin/../lib/gcc/powerpc64-ps3-elf/4.5.2/../../../../powerpc64-ps3-elf/lib\libc.a(lib_a-lock_recursive.o)
 .debug_info    0x000000000000fdfd      0xb15 c:/psdk3v2/ps3dev/ppu/bin/../lib/gcc/powerpc64-ps3-elf/4.5.2/../../../../powerpc64-ps3-elf/lib\libc.a(lib_a-mbrtowc.o)
 .debug_info    0x0000000000010912      0xb2c c:/psdk3v2/ps3dev/ppu/bin/../lib/gcc/powerpc64-ps3-elf/4.5.2/../../../../powerpc64-ps3-elf/lib\libc.a(lib_a-mbtowc_r.o)
 .debug_info    0x000000000001143e      0x150 c:/psdk3v2/ps3dev/ppu/bin/../lib/gcc/powerpc64-ps3-elf/4.5.2/../../../../powerpc64-ps3-elf/lib\libc.a(lib_a-s_fpclassify.o)
 .debug_info    0x000000000001158e      0x10f c:/psdk3v2/ps3dev/ppu/bin/../lib/gcc/powerpc64-ps3-elf/4.5.2/../../../../powerpc64-ps3-elf/lib\libc.a(lib_a-sccl.o)
 .debug_info    0x000000000001169d       0xdc c:/psdk3v2/ps3dev/ppu/bin/../lib/gcc/powerpc64-ps3-elf/4.5.2/../../../../powerpc64-ps3-elf/lib\libc.a(lib_a-sf_nan.o)
 .debug_info    0x0000000000011779      0xad1 c:/psdk3v2/ps3dev/ppu/bin/../lib/gcc/powerpc64-ps3-elf/4.5.2/../../../../powerpc64-ps3-elf/lib\libc.a(lib_a-sprintf.o)
 .debug_info    0x000000000001224a       0xed c:/psdk3v2/ps3dev/ppu/bin/../lib/gcc/powerpc64-ps3-elf/4.5.2/../../../../powerpc64-ps3-elf/lib\libc.a(lib_a-strcmp.o)
 .debug_info    0x0000000000012337     0x107f c:/psdk3v2/ps3dev/ppu/bin/../lib/gcc/powerpc64-ps3-elf/4.5.2/../../../../powerpc64-ps3-elf/lib\libc.a(lib_a-strtod.o)
 .debug_info    0x00000000000133b6      0xaf7 c:/psdk3v2/ps3dev/ppu/bin/../lib/gcc/powerpc64-ps3-elf/4.5.2/../../../../powerpc64-ps3-elf/lib\libc.a(lib_a-strtol.o)
 .debug_info    0x0000000000013ead      0xaa6 c:/psdk3v2/ps3dev/ppu/bin/../lib/gcc/powerpc64-ps3-elf/4.5.2/../../../../powerpc64-ps3-elf/lib\libc.a(lib_a-strtoll_r.o)
 .debug_info    0x0000000000014953      0xaf7 c:/psdk3v2/ps3dev/ppu/bin/../lib/gcc/powerpc64-ps3-elf/4.5.2/../../../../powerpc64-ps3-elf/lib\libc.a(lib_a-strtoul.o)
 .debug_info    0x000000000001544a      0xaa6 c:/psdk3v2/ps3dev/ppu/bin/../lib/gcc/powerpc64-ps3-elf/4.5.2/../../../../powerpc64-ps3-elf/lib\libc.a(lib_a-strtoull_r.o)
 .debug_info    0x0000000000015ef0      0xf0f c:/psdk3v2/ps3dev/ppu/bin/../lib/gcc/powerpc64-ps3-elf/4.5.2/../../../../powerpc64-ps3-elf/lib\libc.a(lib_a-svfiscanf.o)
 .debug_info    0x0000000000016dff     0x10b9 c:/psdk3v2/ps3dev/ppu/bin/../lib/gcc/powerpc64-ps3-elf/4.5.2/../../../../powerpc64-ps3-elf/lib\libc.a(lib_a-svfprintf.o)
 .debug_info    0x0000000000017eb8      0xabe c:/psdk3v2/ps3dev/ppu/bin/../lib/gcc/powerpc64-ps3-elf/4.5.2/../../../../powerpc64-ps3-elf/lib\libc.a(lib_a-ungetc.o)
 .debug_info    0x0000000000018976      0xe8c c:/psdk3v2/ps3dev/ppu/bin/../lib/gcc/powerpc64-ps3-elf/4.5.2/../../../../powerpc64-ps3-elf/lib\libc.a(lib_a-dtoa.o)
 .debug_info    0x0000000000019802      0xa49 c:/psdk3v2/ps3dev/ppu/bin/../lib/gcc/powerpc64-ps3-elf/4.5.2/../../../../powerpc64-ps3-elf/lib\libc.a(lib_a-fclose.o)
 .debug_info    0x000000000001a24b      0xac1 c:/psdk3v2/ps3dev/ppu/bin/../lib/gcc/powerpc64-ps3-elf/4.5.2/../../../../powerpc64-ps3-elf/lib\libc.a(lib_a-fflush.o)
 .debug_info    0x000000000001ad0c      0xf56 c:/psdk3v2/ps3dev/ppu/bin/../lib/gcc/powerpc64-ps3-elf/4.5.2/../../../../powerpc64-ps3-elf/lib\libc.a(lib_a-gdtoa-gethex.o)
 .debug_info    0x000000000001bc62      0x348 c:/psdk3v2/ps3dev/ppu/bin/../lib/gcc/powerpc64-ps3-elf/4.5.2/../../../../powerpc64-ps3-elf/lib\libc.a(lib_a-gdtoa-hexnan.o)
 .debug_info    0x000000000001bfaa      0x1c7 c:/psdk3v2/ps3dev/ppu/bin/../lib/gcc/powerpc64-ps3-elf/4.5.2/../../../../powerpc64-ps3-elf/lib\libc.a(lib_a-lock_internal.o)
 .debug_info    0x000000000001c171      0x139 c:/psdk3v2/ps3dev/ppu/bin/../lib/gcc/powerpc64-ps3-elf/4.5.2/../../../../powerpc64-ps3-elf/lib\libc.a(lib_a-memchr.o)
 .debug_info    0x000000000001c2aa     0x161d c:/psdk3v2/ps3dev/ppu/bin/../lib/gcc/powerpc64-ps3-elf/4.5.2/../../../../powerpc64-ps3-elf/lib\libc.a(lib_a-mprec.o)
 .debug_info    0x000000000001d8c7      0xcb5 c:/psdk3v2/ps3dev/ppu/bin/../lib/gcc/powerpc64-ps3-elf/4.5.2/../../../../powerpc64-ps3-elf/lib\libc.a(lib_a-reallocr.o)
 .debug_info    0x000000000001e57c      0x105 c:/psdk3v2/ps3dev/ppu/bin/../lib/gcc/powerpc64-ps3-elf/4.5.2/../../../../powerpc64-ps3-elf/lib\libc.a(lib_a-strncmp.o)
 .debug_info    0x000000000001e681      0xe4a c:/psdk3v2/ps3dev/ppu/bin/../lib/gcc/powerpc64-ps3-elf/4.5.2/../../../../powerpc64-ps3-elf/lib\libc.a(lib_a-svfiprintf.o)
 .debug_info    0x000000000001f4cb       0x9c c:/psdk3v2/ps3dev/ppu/bin/../lib/gcc/powerpc64-ps3-elf/4.5.2/../../../../powerpc64-ps3-elf/lib\libc.a(lib_a-abort.o)
 .debug_info    0x000000000001f567      0xaeb c:/psdk3v2/ps3dev/ppu/bin/../lib/gcc/powerpc64-ps3-elf/4.5.2/../../../../powerpc64-ps3-elf/lib\libc.a(lib_a-callocr.o)
 .debug_info    0x0000000000020052      0x141 c:/psdk3v2/ps3dev/ppu/bin/../lib/gcc/powerpc64-ps3-elf/4.5.2/../../../../powerpc64-ps3-elf/lib\libc.a(lib_a-memmove.o)
 .debug_info    0x0000000000020193      0xbd3 c:/psdk3v2/ps3dev/ppu/bin/../lib/gcc/powerpc64-ps3-elf/4.5.2/../../../../powerpc64-ps3-elf/lib\libc.a(lib_a-signal.o)
 .debug_info    0x0000000000020d66     0x1580 c:/psdk3v2/ps3dev/ppu/bin/../lib/gcc/powerpc64-ps3-elf/4.5.2/../../../../powerpc64-ps3-elf/lib\libsysbase.a(close.o)
 .debug_info    0x00000000000222e6     0x1581 c:/psdk3v2/ps3dev/ppu/bin/../lib/gcc/powerpc64-ps3-elf/4.5.2/../../../../powerpc64-ps3-elf/lib\libsysbase.a(sbrk.o)
 .debug_info    0x0000000000023867     0x156d c:/psdk3v2/ps3dev/ppu/bin/../lib/gcc/powerpc64-ps3-elf/4.5.2/../../../../powerpc64-ps3-elf/lib\libsysbase.a(_exit.o)
 .debug_info    0x0000000000024dd4     0x159c c:/psdk3v2/ps3dev/ppu/bin/../lib/gcc/powerpc64-ps3-elf/4.5.2/../../../../powerpc64-ps3-elf/lib\libsysbase.a(lseek.o)
 .debug_info    0x0000000000026370     0x159c c:/psdk3v2/ps3dev/ppu/bin/../lib/gcc/powerpc64-ps3-elf/4.5.2/../../../../powerpc64-ps3-elf/lib\libsysbase.a(read.o)
 .debug_info    0x000000000002790c     0x159c c:/psdk3v2/ps3dev/ppu/bin/../lib/gcc/powerpc64-ps3-elf/4.5.2/../../../../powerpc64-ps3-elf/lib\libsysbase.a(write.o)
 .debug_info    0x0000000000028ea8     0x16a5 c:/psdk3v2/ps3dev/ppu/bin/../lib/gcc/powerpc64-ps3-elf/4.5.2/../../../../powerpc64-ps3-elf/lib\libsysbase.a(lock.o)
 .debug_info    0x000000000002a54d     0x1572 c:/psdk3v2/ps3dev/ppu/bin/../lib/gcc/powerpc64-ps3-elf/4.5.2/../../../../powerpc64-ps3-elf/lib\libsysbase.a(getpid.o)
 .debug_info    0x000000000002babf      0x9ff c:/psdk3v2/ps3dev/ppu/bin/../lib/gcc/powerpc64-ps3-elf/4.5.2/../../../../powerpc64-ps3-elf/lib\libsysbase.a(kill.o)

.debug_abbrev   0x0000000000000000     0x7287
 *(.debug_abbrev)
 .debug_abbrev  0x0000000000000000       0xd1 c:/psdk3v2/ps3dev/ppu/bin/../lib/gcc/powerpc64-ps3-elf/4.5.2/../../../../powerpc64-ps3-elf/lib\libm.a(lib_a-s_sqrt.o)
 .debug_abbrev  0x00000000000000d1       0x52 c:/psdk3v2/ps3dev/ppu/bin/../lib/gcc/powerpc64-ps3-elf/4.5.2/../../../../powerpc64-ps3-elf/lib\libm.a(lib_a-sf_cos.o)
 .debug_abbrev  0x0000000000000123       0x52 c:/psdk3v2/ps3dev/ppu/bin/../lib/gcc/powerpc64-ps3-elf/4.5.2/../../../../powerpc64-ps3-elf/lib\libm.a(lib_a-sf_sin.o)
 .debug_abbrev  0x0000000000000175       0xd2 c:/psdk3v2/ps3dev/ppu/bin/../lib/gcc/powerpc64-ps3-elf/4.5.2/../../../../powerpc64-ps3-elf/lib\libm.a(lib_a-sf_sine.o)
 .debug_abbrev  0x0000000000000247       0xbf c:/psdk3v2/ps3dev/ppu/bin/../lib/gcc/powerpc64-ps3-elf/4.5.2/../../../../powerpc64-ps3-elf/lib\libm.a(lib_a-sf_sqrt.o)
 .debug_abbrev  0x0000000000000306       0xd2 c:/psdk3v2/ps3dev/ppu/bin/../lib/gcc/powerpc64-ps3-elf/4.5.2/../../../../powerpc64-ps3-elf/lib\libm.a(lib_a-sf_tan.o)
 .debug_abbrev  0x00000000000003d8       0xec c:/psdk3v2/ps3dev/ppu/bin/../lib/gcc/powerpc64-ps3-elf/4.5.2/../../../../powerpc64-ps3-elf/lib\libm.a(lib_a-s_frexp.o)
 .debug_abbrev  0x00000000000004c4       0xc5 c:/psdk3v2/ps3dev/ppu/bin/../lib/gcc/powerpc64-ps3-elf/4.5.2/../../../../powerpc64-ps3-elf/lib\libm.a(lib_a-s_ispos.o)
 .debug_abbrev  0x0000000000000589      0x109 c:/psdk3v2/ps3dev/ppu/bin/../lib/gcc/powerpc64-ps3-elf/4.5.2/../../../../powerpc64-ps3-elf/lib\libm.a(lib_a-s_ldexp.o)
 .debug_abbrev  0x0000000000000692       0x6e c:/psdk3v2/ps3dev/ppu/bin/../lib/gcc/powerpc64-ps3-elf/4.5.2/../../../../powerpc64-ps3-elf/lib\libm.a(lib_a-s_mathcnst.o)
 .debug_abbrev  0x0000000000000700       0xc7 c:/psdk3v2/ps3dev/ppu/bin/../lib/gcc/powerpc64-ps3-elf/4.5.2/../../../../powerpc64-ps3-elf/lib\libm.a(lib_a-s_numtest.o)
 .debug_abbrev  0x00000000000007c7       0x52 c:/psdk3v2/ps3dev/ppu/bin/../lib/gcc/powerpc64-ps3-elf/4.5.2/../../../../powerpc64-ps3-elf/lib\libm.a(lib_a-sf_fabs.o)
 .debug_abbrev  0x0000000000000819       0xc3 c:/psdk3v2/ps3dev/ppu/bin/../lib/gcc/powerpc64-ps3-elf/4.5.2/../../../../powerpc64-ps3-elf/lib\libm.a(lib_a-sf_frexp.o)
 .debug_abbrev  0x00000000000008dc       0x6e c:/psdk3v2/ps3dev/ppu/bin/../lib/gcc/powerpc64-ps3-elf/4.5.2/../../../../powerpc64-ps3-elf/lib\libm.a(lib_a-sf_ispos.o)
 .debug_abbrev  0x000000000000094a       0xdf c:/psdk3v2/ps3dev/ppu/bin/../lib/gcc/powerpc64-ps3-elf/4.5.2/../../../../powerpc64-ps3-elf/lib\libm.a(lib_a-sf_ldexp.o)
 .debug_abbrev  0x0000000000000a29       0x7b c:/psdk3v2/ps3dev/ppu/bin/../lib/gcc/powerpc64-ps3-elf/4.5.2/../../../../powerpc64-ps3-elf/lib\libm.a(lib_a-sf_numtest.o)
 .debug_abbrev  0x0000000000000aa4      0x1a0 c:/psdk3v2/ps3dev/ppu/bin/../lib/gcc/powerpc64-ps3-elf/4.5.2/../../../../powerpc64-ps3-elf/lib\libsysbase.a(syscalls.o)
 .debug_abbrev  0x0000000000000c44      0x1e8 c:/psdk3v2/ps3dev/ppu/bin/../lib/gcc/powerpc64-ps3-elf/4.5.2/../../../../powerpc64-ps3-elf/lib\libsysbase.a(sleep.o)
 .debug_abbrev  0x0000000000000e2c       0x7a c:/psdk3v2/ps3dev/ppu/bin/../lib/gcc/powerpc64-ps3-elf/4.5.2/../../../../powerpc64-ps3-elf/lib\libc.a(lib_a-atexit.o)
 .debug_abbrev  0x0000000000000ea6       0x4c c:/psdk3v2/ps3dev/ppu/bin/../lib/gcc/powerpc64-ps3-elf/4.5.2/../../../../powerpc64-ps3-elf/lib\libc.a(lib_a-errno.o)
 .debug_abbrev  0x0000000000000ef2      0x18c c:/psdk3v2/ps3dev/ppu/bin/../lib/gcc/powerpc64-ps3-elf/4.5.2/../../../../powerpc64-ps3-elf/lib\libc.a(lib_a-exit.o)
 .debug_abbrev  0x000000000000107e      0x1a9 c:/psdk3v2/ps3dev/ppu/bin/../lib/gcc/powerpc64-ps3-elf/4.5.2/../../../../powerpc64-ps3-elf/lib\libc.a(lib_a-getreent.o)
 .debug_abbrev  0x0000000000001227      0x173 c:/psdk3v2/ps3dev/ppu/bin/../lib/gcc/powerpc64-ps3-elf/4.5.2/../../../../powerpc64-ps3-elf/lib\libc.a(lib_a-impure.o)
 .debug_abbrev  0x000000000000139a       0x66 c:/psdk3v2/ps3dev/ppu/bin/../lib/gcc/powerpc64-ps3-elf/4.5.2/../../../../powerpc64-ps3-elf/lib\libc.a(lib_a-malign.o)
 .debug_abbrev  0x0000000000001400      0x1a8 c:/psdk3v2/ps3dev/ppu/bin/../lib/gcc/powerpc64-ps3-elf/4.5.2/../../../../powerpc64-ps3-elf/lib\libc.a(lib_a-malignr.o)
 .debug_abbrev  0x00000000000015a8       0x7d c:/psdk3v2/ps3dev/ppu/bin/../lib/gcc/powerpc64-ps3-elf/4.5.2/../../../../powerpc64-ps3-elf/lib\libc.a(lib_a-malloc.o)
 .debug_abbrev  0x0000000000001625      0x242 c:/psdk3v2/ps3dev/ppu/bin/../lib/gcc/powerpc64-ps3-elf/4.5.2/../../../../powerpc64-ps3-elf/lib\libc.a(lib_a-mallocr.o)
 .debug_abbrev  0x0000000000001867       0xaa c:/psdk3v2/ps3dev/ppu/bin/../lib/gcc/powerpc64-ps3-elf/4.5.2/../../../../powerpc64-ps3-elf/lib\libc.a(lib_a-memcpy.o)
 .debug_abbrev  0x0000000000001911       0x8f c:/psdk3v2/ps3dev/ppu/bin/../lib/gcc/powerpc64-ps3-elf/4.5.2/../../../../powerpc64-ps3-elf/lib\libc.a(lib_a-memset.o)
 .debug_abbrev  0x00000000000019a0      0x188 c:/psdk3v2/ps3dev/ppu/bin/../lib/gcc/powerpc64-ps3-elf/4.5.2/../../../../powerpc64-ps3-elf/lib\libc.a(lib_a-mlock.o)
 .debug_abbrev  0x0000000000001b28      0x1c0 c:/psdk3v2/ps3dev/ppu/bin/../lib/gcc/powerpc64-ps3-elf/4.5.2/../../../../powerpc64-ps3-elf/lib\libc.a(lib_a-sscanf.o)
 .debug_abbrev  0x0000000000001ce8      0x205 c:/psdk3v2/ps3dev/ppu/bin/../lib/gcc/powerpc64-ps3-elf/4.5.2/../../../../powerpc64-ps3-elf/lib\libc.a(lib_a-stdio.o)
 .debug_abbrev  0x0000000000001eed       0xa5 c:/psdk3v2/ps3dev/ppu/bin/../lib/gcc/powerpc64-ps3-elf/4.5.2/../../../../powerpc64-ps3-elf/lib\libc.a(lib_a-strcasecmp.o)
 .debug_abbrev  0x0000000000001f92       0x80 c:/psdk3v2/ps3dev/ppu/bin/../lib/gcc/powerpc64-ps3-elf/4.5.2/../../../../powerpc64-ps3-elf/lib\libc.a(lib_a-strlen.o)
 .debug_abbrev  0x0000000000002012       0x9e c:/psdk3v2/ps3dev/ppu/bin/../lib/gcc/powerpc64-ps3-elf/4.5.2/../../../../powerpc64-ps3-elf/lib\libc.a(lib_a-strncpy.o)
 .debug_abbrev  0x00000000000020b0      0x254 c:/psdk3v2/ps3dev/ppu/bin/../lib/gcc/powerpc64-ps3-elf/4.5.2/../../../../powerpc64-ps3-elf/lib\libc.a(lib_a-svfscanf.o)
 .debug_abbrev  0x0000000000002304      0x1f5 c:/psdk3v2/ps3dev/ppu/bin/../lib/gcc/powerpc64-ps3-elf/4.5.2/../../../../powerpc64-ps3-elf/lib\libc.a(lib_a-__atexit.o)
 .debug_abbrev  0x00000000000024f9      0x1eb c:/psdk3v2/ps3dev/ppu/bin/../lib/gcc/powerpc64-ps3-elf/4.5.2/../../../../powerpc64-ps3-elf/lib\libc.a(lib_a-__call_atexit.o)
 .debug_abbrev  0x00000000000026e4       0x63 c:/psdk3v2/ps3dev/ppu/bin/../lib/gcc/powerpc64-ps3-elf/4.5.2/../../../../powerpc64-ps3-elf/lib\libc.a(lib_a-ctype_.o)
 .debug_abbrev  0x0000000000002747      0x2b9 c:/psdk3v2/ps3dev/ppu/bin/../lib/gcc/powerpc64-ps3-elf/4.5.2/../../../../powerpc64-ps3-elf/lib\libc.a(lib_a-findfp.o)
 .debug_abbrev  0x0000000000002a00      0x1f9 c:/psdk3v2/ps3dev/ppu/bin/../lib/gcc/powerpc64-ps3-elf/4.5.2/../../../../powerpc64-ps3-elf/lib\libc.a(lib_a-freer.o)
 .debug_abbrev  0x0000000000002bf9      0x214 c:/psdk3v2/ps3dev/ppu/bin/../lib/gcc/powerpc64-ps3-elf/4.5.2/../../../../powerpc64-ps3-elf/lib\libc.a(lib_a-fwalk.o)
 .debug_abbrev  0x0000000000002e0d       0x82 c:/psdk3v2/ps3dev/ppu/bin/../lib/gcc/powerpc64-ps3-elf/4.5.2/../../../../powerpc64-ps3-elf/lib\libc.a(lib_a-iswspace.o)
 .debug_abbrev  0x0000000000002e8f      0x25a c:/psdk3v2/ps3dev/ppu/bin/../lib/gcc/powerpc64-ps3-elf/4.5.2/../../../../powerpc64-ps3-elf/lib\libc.a(lib_a-locale.o)
 .debug_abbrev  0x00000000000030e9       0xb0 c:/psdk3v2/ps3dev/ppu/bin/../lib/gcc/powerpc64-ps3-elf/4.5.2/../../../../powerpc64-ps3-elf/lib\libc.a(lib_a-lock_recursive.o)
 .debug_abbrev  0x0000000000003199      0x19d c:/psdk3v2/ps3dev/ppu/bin/../lib/gcc/powerpc64-ps3-elf/4.5.2/../../../../powerpc64-ps3-elf/lib\libc.a(lib_a-mbrtowc.o)
 .debug_abbrev  0x0000000000003336      0x203 c:/psdk3v2/ps3dev/ppu/bin/../lib/gcc/powerpc64-ps3-elf/4.5.2/../../../../powerpc64-ps3-elf/lib\libc.a(lib_a-mbtowc_r.o)
 .debug_abbrev  0x0000000000003539       0xc7 c:/psdk3v2/ps3dev/ppu/bin/../lib/gcc/powerpc64-ps3-elf/4.5.2/../../../../powerpc64-ps3-elf/lib\libc.a(lib_a-s_fpclassify.o)
 .debug_abbrev  0x0000000000003600       0x86 c:/psdk3v2/ps3dev/ppu/bin/../lib/gcc/powerpc64-ps3-elf/4.5.2/../../../../powerpc64-ps3-elf/lib\libc.a(lib_a-sccl.o)
 .debug_abbrev  0x0000000000003686       0x71 c:/psdk3v2/ps3dev/ppu/bin/../lib/gcc/powerpc64-ps3-elf/4.5.2/../../../../powerpc64-ps3-elf/lib\libc.a(lib_a-sf_nan.o)
 .debug_abbrev  0x00000000000036f7      0x1c0 c:/psdk3v2/ps3dev/ppu/bin/../lib/gcc/powerpc64-ps3-elf/4.5.2/../../../../powerpc64-ps3-elf/lib\libc.a(lib_a-sprintf.o)
 .debug_abbrev  0x00000000000038b7       0x73 c:/psdk3v2/ps3dev/ppu/bin/../lib/gcc/powerpc64-ps3-elf/4.5.2/../../../../powerpc64-ps3-elf/lib\libc.a(lib_a-strcmp.o)
 .debug_abbrev  0x000000000000392a      0x2fe c:/psdk3v2/ps3dev/ppu/bin/../lib/gcc/powerpc64-ps3-elf/4.5.2/../../../../powerpc64-ps3-elf/lib\libc.a(lib_a-strtod.o)
 .debug_abbrev  0x0000000000003c28      0x1e3 c:/psdk3v2/ps3dev/ppu/bin/../lib/gcc/powerpc64-ps3-elf/4.5.2/../../../../powerpc64-ps3-elf/lib\libc.a(lib_a-strtol.o)
 .debug_abbrev  0x0000000000003e0b      0x1bb c:/psdk3v2/ps3dev/ppu/bin/../lib/gcc/powerpc64-ps3-elf/4.5.2/../../../../powerpc64-ps3-elf/lib\libc.a(lib_a-strtoll_r.o)
 .debug_abbrev  0x0000000000003fc6      0x1e3 c:/psdk3v2/ps3dev/ppu/bin/../lib/gcc/powerpc64-ps3-elf/4.5.2/../../../../powerpc64-ps3-elf/lib\libc.a(lib_a-strtoul.o)
 .debug_abbrev  0x00000000000041a9      0x1bb c:/psdk3v2/ps3dev/ppu/bin/../lib/gcc/powerpc64-ps3-elf/4.5.2/../../../../powerpc64-ps3-elf/lib\libc.a(lib_a-strtoull_r.o)
 .debug_abbrev  0x0000000000004364      0x24b c:/psdk3v2/ps3dev/ppu/bin/../lib/gcc/powerpc64-ps3-elf/4.5.2/../../../../powerpc64-ps3-elf/lib\libc.a(lib_a-svfiscanf.o)
 .debug_abbrev  0x00000000000045af      0x304 c:/psdk3v2/ps3dev/ppu/bin/../lib/gcc/powerpc64-ps3-elf/4.5.2/../../../../powerpc64-ps3-elf/lib\libc.a(lib_a-svfprintf.o)
 .debug_abbrev  0x00000000000048b3      0x1cb c:/psdk3v2/ps3dev/ppu/bin/../lib/gcc/powerpc64-ps3-elf/4.5.2/../../../../powerpc64-ps3-elf/lib\libc.a(lib_a-ungetc.o)
 .debug_abbrev  0x0000000000004a7e      0x21a c:/psdk3v2/ps3dev/ppu/bin/../lib/gcc/powerpc64-ps3-elf/4.5.2/../../../../powerpc64-ps3-elf/lib\libc.a(lib_a-dtoa.o)
 .debug_abbrev  0x0000000000004c98      0x1b2 c:/psdk3v2/ps3dev/ppu/bin/../lib/gcc/powerpc64-ps3-elf/4.5.2/../../../../powerpc64-ps3-elf/lib\libc.a(lib_a-fclose.o)
 .debug_abbrev  0x0000000000004e4a      0x1cc c:/psdk3v2/ps3dev/ppu/bin/../lib/gcc/powerpc64-ps3-elf/4.5.2/../../../../powerpc64-ps3-elf/lib\libc.a(lib_a-fflush.o)
 .debug_abbrev  0x0000000000005016      0x32b c:/psdk3v2/ps3dev/ppu/bin/../lib/gcc/powerpc64-ps3-elf/4.5.2/../../../../powerpc64-ps3-elf/lib\libc.a(lib_a-gdtoa-gethex.o)
 .debug_abbrev  0x0000000000005341      0x15e c:/psdk3v2/ps3dev/ppu/bin/../lib/gcc/powerpc64-ps3-elf/4.5.2/../../../../powerpc64-ps3-elf/lib\libc.a(lib_a-gdtoa-hexnan.o)
 .debug_abbrev  0x000000000000549f       0xc1 c:/psdk3v2/ps3dev/ppu/bin/../lib/gcc/powerpc64-ps3-elf/4.5.2/../../../../powerpc64-ps3-elf/lib\libc.a(lib_a-lock_internal.o)
 .debug_abbrev  0x0000000000005560       0xb9 c:/psdk3v2/ps3dev/ppu/bin/../lib/gcc/powerpc64-ps3-elf/4.5.2/../../../../powerpc64-ps3-elf/lib\libc.a(lib_a-memchr.o)
 .debug_abbrev  0x0000000000005619      0x315 c:/psdk3v2/ps3dev/ppu/bin/../lib/gcc/powerpc64-ps3-elf/4.5.2/../../../../powerpc64-ps3-elf/lib\libc.a(lib_a-mprec.o)
 .debug_abbrev  0x000000000000592e      0x1ea c:/psdk3v2/ps3dev/ppu/bin/../lib/gcc/powerpc64-ps3-elf/4.5.2/../../../../powerpc64-ps3-elf/lib\libc.a(lib_a-reallocr.o)
 .debug_abbrev  0x0000000000005b18       0x80 c:/psdk3v2/ps3dev/ppu/bin/../lib/gcc/powerpc64-ps3-elf/4.5.2/../../../../powerpc64-ps3-elf/lib\libc.a(lib_a-strncmp.o)
 .debug_abbrev  0x0000000000005b98      0x26f c:/psdk3v2/ps3dev/ppu/bin/../lib/gcc/powerpc64-ps3-elf/4.5.2/../../../../powerpc64-ps3-elf/lib\libc.a(lib_a-svfiprintf.o)
 .debug_abbrev  0x0000000000005e07       0x41 c:/psdk3v2/ps3dev/ppu/bin/../lib/gcc/powerpc64-ps3-elf/4.5.2/../../../../powerpc64-ps3-elf/lib\libc.a(lib_a-abort.o)
 .debug_abbrev  0x0000000000005e48      0x1c9 c:/psdk3v2/ps3dev/ppu/bin/../lib/gcc/powerpc64-ps3-elf/4.5.2/../../../../powerpc64-ps3-elf/lib\libc.a(lib_a-callocr.o)
 .debug_abbrev  0x0000000000006011       0xaa c:/psdk3v2/ps3dev/ppu/bin/../lib/gcc/powerpc64-ps3-elf/4.5.2/../../../../powerpc64-ps3-elf/lib\libc.a(lib_a-memmove.o)
 .debug_abbrev  0x00000000000060bb      0x1d6 c:/psdk3v2/ps3dev/ppu/bin/../lib/gcc/powerpc64-ps3-elf/4.5.2/../../../../powerpc64-ps3-elf/lib\libc.a(lib_a-signal.o)
 .debug_abbrev  0x0000000000006291      0x1ca c:/psdk3v2/ps3dev/ppu/bin/../lib/gcc/powerpc64-ps3-elf/4.5.2/../../../../powerpc64-ps3-elf/lib\libsysbase.a(close.o)
 .debug_abbrev  0x000000000000645b      0x1d9 c:/psdk3v2/ps3dev/ppu/bin/../lib/gcc/powerpc64-ps3-elf/4.5.2/../../../../powerpc64-ps3-elf/lib\libsysbase.a(sbrk.o)
 .debug_abbrev  0x0000000000006634      0x1c8 c:/psdk3v2/ps3dev/ppu/bin/../lib/gcc/powerpc64-ps3-elf/4.5.2/../../../../powerpc64-ps3-elf/lib\libsysbase.a(_exit.o)
 .debug_abbrev  0x00000000000067fc      0x1ca c:/psdk3v2/ps3dev/ppu/bin/../lib/gcc/powerpc64-ps3-elf/4.5.2/../../../../powerpc64-ps3-elf/lib\libsysbase.a(lseek.o)
 .debug_abbrev  0x00000000000069c6      0x1ca c:/psdk3v2/ps3dev/ppu/bin/../lib/gcc/powerpc64-ps3-elf/4.5.2/../../../../powerpc64-ps3-elf/lib\libsysbase.a(read.o)
 .debug_abbrev  0x0000000000006b90      0x1ca c:/psdk3v2/ps3dev/ppu/bin/../lib/gcc/powerpc64-ps3-elf/4.5.2/../../../../powerpc64-ps3-elf/lib\libsysbase.a(write.o)
 .debug_abbrev  0x0000000000006d5a      0x1d9 c:/psdk3v2/ps3dev/ppu/bin/../lib/gcc/powerpc64-ps3-elf/4.5.2/../../../../powerpc64-ps3-elf/lib\libsysbase.a(lock.o)
 .debug_abbrev  0x0000000000006f33      0x1ca c:/psdk3v2/ps3dev/ppu/bin/../lib/gcc/powerpc64-ps3-elf/4.5.2/../../../../powerpc64-ps3-elf/lib\libsysbase.a(getpid.o)
 .debug_abbrev  0x00000000000070fd      0x18a c:/psdk3v2/ps3dev/ppu/bin/../lib/gcc/powerpc64-ps3-elf/4.5.2/../../../../powerpc64-ps3-elf/lib\libsysbase.a(kill.o)

.debug_line     0x0000000000000000     0xf044
 *(.debug_line)
 .debug_line    0x0000000000000000      0x12e c:/psdk3v2/ps3dev/ppu/bin/../lib/gcc/powerpc64-ps3-elf/4.5.2/../../../../powerpc64-ps3-elf/lib\libm.a(lib_a-s_sqrt.o)
 .debug_line    0x000000000000012e       0xcc c:/psdk3v2/ps3dev/ppu/bin/../lib/gcc/powerpc64-ps3-elf/4.5.2/../../../../powerpc64-ps3-elf/lib\libm.a(lib_a-sf_cos.o)
 .debug_line    0x00000000000001fa       0xcc c:/psdk3v2/ps3dev/ppu/bin/../lib/gcc/powerpc64-ps3-elf/4.5.2/../../../../powerpc64-ps3-elf/lib\libm.a(lib_a-sf_sin.o)
 .debug_line    0x00000000000002c6       0xc4 c:/psdk3v2/ps3dev/ppu/bin/../lib/gcc/powerpc64-ps3-elf/4.5.2/../../../../powerpc64-ps3-elf/lib\libm.a(lib_a-sf_sine.o)
 .debug_line    0x000000000000038a      0x12e c:/psdk3v2/ps3dev/ppu/bin/../lib/gcc/powerpc64-ps3-elf/4.5.2/../../../../powerpc64-ps3-elf/lib\libm.a(lib_a-sf_sqrt.o)
 .debug_line    0x00000000000004b8      0x14c c:/psdk3v2/ps3dev/ppu/bin/../lib/gcc/powerpc64-ps3-elf/4.5.2/../../../../powerpc64-ps3-elf/lib\libm.a(lib_a-sf_tan.o)
 .debug_line    0x0000000000000604      0x19c c:/psdk3v2/ps3dev/ppu/bin/../lib/gcc/powerpc64-ps3-elf/4.5.2/../../../../powerpc64-ps3-elf/lib\libm.a(lib_a-s_frexp.o)
 .debug_line    0x00000000000007a0      0x116 c:/psdk3v2/ps3dev/ppu/bin/../lib/gcc/powerpc64-ps3-elf/4.5.2/../../../../powerpc64-ps3-elf/lib\libm.a(lib_a-s_ispos.o)
 .debug_line    0x00000000000008b6      0x1cf c:/psdk3v2/ps3dev/ppu/bin/../lib/gcc/powerpc64-ps3-elf/4.5.2/../../../../powerpc64-ps3-elf/lib\libm.a(lib_a-s_ldexp.o)
 .debug_line    0x0000000000000a85       0x5a c:/psdk3v2/ps3dev/ppu/bin/../lib/gcc/powerpc64-ps3-elf/4.5.2/../../../../powerpc64-ps3-elf/lib\libm.a(lib_a-s_mathcnst.o)
 .debug_line    0x0000000000000adf      0x129 c:/psdk3v2/ps3dev/ppu/bin/../lib/gcc/powerpc64-ps3-elf/4.5.2/../../../../powerpc64-ps3-elf/lib\libm.a(lib_a-s_numtest.o)
 .debug_line    0x0000000000000c08       0xfc c:/psdk3v2/ps3dev/ppu/bin/../lib/gcc/powerpc64-ps3-elf/4.5.2/../../../../powerpc64-ps3-elf/lib\libm.a(lib_a-sf_fabs.o)
 .debug_line    0x0000000000000d04      0x19a c:/psdk3v2/ps3dev/ppu/bin/../lib/gcc/powerpc64-ps3-elf/4.5.2/../../../../powerpc64-ps3-elf/lib\libm.a(lib_a-sf_frexp.o)
 .debug_line    0x0000000000000e9e       0xde c:/psdk3v2/ps3dev/ppu/bin/../lib/gcc/powerpc64-ps3-elf/4.5.2/../../../../powerpc64-ps3-elf/lib\libm.a(lib_a-sf_ispos.o)
 .debug_line    0x0000000000000f7c      0x1c1 c:/psdk3v2/ps3dev/ppu/bin/../lib/gcc/powerpc64-ps3-elf/4.5.2/../../../../powerpc64-ps3-elf/lib\libm.a(lib_a-sf_ldexp.o)
 .debug_line    0x000000000000113d       0xe5 c:/psdk3v2/ps3dev/ppu/bin/../lib/gcc/powerpc64-ps3-elf/4.5.2/../../../../powerpc64-ps3-elf/lib\libm.a(lib_a-sf_numtest.o)
 .debug_line    0x0000000000001222      0x2e0 c:/psdk3v2/ps3dev/ppu/bin/../lib/gcc/powerpc64-ps3-elf/4.5.2/../../../../powerpc64-ps3-elf/lib\libsysbase.a(syscalls.o)
 .debug_line    0x0000000000001502      0x352 c:/psdk3v2/ps3dev/ppu/bin/../lib/gcc/powerpc64-ps3-elf/4.5.2/../../../../powerpc64-ps3-elf/lib\libsysbase.a(sleep.o)
 .debug_line    0x0000000000001854       0xdc c:/psdk3v2/ps3dev/ppu/bin/../lib/gcc/powerpc64-ps3-elf/4.5.2/../../../../powerpc64-ps3-elf/lib\libc.a(lib_a-atexit.o)
 .debug_line    0x0000000000001930       0xcd c:/psdk3v2/ps3dev/ppu/bin/../lib/gcc/powerpc64-ps3-elf/4.5.2/../../../../powerpc64-ps3-elf/lib\libc.a(lib_a-errno.o)
 .debug_line    0x00000000000019fd      0x2d4 c:/psdk3v2/ps3dev/ppu/bin/../lib/gcc/powerpc64-ps3-elf/4.5.2/../../../../powerpc64-ps3-elf/lib\libc.a(lib_a-exit.o)
 .debug_line    0x0000000000001cd1      0x22e c:/psdk3v2/ps3dev/ppu/bin/../lib/gcc/powerpc64-ps3-elf/4.5.2/../../../../powerpc64-ps3-elf/lib\libc.a(lib_a-getreent.o)
 .debug_line    0x0000000000001eff      0x2b0 c:/psdk3v2/ps3dev/ppu/bin/../lib/gcc/powerpc64-ps3-elf/4.5.2/../../../../powerpc64-ps3-elf/lib\libc.a(lib_a-impure.o)
 .debug_line    0x00000000000021af      0x131 c:/psdk3v2/ps3dev/ppu/bin/../lib/gcc/powerpc64-ps3-elf/4.5.2/../../../../powerpc64-ps3-elf/lib\libc.a(lib_a-malign.o)
 .debug_line    0x00000000000022e0      0x332 c:/psdk3v2/ps3dev/ppu/bin/../lib/gcc/powerpc64-ps3-elf/4.5.2/../../../../powerpc64-ps3-elf/lib\libc.a(lib_a-malignr.o)
 .debug_line    0x0000000000002612      0x148 c:/psdk3v2/ps3dev/ppu/bin/../lib/gcc/powerpc64-ps3-elf/4.5.2/../../../../powerpc64-ps3-elf/lib\libc.a(lib_a-malloc.o)
 .debug_line    0x000000000000275a      0x51a c:/psdk3v2/ps3dev/ppu/bin/../lib/gcc/powerpc64-ps3-elf/4.5.2/../../../../powerpc64-ps3-elf/lib\libc.a(lib_a-mallocr.o)
 .debug_line    0x0000000000002c74      0x194 c:/psdk3v2/ps3dev/ppu/bin/../lib/gcc/powerpc64-ps3-elf/4.5.2/../../../../powerpc64-ps3-elf/lib\libc.a(lib_a-memcpy.o)
 .debug_line    0x0000000000002e08      0x197 c:/psdk3v2/ps3dev/ppu/bin/../lib/gcc/powerpc64-ps3-elf/4.5.2/../../../../powerpc64-ps3-elf/lib\libc.a(lib_a-memset.o)
 .debug_line    0x0000000000002f9f      0x2de c:/psdk3v2/ps3dev/ppu/bin/../lib/gcc/powerpc64-ps3-elf/4.5.2/../../../../powerpc64-ps3-elf/lib\libc.a(lib_a-mlock.o)
 .debug_line    0x000000000000327d      0x323 c:/psdk3v2/ps3dev/ppu/bin/../lib/gcc/powerpc64-ps3-elf/4.5.2/../../../../powerpc64-ps3-elf/lib\libc.a(lib_a-sscanf.o)
 .debug_line    0x00000000000035a0      0x362 c:/psdk3v2/ps3dev/ppu/bin/../lib/gcc/powerpc64-ps3-elf/4.5.2/../../../../powerpc64-ps3-elf/lib\libc.a(lib_a-stdio.o)
 .debug_line    0x0000000000003902      0x108 c:/psdk3v2/ps3dev/ppu/bin/../lib/gcc/powerpc64-ps3-elf/4.5.2/../../../../powerpc64-ps3-elf/lib\libc.a(lib_a-strcasecmp.o)
 .debug_line    0x0000000000003a0a      0x144 c:/psdk3v2/ps3dev/ppu/bin/../lib/gcc/powerpc64-ps3-elf/4.5.2/../../../../powerpc64-ps3-elf/lib\libc.a(lib_a-strlen.o)
 .debug_line    0x0000000000003b4e      0x180 c:/psdk3v2/ps3dev/ppu/bin/../lib/gcc/powerpc64-ps3-elf/4.5.2/../../../../powerpc64-ps3-elf/lib\libc.a(lib_a-strncpy.o)
 .debug_line    0x0000000000003cce      0x739 c:/psdk3v2/ps3dev/ppu/bin/../lib/gcc/powerpc64-ps3-elf/4.5.2/../../../../powerpc64-ps3-elf/lib\libc.a(lib_a-svfscanf.o)
 .debug_line    0x0000000000004407      0x308 c:/psdk3v2/ps3dev/ppu/bin/../lib/gcc/powerpc64-ps3-elf/4.5.2/../../../../powerpc64-ps3-elf/lib\libc.a(lib_a-__atexit.o)
 .debug_line    0x000000000000470f      0x33b c:/psdk3v2/ps3dev/ppu/bin/../lib/gcc/powerpc64-ps3-elf/4.5.2/../../../../powerpc64-ps3-elf/lib\libc.a(lib_a-__call_atexit.o)
 .debug_line    0x0000000000004a4a       0x88 c:/psdk3v2/ps3dev/ppu/bin/../lib/gcc/powerpc64-ps3-elf/4.5.2/../../../../powerpc64-ps3-elf/lib\libc.a(lib_a-ctype_.o)
 .debug_line    0x0000000000004ad2      0x4e1 c:/psdk3v2/ps3dev/ppu/bin/../lib/gcc/powerpc64-ps3-elf/4.5.2/../../../../powerpc64-ps3-elf/lib\libc.a(lib_a-findfp.o)
 .debug_line    0x0000000000004fb3      0x3c1 c:/psdk3v2/ps3dev/ppu/bin/../lib/gcc/powerpc64-ps3-elf/4.5.2/../../../../powerpc64-ps3-elf/lib\libc.a(lib_a-freer.o)
 .debug_line    0x0000000000005374      0x30e c:/psdk3v2/ps3dev/ppu/bin/../lib/gcc/powerpc64-ps3-elf/4.5.2/../../../../powerpc64-ps3-elf/lib\libc.a(lib_a-fwalk.o)
 .debug_line    0x0000000000005682      0x14b c:/psdk3v2/ps3dev/ppu/bin/../lib/gcc/powerpc64-ps3-elf/4.5.2/../../../../powerpc64-ps3-elf/lib\libc.a(lib_a-iswspace.o)
 .debug_line    0x00000000000057cd      0x399 c:/psdk3v2/ps3dev/ppu/bin/../lib/gcc/powerpc64-ps3-elf/4.5.2/../../../../powerpc64-ps3-elf/lib\libc.a(lib_a-locale.o)
 .debug_line    0x0000000000005b66      0x17f c:/psdk3v2/ps3dev/ppu/bin/../lib/gcc/powerpc64-ps3-elf/4.5.2/../../../../powerpc64-ps3-elf/lib\libc.a(lib_a-lock_recursive.o)
 .debug_line    0x0000000000005ce5      0x32c c:/psdk3v2/ps3dev/ppu/bin/../lib/gcc/powerpc64-ps3-elf/4.5.2/../../../../powerpc64-ps3-elf/lib\libc.a(lib_a-mbrtowc.o)
 .debug_line    0x0000000000006011      0x318 c:/psdk3v2/ps3dev/ppu/bin/../lib/gcc/powerpc64-ps3-elf/4.5.2/../../../../powerpc64-ps3-elf/lib\libc.a(lib_a-mbtowc_r.o)
 .debug_line    0x0000000000006329      0x1a1 c:/psdk3v2/ps3dev/ppu/bin/../lib/gcc/powerpc64-ps3-elf/4.5.2/../../../../powerpc64-ps3-elf/lib\libc.a(lib_a-s_fpclassify.o)
 .debug_line    0x00000000000064ca      0x12a c:/psdk3v2/ps3dev/ppu/bin/../lib/gcc/powerpc64-ps3-elf/4.5.2/../../../../powerpc64-ps3-elf/lib\libc.a(lib_a-sccl.o)
 .debug_line    0x00000000000065f4       0xc8 c:/psdk3v2/ps3dev/ppu/bin/../lib/gcc/powerpc64-ps3-elf/4.5.2/../../../../powerpc64-ps3-elf/lib\libc.a(lib_a-sf_nan.o)
 .debug_line    0x00000000000066bc      0x321 c:/psdk3v2/ps3dev/ppu/bin/../lib/gcc/powerpc64-ps3-elf/4.5.2/../../../../powerpc64-ps3-elf/lib\libc.a(lib_a-sprintf.o)
 .debug_line    0x00000000000069dd       0xf6 c:/psdk3v2/ps3dev/ppu/bin/../lib/gcc/powerpc64-ps3-elf/4.5.2/../../../../powerpc64-ps3-elf/lib\libc.a(lib_a-strcmp.o)
 .debug_line    0x0000000000006ad3      0x838 c:/psdk3v2/ps3dev/ppu/bin/../lib/gcc/powerpc64-ps3-elf/4.5.2/../../../../powerpc64-ps3-elf/lib\libc.a(lib_a-strtod.o)
 .debug_line    0x000000000000730b      0x3bc c:/psdk3v2/ps3dev/ppu/bin/../lib/gcc/powerpc64-ps3-elf/4.5.2/../../../../powerpc64-ps3-elf/lib\libc.a(lib_a-strtol.o)
 .debug_line    0x00000000000076c7      0x3a5 c:/psdk3v2/ps3dev/ppu/bin/../lib/gcc/powerpc64-ps3-elf/4.5.2/../../../../powerpc64-ps3-elf/lib\libc.a(lib_a-strtoll_r.o)
 .debug_line    0x0000000000007a6c      0x389 c:/psdk3v2/ps3dev/ppu/bin/../lib/gcc/powerpc64-ps3-elf/4.5.2/../../../../powerpc64-ps3-elf/lib\libc.a(lib_a-strtoul.o)
 .debug_line    0x0000000000007df5      0x373 c:/psdk3v2/ps3dev/ppu/bin/../lib/gcc/powerpc64-ps3-elf/4.5.2/../../../../powerpc64-ps3-elf/lib\libc.a(lib_a-strtoull_r.o)
 .debug_line    0x0000000000008168      0x6ef c:/psdk3v2/ps3dev/ppu/bin/../lib/gcc/powerpc64-ps3-elf/4.5.2/../../../../powerpc64-ps3-elf/lib\libc.a(lib_a-svfiscanf.o)
 .debug_line    0x0000000000008857      0xb94 c:/psdk3v2/ps3dev/ppu/bin/../lib/gcc/powerpc64-ps3-elf/4.5.2/../../../../powerpc64-ps3-elf/lib\libc.a(lib_a-svfprintf.o)
 .debug_line    0x00000000000093eb      0x3b3 c:/psdk3v2/ps3dev/ppu/bin/../lib/gcc/powerpc64-ps3-elf/4.5.2/../../../../powerpc64-ps3-elf/lib\libc.a(lib_a-ungetc.o)
 .debug_line    0x000000000000979e      0x8df c:/psdk3v2/ps3dev/ppu/bin/../lib/gcc/powerpc64-ps3-elf/4.5.2/../../../../powerpc64-ps3-elf/lib\libc.a(lib_a-dtoa.o)
 .debug_line    0x000000000000a07d      0x33c c:/psdk3v2/ps3dev/ppu/bin/../lib/gcc/powerpc64-ps3-elf/4.5.2/../../../../powerpc64-ps3-elf/lib\libc.a(lib_a-fclose.o)
 .debug_line    0x000000000000a3b9      0x3fd c:/psdk3v2/ps3dev/ppu/bin/../lib/gcc/powerpc64-ps3-elf/4.5.2/../../../../powerpc64-ps3-elf/lib\libc.a(lib_a-fflush.o)
 .debug_line    0x000000000000a7b6      0x586 c:/psdk3v2/ps3dev/ppu/bin/../lib/gcc/powerpc64-ps3-elf/4.5.2/../../../../powerpc64-ps3-elf/lib\libc.a(lib_a-gdtoa-gethex.o)
 .debug_line    0x000000000000ad3c      0x1af c:/psdk3v2/ps3dev/ppu/bin/../lib/gcc/powerpc64-ps3-elf/4.5.2/../../../../powerpc64-ps3-elf/lib\libc.a(lib_a-gdtoa-hexnan.o)
 .debug_line    0x000000000000aeeb      0x144 c:/psdk3v2/ps3dev/ppu/bin/../lib/gcc/powerpc64-ps3-elf/4.5.2/../../../../powerpc64-ps3-elf/lib\libc.a(lib_a-lock_internal.o)
 .debug_line    0x000000000000b02f      0x17a c:/psdk3v2/ps3dev/ppu/bin/../lib/gcc/powerpc64-ps3-elf/4.5.2/../../../../powerpc64-ps3-elf/lib\libc.a(lib_a-memchr.o)
 .debug_line    0x000000000000b1a9      0xa68 c:/psdk3v2/ps3dev/ppu/bin/../lib/gcc/powerpc64-ps3-elf/4.5.2/../../../../powerpc64-ps3-elf/lib\libc.a(lib_a-mprec.o)
 .debug_line    0x000000000000bc11      0x487 c:/psdk3v2/ps3dev/ppu/bin/../lib/gcc/powerpc64-ps3-elf/4.5.2/../../../../powerpc64-ps3-elf/lib\libc.a(lib_a-reallocr.o)
 .debug_line    0x000000000000c098      0x1aa c:/psdk3v2/ps3dev/ppu/bin/../lib/gcc/powerpc64-ps3-elf/4.5.2/../../../../powerpc64-ps3-elf/lib\libc.a(lib_a-strncmp.o)
 .debug_line    0x000000000000c242      0x806 c:/psdk3v2/ps3dev/ppu/bin/../lib/gcc/powerpc64-ps3-elf/4.5.2/../../../../powerpc64-ps3-elf/lib\libc.a(lib_a-svfiprintf.o)
 .debug_line    0x000000000000ca48       0xcf c:/psdk3v2/ps3dev/ppu/bin/../lib/gcc/powerpc64-ps3-elf/4.5.2/../../../../powerpc64-ps3-elf/lib\libc.a(lib_a-abort.o)
 .debug_line    0x000000000000cb17      0x2fc c:/psdk3v2/ps3dev/ppu/bin/../lib/gcc/powerpc64-ps3-elf/4.5.2/../../../../powerpc64-ps3-elf/lib\libc.a(lib_a-callocr.o)
 .debug_line    0x000000000000ce13      0x1a4 c:/psdk3v2/ps3dev/ppu/bin/../lib/gcc/powerpc64-ps3-elf/4.5.2/../../../../powerpc64-ps3-elf/lib\libc.a(lib_a-memmove.o)
 .debug_line    0x000000000000cfb7      0x401 c:/psdk3v2/ps3dev/ppu/bin/../lib/gcc/powerpc64-ps3-elf/4.5.2/../../../../powerpc64-ps3-elf/lib\libc.a(lib_a-signal.o)
 .debug_line    0x000000000000d3b8      0x329 c:/psdk3v2/ps3dev/ppu/bin/../lib/gcc/powerpc64-ps3-elf/4.5.2/../../../../powerpc64-ps3-elf/lib\libsysbase.a(close.o)
 .debug_line    0x000000000000d6e1      0x328 c:/psdk3v2/ps3dev/ppu/bin/../lib/gcc/powerpc64-ps3-elf/4.5.2/../../../../powerpc64-ps3-elf/lib\libsysbase.a(sbrk.o)
 .debug_line    0x000000000000da09      0x32e c:/psdk3v2/ps3dev/ppu/bin/../lib/gcc/powerpc64-ps3-elf/4.5.2/../../../../powerpc64-ps3-elf/lib\libsysbase.a(_exit.o)
 .debug_line    0x000000000000dd37      0x32d c:/psdk3v2/ps3dev/ppu/bin/../lib/gcc/powerpc64-ps3-elf/4.5.2/../../../../powerpc64-ps3-elf/lib\libsysbase.a(lseek.o)
 .debug_line    0x000000000000e064      0x32c c:/psdk3v2/ps3dev/ppu/bin/../lib/gcc/powerpc64-ps3-elf/4.5.2/../../../../powerpc64-ps3-elf/lib\libsysbase.a(read.o)
 .debug_line    0x000000000000e390      0x32d c:/psdk3v2/ps3dev/ppu/bin/../lib/gcc/powerpc64-ps3-elf/4.5.2/../../../../powerpc64-ps3-elf/lib\libsysbase.a(write.o)
 .debug_line    0x000000000000e6bd      0x39b c:/psdk3v2/ps3dev/ppu/bin/../lib/gcc/powerpc64-ps3-elf/4.5.2/../../../../powerpc64-ps3-elf/lib\libsysbase.a(lock.o)
 .debug_line    0x000000000000ea58      0x32a c:/psdk3v2/ps3dev/ppu/bin/../lib/gcc/powerpc64-ps3-elf/4.5.2/../../../../powerpc64-ps3-elf/lib\libsysbase.a(getpid.o)
 .debug_line    0x000000000000ed82      0x2c2 c:/psdk3v2/ps3dev/ppu/bin/../lib/gcc/powerpc64-ps3-elf/4.5.2/../../../../powerpc64-ps3-elf/lib\libsysbase.a(kill.o)

.debug_frame    0x0000000000000000     0x2168
 *(.debug_frame)
 .debug_frame   0x0000000000000000       0x50 c:/psdk3v2/ps3dev/ppu/bin/../lib/gcc/powerpc64-ps3-elf/4.5.2/../../../../powerpc64-ps3-elf/lib\libm.a(lib_a-s_sqrt.o)
 .debug_frame   0x0000000000000050       0x38 c:/psdk3v2/ps3dev/ppu/bin/../lib/gcc/powerpc64-ps3-elf/4.5.2/../../../../powerpc64-ps3-elf/lib\libm.a(lib_a-sf_cos.o)
 .debug_frame   0x0000000000000088       0x38 c:/psdk3v2/ps3dev/ppu/bin/../lib/gcc/powerpc64-ps3-elf/4.5.2/../../../../powerpc64-ps3-elf/lib\libm.a(lib_a-sf_sin.o)
 .debug_frame   0x00000000000000c0       0x58 c:/psdk3v2/ps3dev/ppu/bin/../lib/gcc/powerpc64-ps3-elf/4.5.2/../../../../powerpc64-ps3-elf/lib\libm.a(lib_a-sf_sine.o)
 .debug_frame   0x0000000000000118       0x50 c:/psdk3v2/ps3dev/ppu/bin/../lib/gcc/powerpc64-ps3-elf/4.5.2/../../../../powerpc64-ps3-elf/lib\libm.a(lib_a-sf_sqrt.o)
 .debug_frame   0x0000000000000168       0x50 c:/psdk3v2/ps3dev/ppu/bin/../lib/gcc/powerpc64-ps3-elf/4.5.2/../../../../powerpc64-ps3-elf/lib\libm.a(lib_a-sf_tan.o)
 .debug_frame   0x00000000000001b8       0x40 c:/psdk3v2/ps3dev/ppu/bin/../lib/gcc/powerpc64-ps3-elf/4.5.2/../../../../powerpc64-ps3-elf/lib\libm.a(lib_a-s_frexp.o)
 .debug_frame   0x00000000000001f8       0x28 c:/psdk3v2/ps3dev/ppu/bin/../lib/gcc/powerpc64-ps3-elf/4.5.2/../../../../powerpc64-ps3-elf/lib\libm.a(lib_a-s_ispos.o)
 .debug_frame   0x0000000000000220       0x58 c:/psdk3v2/ps3dev/ppu/bin/../lib/gcc/powerpc64-ps3-elf/4.5.2/../../../../powerpc64-ps3-elf/lib\libm.a(lib_a-s_ldexp.o)
 .debug_frame   0x0000000000000278       0x28 c:/psdk3v2/ps3dev/ppu/bin/../lib/gcc/powerpc64-ps3-elf/4.5.2/../../../../powerpc64-ps3-elf/lib\libm.a(lib_a-s_numtest.o)
 .debug_frame   0x00000000000002a0       0x48 c:/psdk3v2/ps3dev/ppu/bin/../lib/gcc/powerpc64-ps3-elf/4.5.2/../../../../powerpc64-ps3-elf/lib\libm.a(lib_a-sf_fabs.o)
 .debug_frame   0x00000000000002e8       0x40 c:/psdk3v2/ps3dev/ppu/bin/../lib/gcc/powerpc64-ps3-elf/4.5.2/../../../../powerpc64-ps3-elf/lib\libm.a(lib_a-sf_frexp.o)
 .debug_frame   0x0000000000000328       0x28 c:/psdk3v2/ps3dev/ppu/bin/../lib/gcc/powerpc64-ps3-elf/4.5.2/../../../../powerpc64-ps3-elf/lib\libm.a(lib_a-sf_ispos.o)
 .debug_frame   0x0000000000000350       0x50 c:/psdk3v2/ps3dev/ppu/bin/../lib/gcc/powerpc64-ps3-elf/4.5.2/../../../../powerpc64-ps3-elf/lib\libm.a(lib_a-sf_ldexp.o)
 .debug_frame   0x00000000000003a0       0x28 c:/psdk3v2/ps3dev/ppu/bin/../lib/gcc/powerpc64-ps3-elf/4.5.2/../../../../powerpc64-ps3-elf/lib\libm.a(lib_a-sf_numtest.o)
 .debug_frame   0x00000000000003c8       0x68 c:/psdk3v2/ps3dev/ppu/bin/../lib/gcc/powerpc64-ps3-elf/4.5.2/../../../../powerpc64-ps3-elf/lib\libsysbase.a(sleep.o)
 .debug_frame   0x0000000000000430       0x38 c:/psdk3v2/ps3dev/ppu/bin/../lib/gcc/powerpc64-ps3-elf/4.5.2/../../../../powerpc64-ps3-elf/lib\libc.a(lib_a-atexit.o)
 .debug_frame   0x0000000000000468       0x38 c:/psdk3v2/ps3dev/ppu/bin/../lib/gcc/powerpc64-ps3-elf/4.5.2/../../../../powerpc64-ps3-elf/lib\libc.a(lib_a-errno.o)
 .debug_frame   0x00000000000004a0       0x38 c:/psdk3v2/ps3dev/ppu/bin/../lib/gcc/powerpc64-ps3-elf/4.5.2/../../../../powerpc64-ps3-elf/lib\libc.a(lib_a-exit.o)
 .debug_frame   0x00000000000004d8       0x40 c:/psdk3v2/ps3dev/ppu/bin/../lib/gcc/powerpc64-ps3-elf/4.5.2/../../../../powerpc64-ps3-elf/lib\libc.a(lib_a-getreent.o)
 .debug_frame   0x0000000000000518       0x40 c:/psdk3v2/ps3dev/ppu/bin/../lib/gcc/powerpc64-ps3-elf/4.5.2/../../../../powerpc64-ps3-elf/lib\libc.a(lib_a-malign.o)
 .debug_frame   0x0000000000000558       0x58 c:/psdk3v2/ps3dev/ppu/bin/../lib/gcc/powerpc64-ps3-elf/4.5.2/../../../../powerpc64-ps3-elf/lib\libc.a(lib_a-malignr.o)
 .debug_frame   0x00000000000005b0       0x60 c:/psdk3v2/ps3dev/ppu/bin/../lib/gcc/powerpc64-ps3-elf/4.5.2/../../../../powerpc64-ps3-elf/lib\libc.a(lib_a-malloc.o)
 .debug_frame   0x0000000000000610       0x58 c:/psdk3v2/ps3dev/ppu/bin/../lib/gcc/powerpc64-ps3-elf/4.5.2/../../../../powerpc64-ps3-elf/lib\libc.a(lib_a-mallocr.o)
 .debug_frame   0x0000000000000668       0x28 c:/psdk3v2/ps3dev/ppu/bin/../lib/gcc/powerpc64-ps3-elf/4.5.2/../../../../powerpc64-ps3-elf/lib\libc.a(lib_a-memcpy.o)
 .debug_frame   0x0000000000000690       0x28 c:/psdk3v2/ps3dev/ppu/bin/../lib/gcc/powerpc64-ps3-elf/4.5.2/../../../../powerpc64-ps3-elf/lib\libc.a(lib_a-memset.o)
 .debug_frame   0x00000000000006b8       0x60 c:/psdk3v2/ps3dev/ppu/bin/../lib/gcc/powerpc64-ps3-elf/4.5.2/../../../../powerpc64-ps3-elf/lib\libc.a(lib_a-mlock.o)
 .debug_frame   0x0000000000000718       0x60 c:/psdk3v2/ps3dev/ppu/bin/../lib/gcc/powerpc64-ps3-elf/4.5.2/../../../../powerpc64-ps3-elf/lib\libc.a(lib_a-sscanf.o)
 .debug_frame   0x0000000000000778       0xe0 c:/psdk3v2/ps3dev/ppu/bin/../lib/gcc/powerpc64-ps3-elf/4.5.2/../../../../powerpc64-ps3-elf/lib\libc.a(lib_a-stdio.o)
 .debug_frame   0x0000000000000858       0x28 c:/psdk3v2/ps3dev/ppu/bin/../lib/gcc/powerpc64-ps3-elf/4.5.2/../../../../powerpc64-ps3-elf/lib\libc.a(lib_a-strcasecmp.o)
 .debug_frame   0x0000000000000880       0x28 c:/psdk3v2/ps3dev/ppu/bin/../lib/gcc/powerpc64-ps3-elf/4.5.2/../../../../powerpc64-ps3-elf/lib\libc.a(lib_a-strlen.o)
 .debug_frame   0x00000000000008a8       0x28 c:/psdk3v2/ps3dev/ppu/bin/../lib/gcc/powerpc64-ps3-elf/4.5.2/../../../../powerpc64-ps3-elf/lib\libc.a(lib_a-strncpy.o)
 .debug_frame   0x00000000000008d0       0x70 c:/psdk3v2/ps3dev/ppu/bin/../lib/gcc/powerpc64-ps3-elf/4.5.2/../../../../powerpc64-ps3-elf/lib\libc.a(lib_a-svfscanf.o)
 .debug_frame   0x0000000000000940       0x50 c:/psdk3v2/ps3dev/ppu/bin/../lib/gcc/powerpc64-ps3-elf/4.5.2/../../../../powerpc64-ps3-elf/lib\libc.a(lib_a-__atexit.o)
 .debug_frame   0x0000000000000990       0x58 c:/psdk3v2/ps3dev/ppu/bin/../lib/gcc/powerpc64-ps3-elf/4.5.2/../../../../powerpc64-ps3-elf/lib\libc.a(lib_a-__call_atexit.o)
 .debug_frame   0x00000000000009e8      0x228 c:/psdk3v2/ps3dev/ppu/bin/../lib/gcc/powerpc64-ps3-elf/4.5.2/../../../../powerpc64-ps3-elf/lib\libc.a(lib_a-findfp.o)
 .debug_frame   0x0000000000000c10       0x78 c:/psdk3v2/ps3dev/ppu/bin/../lib/gcc/powerpc64-ps3-elf/4.5.2/../../../../powerpc64-ps3-elf/lib\libc.a(lib_a-freer.o)
 .debug_frame   0x0000000000000c88       0x80 c:/psdk3v2/ps3dev/ppu/bin/../lib/gcc/powerpc64-ps3-elf/4.5.2/../../../../powerpc64-ps3-elf/lib\libc.a(lib_a-fwalk.o)
 .debug_frame   0x0000000000000d08       0x28 c:/psdk3v2/ps3dev/ppu/bin/../lib/gcc/powerpc64-ps3-elf/4.5.2/../../../../powerpc64-ps3-elf/lib\libc.a(lib_a-iswspace.o)
 .debug_frame   0x0000000000000d30      0x108 c:/psdk3v2/ps3dev/ppu/bin/../lib/gcc/powerpc64-ps3-elf/4.5.2/../../../../powerpc64-ps3-elf/lib\libc.a(lib_a-locale.o)
 .debug_frame   0x0000000000000e38       0xd8 c:/psdk3v2/ps3dev/ppu/bin/../lib/gcc/powerpc64-ps3-elf/4.5.2/../../../../powerpc64-ps3-elf/lib\libc.a(lib_a-lock_recursive.o)
 .debug_frame   0x0000000000000f10       0x88 c:/psdk3v2/ps3dev/ppu/bin/../lib/gcc/powerpc64-ps3-elf/4.5.2/../../../../powerpc64-ps3-elf/lib\libc.a(lib_a-mbrtowc.o)
 .debug_frame   0x0000000000000f98       0x58 c:/psdk3v2/ps3dev/ppu/bin/../lib/gcc/powerpc64-ps3-elf/4.5.2/../../../../powerpc64-ps3-elf/lib\libc.a(lib_a-mbtowc_r.o)
 .debug_frame   0x0000000000000ff0       0x28 c:/psdk3v2/ps3dev/ppu/bin/../lib/gcc/powerpc64-ps3-elf/4.5.2/../../../../powerpc64-ps3-elf/lib\libc.a(lib_a-s_fpclassify.o)
 .debug_frame   0x0000000000001018       0x28 c:/psdk3v2/ps3dev/ppu/bin/../lib/gcc/powerpc64-ps3-elf/4.5.2/../../../../powerpc64-ps3-elf/lib\libc.a(lib_a-sccl.o)
 .debug_frame   0x0000000000001040       0x28 c:/psdk3v2/ps3dev/ppu/bin/../lib/gcc/powerpc64-ps3-elf/4.5.2/../../../../powerpc64-ps3-elf/lib\libc.a(lib_a-sf_nan.o)
 .debug_frame   0x0000000000001068       0x60 c:/psdk3v2/ps3dev/ppu/bin/../lib/gcc/powerpc64-ps3-elf/4.5.2/../../../../powerpc64-ps3-elf/lib\libc.a(lib_a-sprintf.o)
 .debug_frame   0x00000000000010c8       0x28 c:/psdk3v2/ps3dev/ppu/bin/../lib/gcc/powerpc64-ps3-elf/4.5.2/../../../../powerpc64-ps3-elf/lib\libc.a(lib_a-strcmp.o)
 .debug_frame   0x00000000000010f0       0xe8 c:/psdk3v2/ps3dev/ppu/bin/../lib/gcc/powerpc64-ps3-elf/4.5.2/../../../../powerpc64-ps3-elf/lib\libc.a(lib_a-strtod.o)
 .debug_frame   0x00000000000011d8       0x68 c:/psdk3v2/ps3dev/ppu/bin/../lib/gcc/powerpc64-ps3-elf/4.5.2/../../../../powerpc64-ps3-elf/lib\libc.a(lib_a-strtol.o)
 .debug_frame   0x0000000000001240       0x38 c:/psdk3v2/ps3dev/ppu/bin/../lib/gcc/powerpc64-ps3-elf/4.5.2/../../../../powerpc64-ps3-elf/lib\libc.a(lib_a-strtoll_r.o)
 .debug_frame   0x0000000000001278       0x68 c:/psdk3v2/ps3dev/ppu/bin/../lib/gcc/powerpc64-ps3-elf/4.5.2/../../../../powerpc64-ps3-elf/lib\libc.a(lib_a-strtoul.o)
 .debug_frame   0x00000000000012e0       0x38 c:/psdk3v2/ps3dev/ppu/bin/../lib/gcc/powerpc64-ps3-elf/4.5.2/../../../../powerpc64-ps3-elf/lib\libc.a(lib_a-strtoull_r.o)
 .debug_frame   0x0000000000001318      0x110 c:/psdk3v2/ps3dev/ppu/bin/../lib/gcc/powerpc64-ps3-elf/4.5.2/../../../../powerpc64-ps3-elf/lib\libc.a(lib_a-svfiscanf.o)
 .debug_frame   0x0000000000001428       0x70 c:/psdk3v2/ps3dev/ppu/bin/../lib/gcc/powerpc64-ps3-elf/4.5.2/../../../../powerpc64-ps3-elf/lib\libc.a(lib_a-svfprintf.o)
 .debug_frame   0x0000000000001498       0xb0 c:/psdk3v2/ps3dev/ppu/bin/../lib/gcc/powerpc64-ps3-elf/4.5.2/../../../../powerpc64-ps3-elf/lib\libc.a(lib_a-ungetc.o)
 .debug_frame   0x0000000000001548       0xa0 c:/psdk3v2/ps3dev/ppu/bin/../lib/gcc/powerpc64-ps3-elf/4.5.2/../../../../powerpc64-ps3-elf/lib\libc.a(lib_a-dtoa.o)
 .debug_frame   0x00000000000015e8       0x78 c:/psdk3v2/ps3dev/ppu/bin/../lib/gcc/powerpc64-ps3-elf/4.5.2/../../../../powerpc64-ps3-elf/lib\libc.a(lib_a-fclose.o)
 .debug_frame   0x0000000000001660       0x80 c:/psdk3v2/ps3dev/ppu/bin/../lib/gcc/powerpc64-ps3-elf/4.5.2/../../../../powerpc64-ps3-elf/lib\libc.a(lib_a-fflush.o)
 .debug_frame   0x00000000000016e0       0x90 c:/psdk3v2/ps3dev/ppu/bin/../lib/gcc/powerpc64-ps3-elf/4.5.2/../../../../powerpc64-ps3-elf/lib\libc.a(lib_a-gdtoa-gethex.o)
 .debug_frame   0x0000000000001770       0x50 c:/psdk3v2/ps3dev/ppu/bin/../lib/gcc/powerpc64-ps3-elf/4.5.2/../../../../powerpc64-ps3-elf/lib\libc.a(lib_a-gdtoa-hexnan.o)
 .debug_frame   0x00000000000017c0       0x68 c:/psdk3v2/ps3dev/ppu/bin/../lib/gcc/powerpc64-ps3-elf/4.5.2/../../../../powerpc64-ps3-elf/lib\libc.a(lib_a-lock_internal.o)
 .debug_frame   0x0000000000001828       0x28 c:/psdk3v2/ps3dev/ppu/bin/../lib/gcc/powerpc64-ps3-elf/4.5.2/../../../../powerpc64-ps3-elf/lib\libc.a(lib_a-memchr.o)
 .debug_frame   0x0000000000001850      0x330 c:/psdk3v2/ps3dev/ppu/bin/../lib/gcc/powerpc64-ps3-elf/4.5.2/../../../../powerpc64-ps3-elf/lib\libc.a(lib_a-mprec.o)
 .debug_frame   0x0000000000001b80       0x68 c:/psdk3v2/ps3dev/ppu/bin/../lib/gcc/powerpc64-ps3-elf/4.5.2/../../../../powerpc64-ps3-elf/lib\libc.a(lib_a-reallocr.o)
 .debug_frame   0x0000000000001be8       0x28 c:/psdk3v2/ps3dev/ppu/bin/../lib/gcc/powerpc64-ps3-elf/4.5.2/../../../../powerpc64-ps3-elf/lib\libc.a(lib_a-strncmp.o)
 .debug_frame   0x0000000000001c10       0xb8 c:/psdk3v2/ps3dev/ppu/bin/../lib/gcc/powerpc64-ps3-elf/4.5.2/../../../../powerpc64-ps3-elf/lib\libc.a(lib_a-svfiprintf.o)
 .debug_frame   0x0000000000001cc8       0x30 c:/psdk3v2/ps3dev/ppu/bin/../lib/gcc/powerpc64-ps3-elf/4.5.2/../../../../powerpc64-ps3-elf/lib\libc.a(lib_a-abort.o)
 .debug_frame   0x0000000000001cf8       0x40 c:/psdk3v2/ps3dev/ppu/bin/../lib/gcc/powerpc64-ps3-elf/4.5.2/../../../../powerpc64-ps3-elf/lib\libc.a(lib_a-callocr.o)
 .debug_frame   0x0000000000001d38       0x28 c:/psdk3v2/ps3dev/ppu/bin/../lib/gcc/powerpc64-ps3-elf/4.5.2/../../../../powerpc64-ps3-elf/lib\libc.a(lib_a-memmove.o)
 .debug_frame   0x0000000000001d60      0x178 c:/psdk3v2/ps3dev/ppu/bin/../lib/gcc/powerpc64-ps3-elf/4.5.2/../../../../powerpc64-ps3-elf/lib\libc.a(lib_a-signal.o)
 .debug_frame   0x0000000000001ed8       0x38 c:/psdk3v2/ps3dev/ppu/bin/../lib/gcc/powerpc64-ps3-elf/4.5.2/../../../../powerpc64-ps3-elf/lib\libsysbase.a(close.o)
 .debug_frame   0x0000000000001f10       0x38 c:/psdk3v2/ps3dev/ppu/bin/../lib/gcc/powerpc64-ps3-elf/4.5.2/../../../../powerpc64-ps3-elf/lib\libsysbase.a(sbrk.o)
 .debug_frame   0x0000000000001f48       0x30 c:/psdk3v2/ps3dev/ppu/bin/../lib/gcc/powerpc64-ps3-elf/4.5.2/../../../../powerpc64-ps3-elf/lib\libsysbase.a(_exit.o)
 .debug_frame   0x0000000000001f78       0x38 c:/psdk3v2/ps3dev/ppu/bin/../lib/gcc/powerpc64-ps3-elf/4.5.2/../../../../powerpc64-ps3-elf/lib\libsysbase.a(lseek.o)
 .debug_frame   0x0000000000001fb0       0x38 c:/psdk3v2/ps3dev/ppu/bin/../lib/gcc/powerpc64-ps3-elf/4.5.2/../../../../powerpc64-ps3-elf/lib\libsysbase.a(read.o)
 .debug_frame   0x0000000000001fe8       0x38 c:/psdk3v2/ps3dev/ppu/bin/../lib/gcc/powerpc64-ps3-elf/4.5.2/../../../../powerpc64-ps3-elf/lib\libsysbase.a(write.o)
 .debug_frame   0x0000000000002020       0xe8 c:/psdk3v2/ps3dev/ppu/bin/../lib/gcc/powerpc64-ps3-elf/4.5.2/../../../../powerpc64-ps3-elf/lib\libsysbase.a(lock.o)
 .debug_frame   0x0000000000002108       0x38 c:/psdk3v2/ps3dev/ppu/bin/../lib/gcc/powerpc64-ps3-elf/4.5.2/../../../../powerpc64-ps3-elf/lib\libsysbase.a(getpid.o)
 .debug_frame   0x0000000000002140       0x28 c:/psdk3v2/ps3dev/ppu/bin/../lib/gcc/powerpc64-ps3-elf/4.5.2/../../../../powerpc64-ps3-elf/lib\libsysbase.a(kill.o)

.debug_str      0x0000000000000000     0x2e26
 *(.debug_str)
 .debug_str     0x0000000000000000      0x134 c:/psdk3v2/ps3dev/ppu/bin/../lib/gcc/powerpc64-ps3-elf/4.5.2/../../../../powerpc64-ps3-elf/lib\libm.a(lib_a-s_sqrt.o)
                                        0x174 (size before relaxing)
 .debug_str     0x0000000000000134       0x30 c:/psdk3v2/ps3dev/ppu/bin/../lib/gcc/powerpc64-ps3-elf/4.5.2/../../../../powerpc64-ps3-elf/lib\libm.a(lib_a-sf_cos.o)
                                        0x159 (size before relaxing)
 .debug_str     0x0000000000000164       0x30 c:/psdk3v2/ps3dev/ppu/bin/../lib/gcc/powerpc64-ps3-elf/4.5.2/../../../../powerpc64-ps3-elf/lib\libm.a(lib_a-sf_sin.o)
                                        0x159 (size before relaxing)
 .debug_str     0x0000000000000194       0x6a c:/psdk3v2/ps3dev/ppu/bin/../lib/gcc/powerpc64-ps3-elf/4.5.2/../../../../powerpc64-ps3-elf/lib\libm.a(lib_a-sf_sine.o)
                                        0x193 (size before relaxing)
 .debug_str     0x00000000000001fe       0x46 c:/psdk3v2/ps3dev/ppu/bin/../lib/gcc/powerpc64-ps3-elf/4.5.2/../../../../powerpc64-ps3-elf/lib\libm.a(lib_a-sf_sqrt.o)
                                        0x17b (size before relaxing)
 .debug_str     0x0000000000000244       0x46 c:/psdk3v2/ps3dev/ppu/bin/../lib/gcc/powerpc64-ps3-elf/4.5.2/../../../../powerpc64-ps3-elf/lib\libm.a(lib_a-sf_tan.o)
                                        0x187 (size before relaxing)
 .debug_str     0x000000000000028a       0x64 c:/psdk3v2/ps3dev/ppu/bin/../lib/gcc/powerpc64-ps3-elf/4.5.2/../../../../powerpc64-ps3-elf/lib\libm.a(lib_a-s_frexp.o)
                                        0x193 (size before relaxing)
 .debug_str     0x00000000000002ee       0x31 c:/psdk3v2/ps3dev/ppu/bin/../lib/gcc/powerpc64-ps3-elf/4.5.2/../../../../powerpc64-ps3-elf/lib\libm.a(lib_a-s_ispos.o)
                                        0x18e (size before relaxing)
 .debug_str     0x000000000000031f       0x37 c:/psdk3v2/ps3dev/ppu/bin/../lib/gcc/powerpc64-ps3-elf/4.5.2/../../../../powerpc64-ps3-elf/lib\libm.a(lib_a-s_ldexp.o)
                                        0x19e (size before relaxing)
 .debug_str     0x0000000000000356       0x5b c:/psdk3v2/ps3dev/ppu/bin/../lib/gcc/powerpc64-ps3-elf/4.5.2/../../../../powerpc64-ps3-elf/lib\libm.a(lib_a-s_mathcnst.o)
                                        0x1be (size before relaxing)
 .debug_str     0x00000000000003b1       0x36 c:/psdk3v2/ps3dev/ppu/bin/../lib/gcc/powerpc64-ps3-elf/4.5.2/../../../../powerpc64-ps3-elf/lib\libm.a(lib_a-s_numtest.o)
                                        0x192 (size before relaxing)
 .debug_str     0x00000000000003e7       0x32 c:/psdk3v2/ps3dev/ppu/bin/../lib/gcc/powerpc64-ps3-elf/4.5.2/../../../../powerpc64-ps3-elf/lib\libm.a(lib_a-sf_fabs.o)
                                        0x15b (size before relaxing)
 .debug_str     0x0000000000000419       0x5e c:/psdk3v2/ps3dev/ppu/bin/../lib/gcc/powerpc64-ps3-elf/4.5.2/../../../../powerpc64-ps3-elf/lib\libm.a(lib_a-sf_frexp.o)
                                        0x198 (size before relaxing)
 .debug_str     0x0000000000000477       0x2d c:/psdk3v2/ps3dev/ppu/bin/../lib/gcc/powerpc64-ps3-elf/4.5.2/../../../../powerpc64-ps3-elf/lib\libm.a(lib_a-sf_ispos.o)
                                        0x167 (size before relaxing)
 .debug_str     0x00000000000004a4       0x34 c:/psdk3v2/ps3dev/ppu/bin/../lib/gcc/powerpc64-ps3-elf/4.5.2/../../../../powerpc64-ps3-elf/lib\libm.a(lib_a-sf_ldexp.o)
                                        0x1a5 (size before relaxing)
 .debug_str     0x00000000000004d8       0x38 c:/psdk3v2/ps3dev/ppu/bin/../lib/gcc/powerpc64-ps3-elf/4.5.2/../../../../powerpc64-ps3-elf/lib\libm.a(lib_a-sf_numtest.o)
                                        0x16b (size before relaxing)
 .debug_str     0x0000000000000510      0x85e c:/psdk3v2/ps3dev/ppu/bin/../lib/gcc/powerpc64-ps3-elf/4.5.2/../../../../powerpc64-ps3-elf/lib\libsysbase.a(syscalls.o)
                                        0x9e1 (size before relaxing)
 .debug_str     0x0000000000000d6e       0x2f c:/psdk3v2/ps3dev/ppu/bin/../lib/gcc/powerpc64-ps3-elf/4.5.2/../../../../powerpc64-ps3-elf/lib\libsysbase.a(sleep.o)
                                        0x9f0 (size before relaxing)
 .debug_str     0x0000000000000d9d       0xd6 c:/psdk3v2/ps3dev/ppu/bin/../lib/gcc/powerpc64-ps3-elf/4.5.2/../../../../powerpc64-ps3-elf/lib\libc.a(lib_a-atexit.o)
                                        0x172 (size before relaxing)
 .debug_str     0x0000000000000e73       0xab c:/psdk3v2/ps3dev/ppu/bin/../lib/gcc/powerpc64-ps3-elf/4.5.2/../../../../powerpc64-ps3-elf/lib\libc.a(lib_a-errno.o)
                                        0x140 (size before relaxing)
 .debug_str     0x0000000000000f1e       0x41 c:/psdk3v2/ps3dev/ppu/bin/../lib/gcc/powerpc64-ps3-elf/4.5.2/../../../../powerpc64-ps3-elf/lib\libc.a(lib_a-exit.o)
                                        0x570 (size before relaxing)
 .debug_str     0x0000000000000f5f       0xd0 c:/psdk3v2/ps3dev/ppu/bin/../lib/gcc/powerpc64-ps3-elf/4.5.2/../../../../powerpc64-ps3-elf/lib\libc.a(lib_a-getreent.o)
                                        0x57f (size before relaxing)
 .debug_str     0x000000000000102f       0xb0 c:/psdk3v2/ps3dev/ppu/bin/../lib/gcc/powerpc64-ps3-elf/4.5.2/../../../../powerpc64-ps3-elf/lib\libc.a(lib_a-impure.o)
                                        0x57e (size before relaxing)
 .debug_str     0x00000000000010df       0x3b c:/psdk3v2/ps3dev/ppu/bin/../lib/gcc/powerpc64-ps3-elf/4.5.2/../../../../powerpc64-ps3-elf/lib\libc.a(lib_a-malign.o)
                                        0x158 (size before relaxing)
 .debug_str     0x000000000000111a       0x9c c:/psdk3v2/ps3dev/ppu/bin/../lib/gcc/powerpc64-ps3-elf/4.5.2/../../../../powerpc64-ps3-elf/lib\libc.a(lib_a-malignr.o)
                                        0x5d8 (size before relaxing)
 .debug_str     0x00000000000011b6       0x30 c:/psdk3v2/ps3dev/ppu/bin/../lib/gcc/powerpc64-ps3-elf/4.5.2/../../../../powerpc64-ps3-elf/lib\libc.a(lib_a-malloc.o)
                                        0x15a (size before relaxing)
 .debug_str     0x00000000000011e6      0x188 c:/psdk3v2/ps3dev/ppu/bin/../lib/gcc/powerpc64-ps3-elf/4.5.2/../../../../powerpc64-ps3-elf/lib\libc.a(lib_a-mallocr.o)
                                        0x755 (size before relaxing)
 .debug_str     0x000000000000136e       0xd4 c:/psdk3v2/ps3dev/ppu/bin/../lib/gcc/powerpc64-ps3-elf/4.5.2/../../../../powerpc64-ps3-elf/lib\libc.a(lib_a-memcpy.o)
                                        0x170 (size before relaxing)
 .debug_str     0x0000000000001442       0x3f c:/psdk3v2/ps3dev/ppu/bin/../lib/gcc/powerpc64-ps3-elf/4.5.2/../../../../powerpc64-ps3-elf/lib\libc.a(lib_a-memset.o)
                                        0x15d (size before relaxing)
 .debug_str     0x0000000000001481       0x5d c:/psdk3v2/ps3dev/ppu/bin/../lib/gcc/powerpc64-ps3-elf/4.5.2/../../../../powerpc64-ps3-elf/lib\libc.a(lib_a-mlock.o)
                                        0x587 (size before relaxing)
 .debug_str     0x00000000000014de       0xd6 c:/psdk3v2/ps3dev/ppu/bin/../lib/gcc/powerpc64-ps3-elf/4.5.2/../../../../powerpc64-ps3-elf/lib\libc.a(lib_a-sscanf.o)
                                        0x592 (size before relaxing)
 .debug_str     0x00000000000015b4       0x5d c:/psdk3v2/ps3dev/ppu/bin/../lib/gcc/powerpc64-ps3-elf/4.5.2/../../../../powerpc64-ps3-elf/lib\libc.a(lib_a-stdio.o)
                                        0x5a5 (size before relaxing)
 .debug_str     0x0000000000001611       0x52 c:/psdk3v2/ps3dev/ppu/bin/../lib/gcc/powerpc64-ps3-elf/4.5.2/../../../../powerpc64-ps3-elf/lib\libc.a(lib_a-strcasecmp.o)
                                        0x162 (size before relaxing)
 .debug_str     0x0000000000001663       0x32 c:/psdk3v2/ps3dev/ppu/bin/../lib/gcc/powerpc64-ps3-elf/4.5.2/../../../../powerpc64-ps3-elf/lib\libc.a(lib_a-strlen.o)
                                        0x15c (size before relaxing)
 .debug_str     0x0000000000001695       0x34 c:/psdk3v2/ps3dev/ppu/bin/../lib/gcc/powerpc64-ps3-elf/4.5.2/../../../../powerpc64-ps3-elf/lib\libc.a(lib_a-strncpy.o)
                                        0x173 (size before relaxing)
 .debug_str     0x00000000000016c9      0x125 c:/psdk3v2/ps3dev/ppu/bin/../lib/gcc/powerpc64-ps3-elf/4.5.2/../../../../powerpc64-ps3-elf/lib\libc.a(lib_a-svfscanf.o)
                                        0x6d8 (size before relaxing)
 .debug_str     0x00000000000017ee       0x4f c:/psdk3v2/ps3dev/ppu/bin/../lib/gcc/powerpc64-ps3-elf/4.5.2/../../../../powerpc64-ps3-elf/lib\libc.a(lib_a-__atexit.o)
                                        0x5c6 (size before relaxing)
 .debug_str     0x000000000000183d       0x51 c:/psdk3v2/ps3dev/ppu/bin/../lib/gcc/powerpc64-ps3-elf/4.5.2/../../../../powerpc64-ps3-elf/lib\libc.a(lib_a-__call_atexit.o)
                                        0x5a6 (size before relaxing)
 .debug_str     0x000000000000188e       0xac c:/psdk3v2/ps3dev/ppu/bin/../lib/gcc/powerpc64-ps3-elf/4.5.2/../../../../powerpc64-ps3-elf/lib\libc.a(lib_a-ctype_.o)
                                         0xdd (size before relaxing)
 .debug_str     0x000000000000193a      0x16d c:/psdk3v2/ps3dev/ppu/bin/../lib/gcc/powerpc64-ps3-elf/4.5.2/../../../../powerpc64-ps3-elf/lib\libc.a(lib_a-findfp.o)
                                        0x6d1 (size before relaxing)
 .debug_str     0x0000000000001aa7       0x3c c:/psdk3v2/ps3dev/ppu/bin/../lib/gcc/powerpc64-ps3-elf/4.5.2/../../../../powerpc64-ps3-elf/lib\libc.a(lib_a-freer.o)
                                        0x6a7 (size before relaxing)
 .debug_str     0x0000000000001ae3       0x4e c:/psdk3v2/ps3dev/ppu/bin/../lib/gcc/powerpc64-ps3-elf/4.5.2/../../../../powerpc64-ps3-elf/lib\libc.a(lib_a-fwalk.o)
                                        0x599 (size before relaxing)
 .debug_str     0x0000000000001b31       0x35 c:/psdk3v2/ps3dev/ppu/bin/../lib/gcc/powerpc64-ps3-elf/4.5.2/../../../../powerpc64-ps3-elf/lib\libc.a(lib_a-iswspace.o)
                                        0x159 (size before relaxing)
 .debug_str     0x0000000000001b66      0x281 c:/psdk3v2/ps3dev/ppu/bin/../lib/gcc/powerpc64-ps3-elf/4.5.2/../../../../powerpc64-ps3-elf/lib\libc.a(lib_a-locale.o)
                                        0x7c8 (size before relaxing)
 .debug_str     0x0000000000001de7      0x10e c:/psdk3v2/ps3dev/ppu/bin/../lib/gcc/powerpc64-ps3-elf/4.5.2/../../../../powerpc64-ps3-elf/lib\libc.a(lib_a-lock_recursive.o)
                                        0x2a1 (size before relaxing)
 .debug_str     0x0000000000001ef5       0x4f c:/psdk3v2/ps3dev/ppu/bin/../lib/gcc/powerpc64-ps3-elf/4.5.2/../../../../powerpc64-ps3-elf/lib\libc.a(lib_a-mbrtowc.o)
                                        0x592 (size before relaxing)
 .debug_str     0x0000000000001f44       0x4c c:/psdk3v2/ps3dev/ppu/bin/../lib/gcc/powerpc64-ps3-elf/4.5.2/../../../../powerpc64-ps3-elf/lib\libc.a(lib_a-mbtowc_r.o)
                                        0x5a6 (size before relaxing)
 .debug_str     0x0000000000001f90       0xba c:/psdk3v2/ps3dev/ppu/bin/../lib/gcc/powerpc64-ps3-elf/4.5.2/../../../../powerpc64-ps3-elf/lib\libc.a(lib_a-s_fpclassify.o)
                                        0x19b (size before relaxing)
 .debug_str     0x000000000000204a       0x3f c:/psdk3v2/ps3dev/ppu/bin/../lib/gcc/powerpc64-ps3-elf/4.5.2/../../../../powerpc64-ps3-elf/lib\libc.a(lib_a-sccl.o)
                                        0x14e (size before relaxing)
 .debug_str     0x0000000000002089       0x30 c:/psdk3v2/ps3dev/ppu/bin/../lib/gcc/powerpc64-ps3-elf/4.5.2/../../../../powerpc64-ps3-elf/lib\libc.a(lib_a-sf_nan.o)
                                        0x160 (size before relaxing)
 .debug_str     0x00000000000020b9       0x3e c:/psdk3v2/ps3dev/ppu/bin/../lib/gcc/powerpc64-ps3-elf/4.5.2/../../../../powerpc64-ps3-elf/lib\libc.a(lib_a-sprintf.o)
                                        0x595 (size before relaxing)
 .debug_str     0x00000000000020f7       0x32 c:/psdk3v2/ps3dev/ppu/bin/../lib/gcc/powerpc64-ps3-elf/4.5.2/../../../../powerpc64-ps3-elf/lib\libc.a(lib_a-strcmp.o)
                                        0x142 (size before relaxing)
 .debug_str     0x0000000000002129      0x1d7 c:/psdk3v2/ps3dev/ppu/bin/../lib/gcc/powerpc64-ps3-elf/4.5.2/../../../../powerpc64-ps3-elf/lib\libc.a(lib_a-strtod.o)
                                        0x74e (size before relaxing)
 .debug_str     0x0000000000002300       0x51 c:/psdk3v2/ps3dev/ppu/bin/../lib/gcc/powerpc64-ps3-elf/4.5.2/../../../../powerpc64-ps3-elf/lib\libc.a(lib_a-strtol.o)
                                        0x598 (size before relaxing)
 .debug_str     0x0000000000002351       0x39 c:/psdk3v2/ps3dev/ppu/bin/../lib/gcc/powerpc64-ps3-elf/4.5.2/../../../../powerpc64-ps3-elf/lib\libc.a(lib_a-strtoll_r.o)
                                        0x595 (size before relaxing)
 .debug_str     0x000000000000238a       0x3f c:/psdk3v2/ps3dev/ppu/bin/../lib/gcc/powerpc64-ps3-elf/4.5.2/../../../../powerpc64-ps3-elf/lib\libc.a(lib_a-strtoul.o)
                                        0x59b (size before relaxing)
 .debug_str     0x00000000000023c9       0x3b c:/psdk3v2/ps3dev/ppu/bin/../lib/gcc/powerpc64-ps3-elf/4.5.2/../../../../powerpc64-ps3-elf/lib\libc.a(lib_a-strtoull_r.o)
                                        0x597 (size before relaxing)
 .debug_str     0x0000000000002404       0x37 c:/psdk3v2/ps3dev/ppu/bin/../lib/gcc/powerpc64-ps3-elf/4.5.2/../../../../powerpc64-ps3-elf/lib\libc.a(lib_a-svfiscanf.o)
                                        0x6b3 (size before relaxing)
 .debug_str     0x000000000000243b      0x164 c:/psdk3v2/ps3dev/ppu/bin/../lib/gcc/powerpc64-ps3-elf/4.5.2/../../../../powerpc64-ps3-elf/lib\libc.a(lib_a-svfprintf.o)
                                        0x74c (size before relaxing)
 .debug_str     0x000000000000259f       0x45 c:/psdk3v2/ps3dev/ppu/bin/../lib/gcc/powerpc64-ps3-elf/4.5.2/../../../../powerpc64-ps3-elf/lib\libc.a(lib_a-ungetc.o)
                                        0x57f (size before relaxing)
 .debug_str     0x00000000000025e4       0xc9 c:/psdk3v2/ps3dev/ppu/bin/../lib/gcc/powerpc64-ps3-elf/4.5.2/../../../../powerpc64-ps3-elf/lib\libc.a(lib_a-dtoa.o)
                                        0x665 (size before relaxing)
 .debug_str     0x00000000000026ad       0x3b c:/psdk3v2/ps3dev/ppu/bin/../lib/gcc/powerpc64-ps3-elf/4.5.2/../../../../powerpc64-ps3-elf/lib\libc.a(lib_a-fclose.o)
                                        0x56e (size before relaxing)
 .debug_str     0x00000000000026e8       0x4c c:/psdk3v2/ps3dev/ppu/bin/../lib/gcc/powerpc64-ps3-elf/4.5.2/../../../../powerpc64-ps3-elf/lib\libc.a(lib_a-fflush.o)
                                        0x594 (size before relaxing)
 .debug_str     0x0000000000002734       0xde c:/psdk3v2/ps3dev/ppu/bin/../lib/gcc/powerpc64-ps3-elf/4.5.2/../../../../powerpc64-ps3-elf/lib\libc.a(lib_a-gdtoa-gethex.o)
                                        0x74a (size before relaxing)
 .debug_str     0x0000000000002812       0x42 c:/psdk3v2/ps3dev/ppu/bin/../lib/gcc/powerpc64-ps3-elf/4.5.2/../../../../powerpc64-ps3-elf/lib\libc.a(lib_a-gdtoa-hexnan.o)
                                        0x278 (size before relaxing)
 .debug_str     0x0000000000002854       0x67 c:/psdk3v2/ps3dev/ppu/bin/../lib/gcc/powerpc64-ps3-elf/4.5.2/../../../../powerpc64-ps3-elf/lib\libc.a(lib_a-lock_internal.o)
                                        0x23f (size before relaxing)
 .debug_str     0x00000000000028bb       0x40 c:/psdk3v2/ps3dev/ppu/bin/../lib/gcc/powerpc64-ps3-elf/4.5.2/../../../../powerpc64-ps3-elf/lib\libc.a(lib_a-memchr.o)
                                        0x163 (size before relaxing)
 .debug_str     0x00000000000028fb       0xe8 c:/psdk3v2/ps3dev/ppu/bin/../lib/gcc/powerpc64-ps3-elf/4.5.2/../../../../powerpc64-ps3-elf/lib\libc.a(lib_a-mprec.o)
                                        0x672 (size before relaxing)
 .debug_str     0x00000000000029e3       0x54 c:/psdk3v2/ps3dev/ppu/bin/../lib/gcc/powerpc64-ps3-elf/4.5.2/../../../../powerpc64-ps3-elf/lib\libc.a(lib_a-reallocr.o)
                                        0x627 (size before relaxing)
 .debug_str     0x0000000000002a37       0x34 c:/psdk3v2/ps3dev/ppu/bin/../lib/gcc/powerpc64-ps3-elf/4.5.2/../../../../powerpc64-ps3-elf/lib\libc.a(lib_a-strncmp.o)
                                        0x14b (size before relaxing)
 .debug_str     0x0000000000002a6b       0x21 c:/psdk3v2/ps3dev/ppu/bin/../lib/gcc/powerpc64-ps3-elf/4.5.2/../../../../powerpc64-ps3-elf/lib\libc.a(lib_a-svfiprintf.o)
                                        0x6bf (size before relaxing)
 .debug_str     0x0000000000002a8c       0x30 c:/psdk3v2/ps3dev/ppu/bin/../lib/gcc/powerpc64-ps3-elf/4.5.2/../../../../powerpc64-ps3-elf/lib\libc.a(lib_a-abort.o)
                                        0x140 (size before relaxing)
 .debug_str     0x0000000000002abc       0x19 c:/psdk3v2/ps3dev/ppu/bin/../lib/gcc/powerpc64-ps3-elf/4.5.2/../../../../powerpc64-ps3-elf/lib\libc.a(lib_a-callocr.o)
                                        0x5a6 (size before relaxing)
 .debug_str     0x0000000000002ad5       0x3d c:/psdk3v2/ps3dev/ppu/bin/../lib/gcc/powerpc64-ps3-elf/4.5.2/../../../../powerpc64-ps3-elf/lib\libc.a(lib_a-memmove.o)
                                        0x17c (size before relaxing)
 .debug_str     0x0000000000002b12      0x100 c:/psdk3v2/ps3dev/ppu/bin/../lib/gcc/powerpc64-ps3-elf/4.5.2/../../../../powerpc64-ps3-elf/lib\libc.a(lib_a-signal.o)
                                        0x5c5 (size before relaxing)
 .debug_str     0x0000000000002c12       0x31 c:/psdk3v2/ps3dev/ppu/bin/../lib/gcc/powerpc64-ps3-elf/4.5.2/../../../../powerpc64-ps3-elf/lib\libsysbase.a(close.o)
                                        0x9e7 (size before relaxing)
 .debug_str     0x0000000000002c43       0x34 c:/psdk3v2/ps3dev/ppu/bin/../lib/gcc/powerpc64-ps3-elf/4.5.2/../../../../powerpc64-ps3-elf/lib\libsysbase.a(sbrk.o)
                                        0x9ea (size before relaxing)
 .debug_str     0x0000000000002c77       0x2e c:/psdk3v2/ps3dev/ppu/bin/../lib/gcc/powerpc64-ps3-elf/4.5.2/../../../../powerpc64-ps3-elf/lib\libsysbase.a(_exit.o)
                                        0x9e4 (size before relaxing)
 .debug_str     0x0000000000002ca5       0x31 c:/psdk3v2/ps3dev/ppu/bin/../lib/gcc/powerpc64-ps3-elf/4.5.2/../../../../powerpc64-ps3-elf/lib\libsysbase.a(lseek.o)
                                        0x9e7 (size before relaxing)
 .debug_str     0x0000000000002cd6       0x2f c:/psdk3v2/ps3dev/ppu/bin/../lib/gcc/powerpc64-ps3-elf/4.5.2/../../../../powerpc64-ps3-elf/lib\libsysbase.a(read.o)
                                        0x9e5 (size before relaxing)
 .debug_str     0x0000000000002d05       0x31 c:/psdk3v2/ps3dev/ppu/bin/../lib/gcc/powerpc64-ps3-elf/4.5.2/../../../../powerpc64-ps3-elf/lib\libsysbase.a(write.o)
                                        0x9e7 (size before relaxing)
 .debug_str     0x0000000000002d36       0x8e c:/psdk3v2/ps3dev/ppu/bin/../lib/gcc/powerpc64-ps3-elf/4.5.2/../../../../powerpc64-ps3-elf/lib\libsysbase.a(lock.o)
                                        0xa51 (size before relaxing)
 .debug_str     0x0000000000002dc4       0x33 c:/psdk3v2/ps3dev/ppu/bin/../lib/gcc/powerpc64-ps3-elf/4.5.2/../../../../powerpc64-ps3-elf/lib\libsysbase.a(getpid.o)
                                        0x9e9 (size before relaxing)
 .debug_str     0x0000000000002df7       0x2f c:/psdk3v2/ps3dev/ppu/bin/../lib/gcc/powerpc64-ps3-elf/4.5.2/../../../../powerpc64-ps3-elf/lib\libsysbase.a(kill.o)
                                        0x55a (size before relaxing)

.debug_loc      0x0000000000000000    0x20ca4
 *(.debug_loc)
 .debug_loc     0x0000000000000000      0x2bd c:/psdk3v2/ps3dev/ppu/bin/../lib/gcc/powerpc64-ps3-elf/4.5.2/../../../../powerpc64-ps3-elf/lib\libm.a(lib_a-s_sqrt.o)
 .debug_loc     0x00000000000002bd       0x71 c:/psdk3v2/ps3dev/ppu/bin/../lib/gcc/powerpc64-ps3-elf/4.5.2/../../../../powerpc64-ps3-elf/lib\libm.a(lib_a-sf_cos.o)
 .debug_loc     0x000000000000032e       0x71 c:/psdk3v2/ps3dev/ppu/bin/../lib/gcc/powerpc64-ps3-elf/4.5.2/../../../../powerpc64-ps3-elf/lib\libm.a(lib_a-sf_sin.o)
 .debug_loc     0x000000000000039f      0x30c c:/psdk3v2/ps3dev/ppu/bin/../lib/gcc/powerpc64-ps3-elf/4.5.2/../../../../powerpc64-ps3-elf/lib\libm.a(lib_a-sf_sine.o)
 .debug_loc     0x00000000000006ab      0x295 c:/psdk3v2/ps3dev/ppu/bin/../lib/gcc/powerpc64-ps3-elf/4.5.2/../../../../powerpc64-ps3-elf/lib\libm.a(lib_a-sf_sqrt.o)
 .debug_loc     0x0000000000000940      0x2c7 c:/psdk3v2/ps3dev/ppu/bin/../lib/gcc/powerpc64-ps3-elf/4.5.2/../../../../powerpc64-ps3-elf/lib\libm.a(lib_a-sf_tan.o)
 .debug_loc     0x0000000000000c07      0x1e2 c:/psdk3v2/ps3dev/ppu/bin/../lib/gcc/powerpc64-ps3-elf/4.5.2/../../../../powerpc64-ps3-elf/lib\libm.a(lib_a-s_frexp.o)
 .debug_loc     0x0000000000000de9      0x338 c:/psdk3v2/ps3dev/ppu/bin/../lib/gcc/powerpc64-ps3-elf/4.5.2/../../../../powerpc64-ps3-elf/lib\libm.a(lib_a-s_ldexp.o)
 .debug_loc     0x0000000000001121       0x96 c:/psdk3v2/ps3dev/ppu/bin/../lib/gcc/powerpc64-ps3-elf/4.5.2/../../../../powerpc64-ps3-elf/lib\libm.a(lib_a-s_numtest.o)
 .debug_loc     0x00000000000011b7      0x164 c:/psdk3v2/ps3dev/ppu/bin/../lib/gcc/powerpc64-ps3-elf/4.5.2/../../../../powerpc64-ps3-elf/lib\libm.a(lib_a-sf_fabs.o)
 .debug_loc     0x000000000000131b      0x16c c:/psdk3v2/ps3dev/ppu/bin/../lib/gcc/powerpc64-ps3-elf/4.5.2/../../../../powerpc64-ps3-elf/lib\libm.a(lib_a-sf_frexp.o)
 .debug_loc     0x0000000000001487      0x254 c:/psdk3v2/ps3dev/ppu/bin/../lib/gcc/powerpc64-ps3-elf/4.5.2/../../../../powerpc64-ps3-elf/lib\libm.a(lib_a-sf_ldexp.o)
 .debug_loc     0x00000000000016db      0x1d6 c:/psdk3v2/ps3dev/ppu/bin/../lib/gcc/powerpc64-ps3-elf/4.5.2/../../../../powerpc64-ps3-elf/lib\libsysbase.a(sleep.o)
 .debug_loc     0x00000000000018b1       0x83 c:/psdk3v2/ps3dev/ppu/bin/../lib/gcc/powerpc64-ps3-elf/4.5.2/../../../../powerpc64-ps3-elf/lib\libc.a(lib_a-atexit.o)
 .debug_loc     0x0000000000001934       0x4d c:/psdk3v2/ps3dev/ppu/bin/../lib/gcc/powerpc64-ps3-elf/4.5.2/../../../../powerpc64-ps3-elf/lib\libc.a(lib_a-errno.o)
 .debug_loc     0x0000000000001981       0x5c c:/psdk3v2/ps3dev/ppu/bin/../lib/gcc/powerpc64-ps3-elf/4.5.2/../../../../powerpc64-ps3-elf/lib\libc.a(lib_a-exit.o)
 .debug_loc     0x00000000000019dd       0xc8 c:/psdk3v2/ps3dev/ppu/bin/../lib/gcc/powerpc64-ps3-elf/4.5.2/../../../../powerpc64-ps3-elf/lib\libc.a(lib_a-getreent.o)
 .debug_loc     0x0000000000001aa5       0xb9 c:/psdk3v2/ps3dev/ppu/bin/../lib/gcc/powerpc64-ps3-elf/4.5.2/../../../../powerpc64-ps3-elf/lib\libc.a(lib_a-malign.o)
 .debug_loc     0x0000000000001b5e      0x424 c:/psdk3v2/ps3dev/ppu/bin/../lib/gcc/powerpc64-ps3-elf/4.5.2/../../../../powerpc64-ps3-elf/lib\libc.a(lib_a-malignr.o)
 .debug_loc     0x0000000000001f82      0x106 c:/psdk3v2/ps3dev/ppu/bin/../lib/gcc/powerpc64-ps3-elf/4.5.2/../../../../powerpc64-ps3-elf/lib\libc.a(lib_a-malloc.o)
 .debug_loc     0x0000000000002088     0x11b0 c:/psdk3v2/ps3dev/ppu/bin/../lib/gcc/powerpc64-ps3-elf/4.5.2/../../../../powerpc64-ps3-elf/lib\libc.a(lib_a-mallocr.o)
 .debug_loc     0x0000000000003238      0x24d c:/psdk3v2/ps3dev/ppu/bin/../lib/gcc/powerpc64-ps3-elf/4.5.2/../../../../powerpc64-ps3-elf/lib\libc.a(lib_a-memcpy.o)
 .debug_loc     0x0000000000003485      0x2a9 c:/psdk3v2/ps3dev/ppu/bin/../lib/gcc/powerpc64-ps3-elf/4.5.2/../../../../powerpc64-ps3-elf/lib\libc.a(lib_a-memset.o)
 .debug_loc     0x000000000000372e       0xe0 c:/psdk3v2/ps3dev/ppu/bin/../lib/gcc/powerpc64-ps3-elf/4.5.2/../../../../powerpc64-ps3-elf/lib\libc.a(lib_a-mlock.o)
 .debug_loc     0x000000000000380e      0x16f c:/psdk3v2/ps3dev/ppu/bin/../lib/gcc/powerpc64-ps3-elf/4.5.2/../../../../powerpc64-ps3-elf/lib\libc.a(lib_a-sscanf.o)
 .debug_loc     0x000000000000397d      0x4dd c:/psdk3v2/ps3dev/ppu/bin/../lib/gcc/powerpc64-ps3-elf/4.5.2/../../../../powerpc64-ps3-elf/lib\libc.a(lib_a-stdio.o)
 .debug_loc     0x0000000000003e5a      0x1b2 c:/psdk3v2/ps3dev/ppu/bin/../lib/gcc/powerpc64-ps3-elf/4.5.2/../../../../powerpc64-ps3-elf/lib\libc.a(lib_a-strcasecmp.o)
 .debug_loc     0x000000000000400c      0x13e c:/psdk3v2/ps3dev/ppu/bin/../lib/gcc/powerpc64-ps3-elf/4.5.2/../../../../powerpc64-ps3-elf/lib\libc.a(lib_a-strlen.o)
 .debug_loc     0x000000000000414a      0x1f5 c:/psdk3v2/ps3dev/ppu/bin/../lib/gcc/powerpc64-ps3-elf/4.5.2/../../../../powerpc64-ps3-elf/lib\libc.a(lib_a-strncpy.o)
 .debug_loc     0x000000000000433f     0x2535 c:/psdk3v2/ps3dev/ppu/bin/../lib/gcc/powerpc64-ps3-elf/4.5.2/../../../../powerpc64-ps3-elf/lib\libc.a(lib_a-svfscanf.o)
 .debug_loc     0x0000000000006874      0x1f5 c:/psdk3v2/ps3dev/ppu/bin/../lib/gcc/powerpc64-ps3-elf/4.5.2/../../../../powerpc64-ps3-elf/lib\libc.a(lib_a-__atexit.o)
 .debug_loc     0x0000000000006a69      0x287 c:/psdk3v2/ps3dev/ppu/bin/../lib/gcc/powerpc64-ps3-elf/4.5.2/../../../../powerpc64-ps3-elf/lib\libc.a(lib_a-__call_atexit.o)
 .debug_loc     0x0000000000006cf0      0x7e6 c:/psdk3v2/ps3dev/ppu/bin/../lib/gcc/powerpc64-ps3-elf/4.5.2/../../../../powerpc64-ps3-elf/lib\libc.a(lib_a-findfp.o)
 .debug_loc     0x00000000000074d6      0x79a c:/psdk3v2/ps3dev/ppu/bin/../lib/gcc/powerpc64-ps3-elf/4.5.2/../../../../powerpc64-ps3-elf/lib\libc.a(lib_a-freer.o)
 .debug_loc     0x0000000000007c70      0x566 c:/psdk3v2/ps3dev/ppu/bin/../lib/gcc/powerpc64-ps3-elf/4.5.2/../../../../powerpc64-ps3-elf/lib\libc.a(lib_a-fwalk.o)
 .debug_loc     0x00000000000081d6       0x23 c:/psdk3v2/ps3dev/ppu/bin/../lib/gcc/powerpc64-ps3-elf/4.5.2/../../../../powerpc64-ps3-elf/lib\libc.a(lib_a-iswspace.o)
 .debug_loc     0x00000000000081f9      0x21a c:/psdk3v2/ps3dev/ppu/bin/../lib/gcc/powerpc64-ps3-elf/4.5.2/../../../../powerpc64-ps3-elf/lib\libc.a(lib_a-locale.o)
 .debug_loc     0x0000000000008413      0x269 c:/psdk3v2/ps3dev/ppu/bin/../lib/gcc/powerpc64-ps3-elf/4.5.2/../../../../powerpc64-ps3-elf/lib\libc.a(lib_a-lock_recursive.o)
 .debug_loc     0x000000000000867c      0x4f8 c:/psdk3v2/ps3dev/ppu/bin/../lib/gcc/powerpc64-ps3-elf/4.5.2/../../../../powerpc64-ps3-elf/lib\libc.a(lib_a-mbrtowc.o)
 .debug_loc     0x0000000000008b74      0x18e c:/psdk3v2/ps3dev/ppu/bin/../lib/gcc/powerpc64-ps3-elf/4.5.2/../../../../powerpc64-ps3-elf/lib\libc.a(lib_a-mbtowc_r.o)
 .debug_loc     0x0000000000008d02       0x23 c:/psdk3v2/ps3dev/ppu/bin/../lib/gcc/powerpc64-ps3-elf/4.5.2/../../../../powerpc64-ps3-elf/lib\libc.a(lib_a-s_fpclassify.o)
 .debug_loc     0x0000000000008d25      0x242 c:/psdk3v2/ps3dev/ppu/bin/../lib/gcc/powerpc64-ps3-elf/4.5.2/../../../../powerpc64-ps3-elf/lib\libc.a(lib_a-sccl.o)
 .debug_loc     0x0000000000008f67      0x16f c:/psdk3v2/ps3dev/ppu/bin/../lib/gcc/powerpc64-ps3-elf/4.5.2/../../../../powerpc64-ps3-elf/lib\libc.a(lib_a-sprintf.o)
 .debug_loc     0x00000000000090d6      0x18f c:/psdk3v2/ps3dev/ppu/bin/../lib/gcc/powerpc64-ps3-elf/4.5.2/../../../../powerpc64-ps3-elf/lib\libc.a(lib_a-strcmp.o)
 .debug_loc     0x0000000000009265     0x2e39 c:/psdk3v2/ps3dev/ppu/bin/../lib/gcc/powerpc64-ps3-elf/4.5.2/../../../../powerpc64-ps3-elf/lib\libc.a(lib_a-strtod.o)
 .debug_loc     0x000000000000c09e      0x60d c:/psdk3v2/ps3dev/ppu/bin/../lib/gcc/powerpc64-ps3-elf/4.5.2/../../../../powerpc64-ps3-elf/lib\libc.a(lib_a-strtol.o)
 .debug_loc     0x000000000000c6ab      0x50b c:/psdk3v2/ps3dev/ppu/bin/../lib/gcc/powerpc64-ps3-elf/4.5.2/../../../../powerpc64-ps3-elf/lib\libc.a(lib_a-strtoll_r.o)
 .debug_loc     0x000000000000cbb6      0x4ef c:/psdk3v2/ps3dev/ppu/bin/../lib/gcc/powerpc64-ps3-elf/4.5.2/../../../../powerpc64-ps3-elf/lib\libc.a(lib_a-strtoul.o)
 .debug_loc     0x000000000000d0a5      0x3ed c:/psdk3v2/ps3dev/ppu/bin/../lib/gcc/powerpc64-ps3-elf/4.5.2/../../../../powerpc64-ps3-elf/lib\libc.a(lib_a-strtoull_r.o)
 .debug_loc     0x000000000000d492     0x2233 c:/psdk3v2/ps3dev/ppu/bin/../lib/gcc/powerpc64-ps3-elf/4.5.2/../../../../powerpc64-ps3-elf/lib\libc.a(lib_a-svfiscanf.o)
 .debug_loc     0x000000000000f6c5     0x3930 c:/psdk3v2/ps3dev/ppu/bin/../lib/gcc/powerpc64-ps3-elf/4.5.2/../../../../powerpc64-ps3-elf/lib\libc.a(lib_a-svfprintf.o)
 .debug_loc     0x0000000000012ff5      0x443 c:/psdk3v2/ps3dev/ppu/bin/../lib/gcc/powerpc64-ps3-elf/4.5.2/../../../../powerpc64-ps3-elf/lib\libc.a(lib_a-ungetc.o)
 .debug_loc     0x0000000000013438     0x35a1 c:/psdk3v2/ps3dev/ppu/bin/../lib/gcc/powerpc64-ps3-elf/4.5.2/../../../../powerpc64-ps3-elf/lib\libc.a(lib_a-dtoa.o)
 .debug_loc     0x00000000000169d9      0x235 c:/psdk3v2/ps3dev/ppu/bin/../lib/gcc/powerpc64-ps3-elf/4.5.2/../../../../powerpc64-ps3-elf/lib\libc.a(lib_a-fclose.o)
 .debug_loc     0x0000000000016c0e      0x490 c:/psdk3v2/ps3dev/ppu/bin/../lib/gcc/powerpc64-ps3-elf/4.5.2/../../../../powerpc64-ps3-elf/lib\libc.a(lib_a-fflush.o)
 .debug_loc     0x000000000001709e     0x175d c:/psdk3v2/ps3dev/ppu/bin/../lib/gcc/powerpc64-ps3-elf/4.5.2/../../../../powerpc64-ps3-elf/lib\libc.a(lib_a-gdtoa-gethex.o)
 .debug_loc     0x00000000000187fb      0x73b c:/psdk3v2/ps3dev/ppu/bin/../lib/gcc/powerpc64-ps3-elf/4.5.2/../../../../powerpc64-ps3-elf/lib\libc.a(lib_a-gdtoa-hexnan.o)
 .debug_loc     0x0000000000018f36      0x10d c:/psdk3v2/ps3dev/ppu/bin/../lib/gcc/powerpc64-ps3-elf/4.5.2/../../../../powerpc64-ps3-elf/lib\libc.a(lib_a-lock_internal.o)
 .debug_loc     0x0000000000019043      0x26a c:/psdk3v2/ps3dev/ppu/bin/../lib/gcc/powerpc64-ps3-elf/4.5.2/../../../../powerpc64-ps3-elf/lib\libc.a(lib_a-memchr.o)
 .debug_loc     0x00000000000192ad     0x2b85 c:/psdk3v2/ps3dev/ppu/bin/../lib/gcc/powerpc64-ps3-elf/4.5.2/../../../../powerpc64-ps3-elf/lib\libc.a(lib_a-mprec.o)
 .debug_loc     0x000000000001be32     0x12d3 c:/psdk3v2/ps3dev/ppu/bin/../lib/gcc/powerpc64-ps3-elf/4.5.2/../../../../powerpc64-ps3-elf/lib\libc.a(lib_a-reallocr.o)
 .debug_loc     0x000000000001d105      0x292 c:/psdk3v2/ps3dev/ppu/bin/../lib/gcc/powerpc64-ps3-elf/4.5.2/../../../../powerpc64-ps3-elf/lib\libc.a(lib_a-strncmp.o)
 .debug_loc     0x000000000001d397     0x1f86 c:/psdk3v2/ps3dev/ppu/bin/../lib/gcc/powerpc64-ps3-elf/4.5.2/../../../../powerpc64-ps3-elf/lib\libc.a(lib_a-svfiprintf.o)
 .debug_loc     0x000000000001f31d       0x39 c:/psdk3v2/ps3dev/ppu/bin/../lib/gcc/powerpc64-ps3-elf/4.5.2/../../../../powerpc64-ps3-elf/lib\libc.a(lib_a-abort.o)
 .debug_loc     0x000000000001f356      0x320 c:/psdk3v2/ps3dev/ppu/bin/../lib/gcc/powerpc64-ps3-elf/4.5.2/../../../../powerpc64-ps3-elf/lib\libc.a(lib_a-callocr.o)
 .debug_loc     0x000000000001f676      0x2c4 c:/psdk3v2/ps3dev/ppu/bin/../lib/gcc/powerpc64-ps3-elf/4.5.2/../../../../powerpc64-ps3-elf/lib\libc.a(lib_a-memmove.o)
 .debug_loc     0x000000000001f93a      0x72d c:/psdk3v2/ps3dev/ppu/bin/../lib/gcc/powerpc64-ps3-elf/4.5.2/../../../../powerpc64-ps3-elf/lib\libc.a(lib_a-signal.o)
 .debug_loc     0x0000000000020067       0xe1 c:/psdk3v2/ps3dev/ppu/bin/../lib/gcc/powerpc64-ps3-elf/4.5.2/../../../../powerpc64-ps3-elf/lib\libsysbase.a(close.o)
 .debug_loc     0x0000000000020148       0xf5 c:/psdk3v2/ps3dev/ppu/bin/../lib/gcc/powerpc64-ps3-elf/4.5.2/../../../../powerpc64-ps3-elf/lib\libsysbase.a(sbrk.o)
 .debug_loc     0x000000000002023d       0x5c c:/psdk3v2/ps3dev/ppu/bin/../lib/gcc/powerpc64-ps3-elf/4.5.2/../../../../powerpc64-ps3-elf/lib\libsysbase.a(_exit.o)
 .debug_loc     0x0000000000020299      0x14d c:/psdk3v2/ps3dev/ppu/bin/../lib/gcc/powerpc64-ps3-elf/4.5.2/../../../../powerpc64-ps3-elf/lib\libsysbase.a(lseek.o)
 .debug_loc     0x00000000000203e6      0x14d c:/psdk3v2/ps3dev/ppu/bin/../lib/gcc/powerpc64-ps3-elf/4.5.2/../../../../powerpc64-ps3-elf/lib\libsysbase.a(read.o)
 .debug_loc     0x0000000000020533      0x14d c:/psdk3v2/ps3dev/ppu/bin/../lib/gcc/powerpc64-ps3-elf/4.5.2/../../../../powerpc64-ps3-elf/lib\libsysbase.a(write.o)
 .debug_loc     0x0000000000020680      0x556 c:/psdk3v2/ps3dev/ppu/bin/../lib/gcc/powerpc64-ps3-elf/4.5.2/../../../../powerpc64-ps3-elf/lib\libsysbase.a(lock.o)
 .debug_loc     0x0000000000020bd6       0xab c:/psdk3v2/ps3dev/ppu/bin/../lib/gcc/powerpc64-ps3-elf/4.5.2/../../../../powerpc64-ps3-elf/lib\libsysbase.a(getpid.o)
 .debug_loc     0x0000000000020c81       0x23 c:/psdk3v2/ps3dev/ppu/bin/../lib/gcc/powerpc64-ps3-elf/4.5.2/../../../../powerpc64-ps3-elf/lib\libsysbase.a(kill.o)

.debug_macinfo
 *(.debug_macinfo)

.debug_weaknames
 *(.debug_weaknames)

.debug_funcnames
 *(.debug_funcnames)

.debug_typenames
 *(.debug_typenames)

.debug_varnames
 *(.debug_varnames)

.debug_pubtypes
                0x0000000000000000     0x4f81
 *(.debug_pubtypes)
 .debug_pubtypes
                0x0000000000000000       0x12 c:/psdk3v2/ps3dev/ppu/bin/../lib/gcc/powerpc64-ps3-elf/4.5.2/../../../../powerpc64-ps3-elf/lib\libm.a(lib_a-s_sqrt.o)
 .debug_pubtypes
                0x0000000000000012       0x12 c:/psdk3v2/ps3dev/ppu/bin/../lib/gcc/powerpc64-ps3-elf/4.5.2/../../../../powerpc64-ps3-elf/lib\libm.a(lib_a-sf_cos.o)
 .debug_pubtypes
                0x0000000000000024       0x12 c:/psdk3v2/ps3dev/ppu/bin/../lib/gcc/powerpc64-ps3-elf/4.5.2/../../../../powerpc64-ps3-elf/lib\libm.a(lib_a-sf_sin.o)
 .debug_pubtypes
                0x0000000000000036       0x12 c:/psdk3v2/ps3dev/ppu/bin/../lib/gcc/powerpc64-ps3-elf/4.5.2/../../../../powerpc64-ps3-elf/lib\libm.a(lib_a-sf_sine.o)
 .debug_pubtypes
                0x0000000000000048       0x12 c:/psdk3v2/ps3dev/ppu/bin/../lib/gcc/powerpc64-ps3-elf/4.5.2/../../../../powerpc64-ps3-elf/lib\libm.a(lib_a-sf_sqrt.o)
 .debug_pubtypes
                0x000000000000005a       0x12 c:/psdk3v2/ps3dev/ppu/bin/../lib/gcc/powerpc64-ps3-elf/4.5.2/../../../../powerpc64-ps3-elf/lib\libm.a(lib_a-sf_tan.o)
 .debug_pubtypes
                0x000000000000006c       0x3c c:/psdk3v2/ps3dev/ppu/bin/../lib/gcc/powerpc64-ps3-elf/4.5.2/../../../../powerpc64-ps3-elf/lib\libm.a(lib_a-s_frexp.o)
 .debug_pubtypes
                0x00000000000000a8       0x3c c:/psdk3v2/ps3dev/ppu/bin/../lib/gcc/powerpc64-ps3-elf/4.5.2/../../../../powerpc64-ps3-elf/lib\libm.a(lib_a-s_ispos.o)
 .debug_pubtypes
                0x00000000000000e4       0x3c c:/psdk3v2/ps3dev/ppu/bin/../lib/gcc/powerpc64-ps3-elf/4.5.2/../../../../powerpc64-ps3-elf/lib\libm.a(lib_a-s_ldexp.o)
 .debug_pubtypes
                0x0000000000000120       0x12 c:/psdk3v2/ps3dev/ppu/bin/../lib/gcc/powerpc64-ps3-elf/4.5.2/../../../../powerpc64-ps3-elf/lib\libm.a(lib_a-s_mathcnst.o)
 .debug_pubtypes
                0x0000000000000132       0x3c c:/psdk3v2/ps3dev/ppu/bin/../lib/gcc/powerpc64-ps3-elf/4.5.2/../../../../powerpc64-ps3-elf/lib\libm.a(lib_a-s_numtest.o)
 .debug_pubtypes
                0x000000000000016e       0x12 c:/psdk3v2/ps3dev/ppu/bin/../lib/gcc/powerpc64-ps3-elf/4.5.2/../../../../powerpc64-ps3-elf/lib\libm.a(lib_a-sf_fabs.o)
 .debug_pubtypes
                0x0000000000000180       0x49 c:/psdk3v2/ps3dev/ppu/bin/../lib/gcc/powerpc64-ps3-elf/4.5.2/../../../../powerpc64-ps3-elf/lib\libm.a(lib_a-sf_frexp.o)
 .debug_pubtypes
                0x00000000000001c9       0x20 c:/psdk3v2/ps3dev/ppu/bin/../lib/gcc/powerpc64-ps3-elf/4.5.2/../../../../powerpc64-ps3-elf/lib\libm.a(lib_a-sf_ispos.o)
 .debug_pubtypes
                0x00000000000001e9       0x49 c:/psdk3v2/ps3dev/ppu/bin/../lib/gcc/powerpc64-ps3-elf/4.5.2/../../../../powerpc64-ps3-elf/lib\libm.a(lib_a-sf_ldexp.o)
 .debug_pubtypes
                0x0000000000000232       0x20 c:/psdk3v2/ps3dev/ppu/bin/../lib/gcc/powerpc64-ps3-elf/4.5.2/../../../../powerpc64-ps3-elf/lib\libm.a(lib_a-sf_numtest.o)
 .debug_pubtypes
                0x0000000000000252      0x2d1 c:/psdk3v2/ps3dev/ppu/bin/../lib/gcc/powerpc64-ps3-elf/4.5.2/../../../../powerpc64-ps3-elf/lib\libsysbase.a(syscalls.o)
 .debug_pubtypes
                0x0000000000000523      0x2d1 c:/psdk3v2/ps3dev/ppu/bin/../lib/gcc/powerpc64-ps3-elf/4.5.2/../../../../powerpc64-ps3-elf/lib\libsysbase.a(sleep.o)
 .debug_pubtypes
                0x00000000000007f4       0x25 c:/psdk3v2/ps3dev/ppu/bin/../lib/gcc/powerpc64-ps3-elf/4.5.2/../../../../powerpc64-ps3-elf/lib\libc.a(lib_a-atexit.o)
 .debug_pubtypes
                0x0000000000000819       0x12 c:/psdk3v2/ps3dev/ppu/bin/../lib/gcc/powerpc64-ps3-elf/4.5.2/../../../../powerpc64-ps3-elf/lib\libc.a(lib_a-errno.o)
 .debug_pubtypes
                0x000000000000082b      0x124 c:/psdk3v2/ps3dev/ppu/bin/../lib/gcc/powerpc64-ps3-elf/4.5.2/../../../../powerpc64-ps3-elf/lib\libc.a(lib_a-exit.o)
 .debug_pubtypes
                0x000000000000094f      0x124 c:/psdk3v2/ps3dev/ppu/bin/../lib/gcc/powerpc64-ps3-elf/4.5.2/../../../../powerpc64-ps3-elf/lib\libc.a(lib_a-getreent.o)
 .debug_pubtypes
                0x0000000000000a73      0x124 c:/psdk3v2/ps3dev/ppu/bin/../lib/gcc/powerpc64-ps3-elf/4.5.2/../../../../powerpc64-ps3-elf/lib\libc.a(lib_a-impure.o)
 .debug_pubtypes
                0x0000000000000b97       0x1d c:/psdk3v2/ps3dev/ppu/bin/../lib/gcc/powerpc64-ps3-elf/4.5.2/../../../../powerpc64-ps3-elf/lib\libc.a(lib_a-malign.o)
 .debug_pubtypes
                0x0000000000000bb4      0x14e c:/psdk3v2/ps3dev/ppu/bin/../lib/gcc/powerpc64-ps3-elf/4.5.2/../../../../powerpc64-ps3-elf/lib\libc.a(lib_a-malignr.o)
 .debug_pubtypes
                0x0000000000000d02       0x1d c:/psdk3v2/ps3dev/ppu/bin/../lib/gcc/powerpc64-ps3-elf/4.5.2/../../../../powerpc64-ps3-elf/lib\libc.a(lib_a-malloc.o)
 .debug_pubtypes
                0x0000000000000d1f      0x167 c:/psdk3v2/ps3dev/ppu/bin/../lib/gcc/powerpc64-ps3-elf/4.5.2/../../../../powerpc64-ps3-elf/lib\libc.a(lib_a-mallocr.o)
 .debug_pubtypes
                0x0000000000000e86       0x1d c:/psdk3v2/ps3dev/ppu/bin/../lib/gcc/powerpc64-ps3-elf/4.5.2/../../../../powerpc64-ps3-elf/lib\libc.a(lib_a-memcpy.o)
 .debug_pubtypes
                0x0000000000000ea3       0x1d c:/psdk3v2/ps3dev/ppu/bin/../lib/gcc/powerpc64-ps3-elf/4.5.2/../../../../powerpc64-ps3-elf/lib\libc.a(lib_a-memset.o)
 .debug_pubtypes
                0x0000000000000ec0      0x124 c:/psdk3v2/ps3dev/ppu/bin/../lib/gcc/powerpc64-ps3-elf/4.5.2/../../../../powerpc64-ps3-elf/lib\libc.a(lib_a-mlock.o)
 .debug_pubtypes
                0x0000000000000fe4      0x14c c:/psdk3v2/ps3dev/ppu/bin/../lib/gcc/powerpc64-ps3-elf/4.5.2/../../../../powerpc64-ps3-elf/lib\libc.a(lib_a-sscanf.o)
 .debug_pubtypes
                0x0000000000001130      0x138 c:/psdk3v2/ps3dev/ppu/bin/../lib/gcc/powerpc64-ps3-elf/4.5.2/../../../../powerpc64-ps3-elf/lib\libc.a(lib_a-stdio.o)
 .debug_pubtypes
                0x0000000000001268       0x12 c:/psdk3v2/ps3dev/ppu/bin/../lib/gcc/powerpc64-ps3-elf/4.5.2/../../../../powerpc64-ps3-elf/lib\libc.a(lib_a-strcasecmp.o)
 .debug_pubtypes
                0x000000000000127a       0x1d c:/psdk3v2/ps3dev/ppu/bin/../lib/gcc/powerpc64-ps3-elf/4.5.2/../../../../powerpc64-ps3-elf/lib\libc.a(lib_a-strlen.o)
 .debug_pubtypes
                0x0000000000001297       0x1d c:/psdk3v2/ps3dev/ppu/bin/../lib/gcc/powerpc64-ps3-elf/4.5.2/../../../../powerpc64-ps3-elf/lib\libc.a(lib_a-strncpy.o)
 .debug_pubtypes
                0x00000000000012b4      0x18f c:/psdk3v2/ps3dev/ppu/bin/../lib/gcc/powerpc64-ps3-elf/4.5.2/../../../../powerpc64-ps3-elf/lib\libc.a(lib_a-svfscanf.o)
 .debug_pubtypes
                0x0000000000001443      0x137 c:/psdk3v2/ps3dev/ppu/bin/../lib/gcc/powerpc64-ps3-elf/4.5.2/../../../../powerpc64-ps3-elf/lib\libc.a(lib_a-__atexit.o)
 .debug_pubtypes
                0x000000000000157a      0x124 c:/psdk3v2/ps3dev/ppu/bin/../lib/gcc/powerpc64-ps3-elf/4.5.2/../../../../powerpc64-ps3-elf/lib\libc.a(lib_a-__call_atexit.o)
 .debug_pubtypes
                0x000000000000169e      0x12d c:/psdk3v2/ps3dev/ppu/bin/../lib/gcc/powerpc64-ps3-elf/4.5.2/../../../../powerpc64-ps3-elf/lib\libc.a(lib_a-findfp.o)
 .debug_pubtypes
                0x00000000000017cb      0x167 c:/psdk3v2/ps3dev/ppu/bin/../lib/gcc/powerpc64-ps3-elf/4.5.2/../../../../powerpc64-ps3-elf/lib\libc.a(lib_a-freer.o)
 .debug_pubtypes
                0x0000000000001932      0x12d c:/psdk3v2/ps3dev/ppu/bin/../lib/gcc/powerpc64-ps3-elf/4.5.2/../../../../powerpc64-ps3-elf/lib\libc.a(lib_a-fwalk.o)
 .debug_pubtypes
                0x0000000000001a5f       0x1d c:/psdk3v2/ps3dev/ppu/bin/../lib/gcc/powerpc64-ps3-elf/4.5.2/../../../../powerpc64-ps3-elf/lib\libc.a(lib_a-iswspace.o)
 .debug_pubtypes
                0x0000000000001a7c      0x12e c:/psdk3v2/ps3dev/ppu/bin/../lib/gcc/powerpc64-ps3-elf/4.5.2/../../../../powerpc64-ps3-elf/lib\libc.a(lib_a-locale.o)
 .debug_pubtypes
                0x0000000000001baa       0x7c c:/psdk3v2/ps3dev/ppu/bin/../lib/gcc/powerpc64-ps3-elf/4.5.2/../../../../powerpc64-ps3-elf/lib\libc.a(lib_a-lock_recursive.o)
 .debug_pubtypes
                0x0000000000001c26      0x149 c:/psdk3v2/ps3dev/ppu/bin/../lib/gcc/powerpc64-ps3-elf/4.5.2/../../../../powerpc64-ps3-elf/lib\libc.a(lib_a-mbrtowc.o)
 .debug_pubtypes
                0x0000000000001d6f      0x149 c:/psdk3v2/ps3dev/ppu/bin/../lib/gcc/powerpc64-ps3-elf/4.5.2/../../../../powerpc64-ps3-elf/lib\libc.a(lib_a-mbtowc_r.o)
 .debug_pubtypes
                0x0000000000001eb8       0x3c c:/psdk3v2/ps3dev/ppu/bin/../lib/gcc/powerpc64-ps3-elf/4.5.2/../../../../powerpc64-ps3-elf/lib\libc.a(lib_a-s_fpclassify.o)
 .debug_pubtypes
                0x0000000000001ef4       0x1d c:/psdk3v2/ps3dev/ppu/bin/../lib/gcc/powerpc64-ps3-elf/4.5.2/../../../../powerpc64-ps3-elf/lib\libc.a(lib_a-sccl.o)
 .debug_pubtypes
                0x0000000000001f11       0x12 c:/psdk3v2/ps3dev/ppu/bin/../lib/gcc/powerpc64-ps3-elf/4.5.2/../../../../powerpc64-ps3-elf/lib\libc.a(lib_a-sf_nan.o)
 .debug_pubtypes
                0x0000000000001f23      0x14c c:/psdk3v2/ps3dev/ppu/bin/../lib/gcc/powerpc64-ps3-elf/4.5.2/../../../../powerpc64-ps3-elf/lib\libc.a(lib_a-sprintf.o)
 .debug_pubtypes
                0x000000000000206f       0x12 c:/psdk3v2/ps3dev/ppu/bin/../lib/gcc/powerpc64-ps3-elf/4.5.2/../../../../powerpc64-ps3-elf/lib\libc.a(lib_a-strcmp.o)
 .debug_pubtypes
                0x0000000000002081      0x16c c:/psdk3v2/ps3dev/ppu/bin/../lib/gcc/powerpc64-ps3-elf/4.5.2/../../../../powerpc64-ps3-elf/lib\libc.a(lib_a-strtod.o)
 .debug_pubtypes
                0x00000000000021ed      0x124 c:/psdk3v2/ps3dev/ppu/bin/../lib/gcc/powerpc64-ps3-elf/4.5.2/../../../../powerpc64-ps3-elf/lib\libc.a(lib_a-strtol.o)
 .debug_pubtypes
                0x0000000000002311      0x124 c:/psdk3v2/ps3dev/ppu/bin/../lib/gcc/powerpc64-ps3-elf/4.5.2/../../../../powerpc64-ps3-elf/lib\libc.a(lib_a-strtoll_r.o)
 .debug_pubtypes
                0x0000000000002435      0x124 c:/psdk3v2/ps3dev/ppu/bin/../lib/gcc/powerpc64-ps3-elf/4.5.2/../../../../powerpc64-ps3-elf/lib\libc.a(lib_a-strtoul.o)
 .debug_pubtypes
                0x0000000000002559      0x124 c:/psdk3v2/ps3dev/ppu/bin/../lib/gcc/powerpc64-ps3-elf/4.5.2/../../../../powerpc64-ps3-elf/lib\libc.a(lib_a-strtoull_r.o)
 .debug_pubtypes
                0x000000000000267d      0x18f c:/psdk3v2/ps3dev/ppu/bin/../lib/gcc/powerpc64-ps3-elf/4.5.2/../../../../powerpc64-ps3-elf/lib\libc.a(lib_a-svfiscanf.o)
 .debug_pubtypes
                0x000000000000280c      0x1b2 c:/psdk3v2/ps3dev/ppu/bin/../lib/gcc/powerpc64-ps3-elf/4.5.2/../../../../powerpc64-ps3-elf/lib\libc.a(lib_a-svfprintf.o)
 .debug_pubtypes
                0x00000000000029be      0x138 c:/psdk3v2/ps3dev/ppu/bin/../lib/gcc/powerpc64-ps3-elf/4.5.2/../../../../powerpc64-ps3-elf/lib\libc.a(lib_a-ungetc.o)
 .debug_pubtypes
                0x0000000000002af6      0x150 c:/psdk3v2/ps3dev/ppu/bin/../lib/gcc/powerpc64-ps3-elf/4.5.2/../../../../powerpc64-ps3-elf/lib\libc.a(lib_a-dtoa.o)
 .debug_pubtypes
                0x0000000000002c46      0x12d c:/psdk3v2/ps3dev/ppu/bin/../lib/gcc/powerpc64-ps3-elf/4.5.2/../../../../powerpc64-ps3-elf/lib\libc.a(lib_a-fclose.o)
 .debug_pubtypes
                0x0000000000002d73      0x12d c:/psdk3v2/ps3dev/ppu/bin/../lib/gcc/powerpc64-ps3-elf/4.5.2/../../../../powerpc64-ps3-elf/lib\libc.a(lib_a-fflush.o)
 .debug_pubtypes
                0x0000000000002ea0      0x162 c:/psdk3v2/ps3dev/ppu/bin/../lib/gcc/powerpc64-ps3-elf/4.5.2/../../../../powerpc64-ps3-elf/lib\libc.a(lib_a-gdtoa-gethex.o)
 .debug_pubtypes
                0x0000000000003002       0x2e c:/psdk3v2/ps3dev/ppu/bin/../lib/gcc/powerpc64-ps3-elf/4.5.2/../../../../powerpc64-ps3-elf/lib\libc.a(lib_a-gdtoa-hexnan.o)
 .debug_pubtypes
                0x0000000000003030       0x7c c:/psdk3v2/ps3dev/ppu/bin/../lib/gcc/powerpc64-ps3-elf/4.5.2/../../../../powerpc64-ps3-elf/lib\libc.a(lib_a-lock_internal.o)
 .debug_pubtypes
                0x00000000000030ac       0x1d c:/psdk3v2/ps3dev/ppu/bin/../lib/gcc/powerpc64-ps3-elf/4.5.2/../../../../powerpc64-ps3-elf/lib\libc.a(lib_a-memchr.o)
 .debug_pubtypes
                0x00000000000030c9      0x150 c:/psdk3v2/ps3dev/ppu/bin/../lib/gcc/powerpc64-ps3-elf/4.5.2/../../../../powerpc64-ps3-elf/lib\libc.a(lib_a-mprec.o)
 .debug_pubtypes
                0x0000000000003219      0x15a c:/psdk3v2/ps3dev/ppu/bin/../lib/gcc/powerpc64-ps3-elf/4.5.2/../../../../powerpc64-ps3-elf/lib\libc.a(lib_a-reallocr.o)
 .debug_pubtypes
                0x0000000000003373       0x1d c:/psdk3v2/ps3dev/ppu/bin/../lib/gcc/powerpc64-ps3-elf/4.5.2/../../../../powerpc64-ps3-elf/lib\libc.a(lib_a-strncmp.o)
 .debug_pubtypes
                0x0000000000003390      0x192 c:/psdk3v2/ps3dev/ppu/bin/../lib/gcc/powerpc64-ps3-elf/4.5.2/../../../../powerpc64-ps3-elf/lib\libc.a(lib_a-svfiprintf.o)
 .debug_pubtypes
                0x0000000000003522       0x12 c:/psdk3v2/ps3dev/ppu/bin/../lib/gcc/powerpc64-ps3-elf/4.5.2/../../../../powerpc64-ps3-elf/lib\libc.a(lib_a-abort.o)
 .debug_pubtypes
                0x0000000000003534      0x14e c:/psdk3v2/ps3dev/ppu/bin/../lib/gcc/powerpc64-ps3-elf/4.5.2/../../../../powerpc64-ps3-elf/lib\libc.a(lib_a-callocr.o)
 .debug_pubtypes
                0x0000000000003682       0x1d c:/psdk3v2/ps3dev/ppu/bin/../lib/gcc/powerpc64-ps3-elf/4.5.2/../../../../powerpc64-ps3-elf/lib\libc.a(lib_a-memmove.o)
 .debug_pubtypes
                0x000000000000369f      0x136 c:/psdk3v2/ps3dev/ppu/bin/../lib/gcc/powerpc64-ps3-elf/4.5.2/../../../../powerpc64-ps3-elf/lib\libc.a(lib_a-signal.o)
 .debug_pubtypes
                0x00000000000037d5      0x2d1 c:/psdk3v2/ps3dev/ppu/bin/../lib/gcc/powerpc64-ps3-elf/4.5.2/../../../../powerpc64-ps3-elf/lib\libsysbase.a(close.o)
 .debug_pubtypes
                0x0000000000003aa6      0x2d1 c:/psdk3v2/ps3dev/ppu/bin/../lib/gcc/powerpc64-ps3-elf/4.5.2/../../../../powerpc64-ps3-elf/lib\libsysbase.a(sbrk.o)
 .debug_pubtypes
                0x0000000000003d77      0x2d1 c:/psdk3v2/ps3dev/ppu/bin/../lib/gcc/powerpc64-ps3-elf/4.5.2/../../../../powerpc64-ps3-elf/lib\libsysbase.a(_exit.o)
 .debug_pubtypes
                0x0000000000004048      0x2d1 c:/psdk3v2/ps3dev/ppu/bin/../lib/gcc/powerpc64-ps3-elf/4.5.2/../../../../powerpc64-ps3-elf/lib\libsysbase.a(lseek.o)
 .debug_pubtypes
                0x0000000000004319      0x2d1 c:/psdk3v2/ps3dev/ppu/bin/../lib/gcc/powerpc64-ps3-elf/4.5.2/../../../../powerpc64-ps3-elf/lib\libsysbase.a(read.o)
 .debug_pubtypes
                0x00000000000045ea      0x2d1 c:/psdk3v2/ps3dev/ppu/bin/../lib/gcc/powerpc64-ps3-elf/4.5.2/../../../../powerpc64-ps3-elf/lib\libsysbase.a(write.o)
 .debug_pubtypes
                0x00000000000048bb      0x2d1 c:/psdk3v2/ps3dev/ppu/bin/../lib/gcc/powerpc64-ps3-elf/4.5.2/../../../../powerpc64-ps3-elf/lib\libsysbase.a(lock.o)
 .debug_pubtypes
                0x0000000000004b8c      0x2d1 c:/psdk3v2/ps3dev/ppu/bin/../lib/gcc/powerpc64-ps3-elf/4.5.2/../../../../powerpc64-ps3-elf/lib\libsysbase.a(getpid.o)
 .debug_pubtypes
                0x0000000000004e5d      0x124 c:/psdk3v2/ps3dev/ppu/bin/../lib/gcc/powerpc64-ps3-elf/4.5.2/../../../../powerpc64-ps3-elf/lib\libsysbase.a(kill.o)

.debug_ranges   0x0000000000000000     0x2180
 *(.debug_ranges)
 .debug_ranges  0x0000000000000000       0x90 c:/psdk3v2/ps3dev/ppu/bin/../lib/gcc/powerpc64-ps3-elf/4.5.2/../../../../powerpc64-ps3-elf/lib\libm.a(lib_a-s_sqrt.o)
 .debug_ranges  0x0000000000000090       0x20 c:/psdk3v2/ps3dev/ppu/bin/../lib/gcc/powerpc64-ps3-elf/4.5.2/../../../../powerpc64-ps3-elf/lib\libm.a(lib_a-sf_cos.o)
 .debug_ranges  0x00000000000000b0       0x20 c:/psdk3v2/ps3dev/ppu/bin/../lib/gcc/powerpc64-ps3-elf/4.5.2/../../../../powerpc64-ps3-elf/lib\libm.a(lib_a-sf_sin.o)
 .debug_ranges  0x00000000000000d0       0x20 c:/psdk3v2/ps3dev/ppu/bin/../lib/gcc/powerpc64-ps3-elf/4.5.2/../../../../powerpc64-ps3-elf/lib\libm.a(lib_a-sf_sine.o)
 .debug_ranges  0x00000000000000f0       0x90 c:/psdk3v2/ps3dev/ppu/bin/../lib/gcc/powerpc64-ps3-elf/4.5.2/../../../../powerpc64-ps3-elf/lib\libm.a(lib_a-sf_sqrt.o)
 .debug_ranges  0x0000000000000180       0x20 c:/psdk3v2/ps3dev/ppu/bin/../lib/gcc/powerpc64-ps3-elf/4.5.2/../../../../powerpc64-ps3-elf/lib\libm.a(lib_a-sf_tan.o)
 .debug_ranges  0x00000000000001a0       0x20 c:/psdk3v2/ps3dev/ppu/bin/../lib/gcc/powerpc64-ps3-elf/4.5.2/../../../../powerpc64-ps3-elf/lib\libm.a(lib_a-s_frexp.o)
 .debug_ranges  0x00000000000001c0       0x20 c:/psdk3v2/ps3dev/ppu/bin/../lib/gcc/powerpc64-ps3-elf/4.5.2/../../../../powerpc64-ps3-elf/lib\libm.a(lib_a-s_ispos.o)
 .debug_ranges  0x00000000000001e0       0x90 c:/psdk3v2/ps3dev/ppu/bin/../lib/gcc/powerpc64-ps3-elf/4.5.2/../../../../powerpc64-ps3-elf/lib\libm.a(lib_a-s_ldexp.o)
 .debug_ranges  0x0000000000000270       0x60 c:/psdk3v2/ps3dev/ppu/bin/../lib/gcc/powerpc64-ps3-elf/4.5.2/../../../../powerpc64-ps3-elf/lib\libm.a(lib_a-s_numtest.o)
 .debug_ranges  0x00000000000002d0       0x20 c:/psdk3v2/ps3dev/ppu/bin/../lib/gcc/powerpc64-ps3-elf/4.5.2/../../../../powerpc64-ps3-elf/lib\libm.a(lib_a-sf_fabs.o)
 .debug_ranges  0x00000000000002f0       0x20 c:/psdk3v2/ps3dev/ppu/bin/../lib/gcc/powerpc64-ps3-elf/4.5.2/../../../../powerpc64-ps3-elf/lib\libm.a(lib_a-sf_frexp.o)
 .debug_ranges  0x0000000000000310       0x20 c:/psdk3v2/ps3dev/ppu/bin/../lib/gcc/powerpc64-ps3-elf/4.5.2/../../../../powerpc64-ps3-elf/lib\libm.a(lib_a-sf_ispos.o)
 .debug_ranges  0x0000000000000330       0x20 c:/psdk3v2/ps3dev/ppu/bin/../lib/gcc/powerpc64-ps3-elf/4.5.2/../../../../powerpc64-ps3-elf/lib\libm.a(lib_a-sf_ldexp.o)
 .debug_ranges  0x0000000000000350       0x20 c:/psdk3v2/ps3dev/ppu/bin/../lib/gcc/powerpc64-ps3-elf/4.5.2/../../../../powerpc64-ps3-elf/lib\libm.a(lib_a-sf_numtest.o)
 .debug_ranges  0x0000000000000370       0x30 c:/psdk3v2/ps3dev/ppu/bin/../lib/gcc/powerpc64-ps3-elf/4.5.2/../../../../powerpc64-ps3-elf/lib\libsysbase.a(sleep.o)
 .debug_ranges  0x00000000000003a0       0x20 c:/psdk3v2/ps3dev/ppu/bin/../lib/gcc/powerpc64-ps3-elf/4.5.2/../../../../powerpc64-ps3-elf/lib\libc.a(lib_a-atexit.o)
 .debug_ranges  0x00000000000003c0       0x20 c:/psdk3v2/ps3dev/ppu/bin/../lib/gcc/powerpc64-ps3-elf/4.5.2/../../../../powerpc64-ps3-elf/lib\libc.a(lib_a-errno.o)
 .debug_ranges  0x00000000000003e0       0x20 c:/psdk3v2/ps3dev/ppu/bin/../lib/gcc/powerpc64-ps3-elf/4.5.2/../../../../powerpc64-ps3-elf/lib\libc.a(lib_a-exit.o)
 .debug_ranges  0x0000000000000400       0x70 c:/psdk3v2/ps3dev/ppu/bin/../lib/gcc/powerpc64-ps3-elf/4.5.2/../../../../powerpc64-ps3-elf/lib\libc.a(lib_a-getreent.o)
 .debug_ranges  0x0000000000000470       0x20 c:/psdk3v2/ps3dev/ppu/bin/../lib/gcc/powerpc64-ps3-elf/4.5.2/../../../../powerpc64-ps3-elf/lib\libc.a(lib_a-malign.o)
 .debug_ranges  0x0000000000000490       0x20 c:/psdk3v2/ps3dev/ppu/bin/../lib/gcc/powerpc64-ps3-elf/4.5.2/../../../../powerpc64-ps3-elf/lib\libc.a(lib_a-malignr.o)
 .debug_ranges  0x00000000000004b0       0x30 c:/psdk3v2/ps3dev/ppu/bin/../lib/gcc/powerpc64-ps3-elf/4.5.2/../../../../powerpc64-ps3-elf/lib\libc.a(lib_a-malloc.o)
 .debug_ranges  0x00000000000004e0       0xc0 c:/psdk3v2/ps3dev/ppu/bin/../lib/gcc/powerpc64-ps3-elf/4.5.2/../../../../powerpc64-ps3-elf/lib\libc.a(lib_a-mallocr.o)
 .debug_ranges  0x00000000000005a0       0x20 c:/psdk3v2/ps3dev/ppu/bin/../lib/gcc/powerpc64-ps3-elf/4.5.2/../../../../powerpc64-ps3-elf/lib\libc.a(lib_a-memcpy.o)
 .debug_ranges  0x00000000000005c0       0x20 c:/psdk3v2/ps3dev/ppu/bin/../lib/gcc/powerpc64-ps3-elf/4.5.2/../../../../powerpc64-ps3-elf/lib\libc.a(lib_a-memset.o)
 .debug_ranges  0x00000000000005e0       0x30 c:/psdk3v2/ps3dev/ppu/bin/../lib/gcc/powerpc64-ps3-elf/4.5.2/../../../../powerpc64-ps3-elf/lib\libc.a(lib_a-mlock.o)
 .debug_ranges  0x0000000000000610       0x30 c:/psdk3v2/ps3dev/ppu/bin/../lib/gcc/powerpc64-ps3-elf/4.5.2/../../../../powerpc64-ps3-elf/lib\libc.a(lib_a-sscanf.o)
 .debug_ranges  0x0000000000000640       0x60 c:/psdk3v2/ps3dev/ppu/bin/../lib/gcc/powerpc64-ps3-elf/4.5.2/../../../../powerpc64-ps3-elf/lib\libc.a(lib_a-stdio.o)
 .debug_ranges  0x00000000000006a0       0x50 c:/psdk3v2/ps3dev/ppu/bin/../lib/gcc/powerpc64-ps3-elf/4.5.2/../../../../powerpc64-ps3-elf/lib\libc.a(lib_a-strcasecmp.o)
 .debug_ranges  0x00000000000006f0       0x20 c:/psdk3v2/ps3dev/ppu/bin/../lib/gcc/powerpc64-ps3-elf/4.5.2/../../../../powerpc64-ps3-elf/lib\libc.a(lib_a-strlen.o)
 .debug_ranges  0x0000000000000710       0x20 c:/psdk3v2/ps3dev/ppu/bin/../lib/gcc/powerpc64-ps3-elf/4.5.2/../../../../powerpc64-ps3-elf/lib\libc.a(lib_a-strncpy.o)
 .debug_ranges  0x0000000000000730      0x2e0 c:/psdk3v2/ps3dev/ppu/bin/../lib/gcc/powerpc64-ps3-elf/4.5.2/../../../../powerpc64-ps3-elf/lib\libc.a(lib_a-svfscanf.o)
 .debug_ranges  0x0000000000000a10       0x20 c:/psdk3v2/ps3dev/ppu/bin/../lib/gcc/powerpc64-ps3-elf/4.5.2/../../../../powerpc64-ps3-elf/lib\libc.a(lib_a-__atexit.o)
 .debug_ranges  0x0000000000000a30       0x70 c:/psdk3v2/ps3dev/ppu/bin/../lib/gcc/powerpc64-ps3-elf/4.5.2/../../../../powerpc64-ps3-elf/lib\libc.a(lib_a-__call_atexit.o)
 .debug_ranges  0x0000000000000aa0      0x130 c:/psdk3v2/ps3dev/ppu/bin/../lib/gcc/powerpc64-ps3-elf/4.5.2/../../../../powerpc64-ps3-elf/lib\libc.a(lib_a-findfp.o)
 .debug_ranges  0x0000000000000bd0       0x30 c:/psdk3v2/ps3dev/ppu/bin/../lib/gcc/powerpc64-ps3-elf/4.5.2/../../../../powerpc64-ps3-elf/lib\libc.a(lib_a-freer.o)
 .debug_ranges  0x0000000000000c00       0xf0 c:/psdk3v2/ps3dev/ppu/bin/../lib/gcc/powerpc64-ps3-elf/4.5.2/../../../../powerpc64-ps3-elf/lib\libc.a(lib_a-fwalk.o)
 .debug_ranges  0x0000000000000cf0       0x20 c:/psdk3v2/ps3dev/ppu/bin/../lib/gcc/powerpc64-ps3-elf/4.5.2/../../../../powerpc64-ps3-elf/lib\libc.a(lib_a-iswspace.o)
 .debug_ranges  0x0000000000000d10       0x90 c:/psdk3v2/ps3dev/ppu/bin/../lib/gcc/powerpc64-ps3-elf/4.5.2/../../../../powerpc64-ps3-elf/lib\libc.a(lib_a-locale.o)
 .debug_ranges  0x0000000000000da0       0x60 c:/psdk3v2/ps3dev/ppu/bin/../lib/gcc/powerpc64-ps3-elf/4.5.2/../../../../powerpc64-ps3-elf/lib\libc.a(lib_a-lock_recursive.o)
 .debug_ranges  0x0000000000000e00       0x30 c:/psdk3v2/ps3dev/ppu/bin/../lib/gcc/powerpc64-ps3-elf/4.5.2/../../../../powerpc64-ps3-elf/lib\libc.a(lib_a-mbrtowc.o)
 .debug_ranges  0x0000000000000e30       0x30 c:/psdk3v2/ps3dev/ppu/bin/../lib/gcc/powerpc64-ps3-elf/4.5.2/../../../../powerpc64-ps3-elf/lib\libc.a(lib_a-mbtowc_r.o)
 .debug_ranges  0x0000000000000e60       0x50 c:/psdk3v2/ps3dev/ppu/bin/../lib/gcc/powerpc64-ps3-elf/4.5.2/../../../../powerpc64-ps3-elf/lib\libc.a(lib_a-s_fpclassify.o)
 .debug_ranges  0x0000000000000eb0       0x20 c:/psdk3v2/ps3dev/ppu/bin/../lib/gcc/powerpc64-ps3-elf/4.5.2/../../../../powerpc64-ps3-elf/lib\libc.a(lib_a-sccl.o)
 .debug_ranges  0x0000000000000ed0       0x20 c:/psdk3v2/ps3dev/ppu/bin/../lib/gcc/powerpc64-ps3-elf/4.5.2/../../../../powerpc64-ps3-elf/lib\libc.a(lib_a-sf_nan.o)
 .debug_ranges  0x0000000000000ef0       0x30 c:/psdk3v2/ps3dev/ppu/bin/../lib/gcc/powerpc64-ps3-elf/4.5.2/../../../../powerpc64-ps3-elf/lib\libc.a(lib_a-sprintf.o)
 .debug_ranges  0x0000000000000f20       0x20 c:/psdk3v2/ps3dev/ppu/bin/../lib/gcc/powerpc64-ps3-elf/4.5.2/../../../../powerpc64-ps3-elf/lib\libc.a(lib_a-strcmp.o)
 .debug_ranges  0x0000000000000f40      0x110 c:/psdk3v2/ps3dev/ppu/bin/../lib/gcc/powerpc64-ps3-elf/4.5.2/../../../../powerpc64-ps3-elf/lib\libc.a(lib_a-strtod.o)
 .debug_ranges  0x0000000000001050       0x30 c:/psdk3v2/ps3dev/ppu/bin/../lib/gcc/powerpc64-ps3-elf/4.5.2/../../../../powerpc64-ps3-elf/lib\libc.a(lib_a-strtol.o)
 .debug_ranges  0x0000000000001080       0x20 c:/psdk3v2/ps3dev/ppu/bin/../lib/gcc/powerpc64-ps3-elf/4.5.2/../../../../powerpc64-ps3-elf/lib\libc.a(lib_a-strtoll_r.o)
 .debug_ranges  0x00000000000010a0       0x30 c:/psdk3v2/ps3dev/ppu/bin/../lib/gcc/powerpc64-ps3-elf/4.5.2/../../../../powerpc64-ps3-elf/lib\libc.a(lib_a-strtoul.o)
 .debug_ranges  0x00000000000010d0       0x20 c:/psdk3v2/ps3dev/ppu/bin/../lib/gcc/powerpc64-ps3-elf/4.5.2/../../../../powerpc64-ps3-elf/lib\libc.a(lib_a-strtoull_r.o)
 .debug_ranges  0x00000000000010f0      0x250 c:/psdk3v2/ps3dev/ppu/bin/../lib/gcc/powerpc64-ps3-elf/4.5.2/../../../../powerpc64-ps3-elf/lib\libc.a(lib_a-svfiscanf.o)
 .debug_ranges  0x0000000000001340      0x450 c:/psdk3v2/ps3dev/ppu/bin/../lib/gcc/powerpc64-ps3-elf/4.5.2/../../../../powerpc64-ps3-elf/lib\libc.a(lib_a-svfprintf.o)
 .debug_ranges  0x0000000000001790       0x40 c:/psdk3v2/ps3dev/ppu/bin/../lib/gcc/powerpc64-ps3-elf/4.5.2/../../../../powerpc64-ps3-elf/lib\libc.a(lib_a-ungetc.o)
 .debug_ranges  0x00000000000017d0       0x30 c:/psdk3v2/ps3dev/ppu/bin/../lib/gcc/powerpc64-ps3-elf/4.5.2/../../../../powerpc64-ps3-elf/lib\libc.a(lib_a-dtoa.o)
 .debug_ranges  0x0000000000001800       0x30 c:/psdk3v2/ps3dev/ppu/bin/../lib/gcc/powerpc64-ps3-elf/4.5.2/../../../../powerpc64-ps3-elf/lib\libc.a(lib_a-fclose.o)
 .debug_ranges  0x0000000000001830       0xa0 c:/psdk3v2/ps3dev/ppu/bin/../lib/gcc/powerpc64-ps3-elf/4.5.2/../../../../powerpc64-ps3-elf/lib\libc.a(lib_a-fflush.o)
 .debug_ranges  0x00000000000018d0      0x120 c:/psdk3v2/ps3dev/ppu/bin/../lib/gcc/powerpc64-ps3-elf/4.5.2/../../../../powerpc64-ps3-elf/lib\libc.a(lib_a-gdtoa-gethex.o)
 .debug_ranges  0x00000000000019f0       0x20 c:/psdk3v2/ps3dev/ppu/bin/../lib/gcc/powerpc64-ps3-elf/4.5.2/../../../../powerpc64-ps3-elf/lib\libc.a(lib_a-gdtoa-hexnan.o)
 .debug_ranges  0x0000000000001a10       0x30 c:/psdk3v2/ps3dev/ppu/bin/../lib/gcc/powerpc64-ps3-elf/4.5.2/../../../../powerpc64-ps3-elf/lib\libc.a(lib_a-lock_internal.o)
 .debug_ranges  0x0000000000001a40       0x20 c:/psdk3v2/ps3dev/ppu/bin/../lib/gcc/powerpc64-ps3-elf/4.5.2/../../../../powerpc64-ps3-elf/lib\libc.a(lib_a-memchr.o)
 .debug_ranges  0x0000000000001a60      0x1f0 c:/psdk3v2/ps3dev/ppu/bin/../lib/gcc/powerpc64-ps3-elf/4.5.2/../../../../powerpc64-ps3-elf/lib\libc.a(lib_a-mprec.o)
 .debug_ranges  0x0000000000001c50      0x1d0 c:/psdk3v2/ps3dev/ppu/bin/../lib/gcc/powerpc64-ps3-elf/4.5.2/../../../../powerpc64-ps3-elf/lib\libc.a(lib_a-reallocr.o)
 .debug_ranges  0x0000000000001e20       0x20 c:/psdk3v2/ps3dev/ppu/bin/../lib/gcc/powerpc64-ps3-elf/4.5.2/../../../../powerpc64-ps3-elf/lib\libc.a(lib_a-strncmp.o)
 .debug_ranges  0x0000000000001e40       0xc0 c:/psdk3v2/ps3dev/ppu/bin/../lib/gcc/powerpc64-ps3-elf/4.5.2/../../../../powerpc64-ps3-elf/lib\libc.a(lib_a-svfiprintf.o)
 .debug_ranges  0x0000000000001f00       0x20 c:/psdk3v2/ps3dev/ppu/bin/../lib/gcc/powerpc64-ps3-elf/4.5.2/../../../../powerpc64-ps3-elf/lib\libc.a(lib_a-abort.o)
 .debug_ranges  0x0000000000001f20       0x50 c:/psdk3v2/ps3dev/ppu/bin/../lib/gcc/powerpc64-ps3-elf/4.5.2/../../../../powerpc64-ps3-elf/lib\libc.a(lib_a-callocr.o)
 .debug_ranges  0x0000000000001f70       0x20 c:/psdk3v2/ps3dev/ppu/bin/../lib/gcc/powerpc64-ps3-elf/4.5.2/../../../../powerpc64-ps3-elf/lib\libc.a(lib_a-memmove.o)
 .debug_ranges  0x0000000000001f90       0x90 c:/psdk3v2/ps3dev/ppu/bin/../lib/gcc/powerpc64-ps3-elf/4.5.2/../../../../powerpc64-ps3-elf/lib\libc.a(lib_a-signal.o)
 .debug_ranges  0x0000000000002020       0x20 c:/psdk3v2/ps3dev/ppu/bin/../lib/gcc/powerpc64-ps3-elf/4.5.2/../../../../powerpc64-ps3-elf/lib\libsysbase.a(close.o)
 .debug_ranges  0x0000000000002040       0x20 c:/psdk3v2/ps3dev/ppu/bin/../lib/gcc/powerpc64-ps3-elf/4.5.2/../../../../powerpc64-ps3-elf/lib\libsysbase.a(sbrk.o)
 .debug_ranges  0x0000000000002060       0x20 c:/psdk3v2/ps3dev/ppu/bin/../lib/gcc/powerpc64-ps3-elf/4.5.2/../../../../powerpc64-ps3-elf/lib\libsysbase.a(_exit.o)
 .debug_ranges  0x0000000000002080       0x20 c:/psdk3v2/ps3dev/ppu/bin/../lib/gcc/powerpc64-ps3-elf/4.5.2/../../../../powerpc64-ps3-elf/lib\libsysbase.a(lseek.o)
 .debug_ranges  0x00000000000020a0       0x20 c:/psdk3v2/ps3dev/ppu/bin/../lib/gcc/powerpc64-ps3-elf/4.5.2/../../../../powerpc64-ps3-elf/lib\libsysbase.a(read.o)
 .debug_ranges  0x00000000000020c0       0x20 c:/psdk3v2/ps3dev/ppu/bin/../lib/gcc/powerpc64-ps3-elf/4.5.2/../../../../powerpc64-ps3-elf/lib\libsysbase.a(write.o)
 .debug_ranges  0x00000000000020e0       0x60 c:/psdk3v2/ps3dev/ppu/bin/../lib/gcc/powerpc64-ps3-elf/4.5.2/../../../../powerpc64-ps3-elf/lib\libsysbase.a(lock.o)
 .debug_ranges  0x0000000000002140       0x20 c:/psdk3v2/ps3dev/ppu/bin/../lib/gcc/powerpc64-ps3-elf/4.5.2/../../../../powerpc64-ps3-elf/lib\libsysbase.a(getpid.o)
 .debug_ranges  0x0000000000002160       0x20 c:/psdk3v2/ps3dev/ppu/bin/../lib/gcc/powerpc64-ps3-elf/4.5.2/../../../../powerpc64-ps3-elf/lib\libsysbase.a(kill.o)

.gnu.attributes
 *(.gnu.attributes)

/DISCARD/
 *(.note.GNU-stack)
 *(.gnu_debuglink)
LOAD c:/psdk3v2/ps3dev/ppu/bin/../lib/gcc/powerpc64-ps3-elf/4.5.2/../../../../powerpc64-ps3-elf/lib/lv2-crti.o
LOAD c:/psdk3v2/ps3dev/ppu/bin/../lib/gcc/powerpc64-ps3-elf/4.5.2/crtbegin.o
LOAD c:/psdk3v2/ps3dev/ppu/bin/../lib/gcc/powerpc64-ps3-elf/4.5.2/../../../../powerpc64-ps3-elf/lib/lv2-crt0.o
LOAD c:/psdk3v2/ps3dev/ppu/bin/../lib/gcc/powerpc64-ps3-elf/4.5.2/../../../../powerpc64-ps3-elf/lib/lv2-sprx.o
LOAD dorian_png.bin.o
LOAD main.o
LOAD c:/PSDK3v2/ps3dev/portlibs/ppu/lib\libtiny3d.a
LOAD c:/PSDK3v2/psl1ght/ppu/lib\libsimdmath.a
LOAD c:/PSDK3v2/psl1ght/ppu/lib\libgcm_sys.a
LOAD c:/PSDK3v2/psl1ght/ppu/lib\libio.a
LOAD c:/PSDK3v2/psl1ght/ppu/lib\libsysutil.a
LOAD c:/PSDK3v2/psl1ght/ppu/lib\librt.a
LOAD c:/PSDK3v2/psl1ght/ppu/lib\liblv2.a
LOAD c:/PSDK3v2/psl1ght/ppu/lib\libpngdec.a
LOAD c:/PSDK3v2/psl1ght/ppu/lib\libsysmodule.a
LOAD c:/psdk3v2/ps3dev/ppu/bin/../lib/gcc/powerpc64-ps3-elf/4.5.2/../../../../powerpc64-ps3-elf/lib\libm.a
LOAD c:/psdk3v2/ps3dev/ppu/bin/../lib/gcc/powerpc64-ps3-elf/4.5.2\libgcc.a
START GROUP
LOAD c:/psdk3v2/ps3dev/ppu/bin/../lib/gcc/powerpc64-ps3-elf/4.5.2/../../../../powerpc64-ps3-elf/lib\libsysbase.a
LOAD c:/psdk3v2/ps3dev/ppu/bin/../lib/gcc/powerpc64-ps3-elf/4.5.2/../../../../powerpc64-ps3-elf/lib\libc.a
LOAD c:/PSDK3v2/psl1ght/ppu/lib\librt.a
LOAD c:/PSDK3v2/psl1ght/ppu/lib\liblv2.a
END GROUP
LOAD c:/psdk3v2/ps3dev/ppu/bin/../lib/gcc/powerpc64-ps3-elf/4.5.2\libgcc.a
LOAD c:/psdk3v2/ps3dev/ppu/bin/../lib/gcc/powerpc64-ps3-elf/4.5.2/crtend.o
LOAD c:/psdk3v2/ps3dev/ppu/bin/../lib/gcc/powerpc64-ps3-elf/4.5.2/../../../../powerpc64-ps3-elf/lib/lv2-crtn.o
OUTPUT(c:/Users/Dorian/Documents/repo/ps3_dev_test1/ps3_dev_test1.elf elf64-powerpc)
